
Between Two Sets.out:     file format elf64-x86-64


Disassembly of section .init:

0000000000001000 <_init>:
    1000:	48 83 ec 08          	sub    $0x8,%rsp
    1004:	48 8b 05 dd 4f 00 00 	mov    0x4fdd(%rip),%rax        # 5fe8 <__gmon_start__>
    100b:	48 85 c0             	test   %rax,%rax
    100e:	74 02                	je     1012 <_init+0x12>
    1010:	ff d0                	callq  *%rax
    1012:	48 83 c4 08          	add    $0x8,%rsp
    1016:	c3                   	retq   

Disassembly of section .plt:

0000000000001020 <.plt>:
    1020:	ff 35 e2 4f 00 00    	pushq  0x4fe2(%rip)        # 6008 <_GLOBAL_OFFSET_TABLE_+0x8>
    1026:	ff 25 e4 4f 00 00    	jmpq   *0x4fe4(%rip)        # 6010 <_GLOBAL_OFFSET_TABLE_+0x10>
    102c:	0f 1f 40 00          	nopl   0x0(%rax)

0000000000001030 <_ZSt17__throw_bad_allocv@plt>:
    1030:	ff 25 e2 4f 00 00    	jmpq   *0x4fe2(%rip)        # 6018 <_ZSt17__throw_bad_allocv@GLIBCXX_3.4>
    1036:	68 00 00 00 00       	pushq  $0x0
    103b:	e9 e0 ff ff ff       	jmpq   1020 <.plt>

0000000000001040 <__cxa_begin_catch@plt>:
    1040:	ff 25 da 4f 00 00    	jmpq   *0x4fda(%rip)        # 6020 <__cxa_begin_catch@CXXABI_1.3>
    1046:	68 01 00 00 00       	pushq  $0x1
    104b:	e9 d0 ff ff ff       	jmpq   1020 <.plt>

0000000000001050 <_ZNSt8ios_base15sync_with_stdioEb@plt>:
    1050:	ff 25 d2 4f 00 00    	jmpq   *0x4fd2(%rip)        # 6028 <_ZNSt8ios_base15sync_with_stdioEb@GLIBCXX_3.4>
    1056:	68 02 00 00 00       	pushq  $0x2
    105b:	e9 c0 ff ff ff       	jmpq   1020 <.plt>

0000000000001060 <_ZSt20__throw_length_errorPKc@plt>:
    1060:	ff 25 ca 4f 00 00    	jmpq   *0x4fca(%rip)        # 6030 <_ZSt20__throw_length_errorPKc@GLIBCXX_3.4>
    1066:	68 03 00 00 00       	pushq  $0x3
    106b:	e9 b0 ff ff ff       	jmpq   1020 <.plt>

0000000000001070 <_ZNSirsERi@plt>:
    1070:	ff 25 c2 4f 00 00    	jmpq   *0x4fc2(%rip)        # 6038 <_ZNSirsERi@GLIBCXX_3.4>
    1076:	68 04 00 00 00       	pushq  $0x4
    107b:	e9 a0 ff ff ff       	jmpq   1020 <.plt>

0000000000001080 <_ZNSt9basic_iosIcSt11char_traitsIcEE3tieEPSo@plt>:
    1080:	ff 25 ba 4f 00 00    	jmpq   *0x4fba(%rip)        # 6040 <_ZNSt9basic_iosIcSt11char_traitsIcEE3tieEPSo@GLIBCXX_3.4>
    1086:	68 05 00 00 00       	pushq  $0x5
    108b:	e9 90 ff ff ff       	jmpq   1020 <.plt>

0000000000001090 <__cxa_atexit@plt>:
    1090:	ff 25 b2 4f 00 00    	jmpq   *0x4fb2(%rip)        # 6048 <__cxa_atexit@GLIBC_2.2.5>
    1096:	68 06 00 00 00       	pushq  $0x6
    109b:	e9 80 ff ff ff       	jmpq   1020 <.plt>

00000000000010a0 <_ZdlPv@plt>:
    10a0:	ff 25 aa 4f 00 00    	jmpq   *0x4faa(%rip)        # 6050 <_ZdlPv@GLIBCXX_3.4>
    10a6:	68 07 00 00 00       	pushq  $0x7
    10ab:	e9 70 ff ff ff       	jmpq   1020 <.plt>

00000000000010b0 <_Znwm@plt>:
    10b0:	ff 25 a2 4f 00 00    	jmpq   *0x4fa2(%rip)        # 6058 <_Znwm@GLIBCXX_3.4>
    10b6:	68 08 00 00 00       	pushq  $0x8
    10bb:	e9 60 ff ff ff       	jmpq   1020 <.plt>

00000000000010c0 <_ZNSolsEPFRSoS_E@plt>:
    10c0:	ff 25 9a 4f 00 00    	jmpq   *0x4f9a(%rip)        # 6060 <_ZNSolsEPFRSoS_E@GLIBCXX_3.4>
    10c6:	68 09 00 00 00       	pushq  $0x9
    10cb:	e9 50 ff ff ff       	jmpq   1020 <.plt>

00000000000010d0 <_ZNKSt9basic_iosIcSt11char_traitsIcEEcvbEv@plt>:
    10d0:	ff 25 92 4f 00 00    	jmpq   *0x4f92(%rip)        # 6068 <_ZNKSt9basic_iosIcSt11char_traitsIcEEcvbEv@GLIBCXX_3.4.21>
    10d6:	68 0a 00 00 00       	pushq  $0xa
    10db:	e9 40 ff ff ff       	jmpq   1020 <.plt>

00000000000010e0 <__cxa_rethrow@plt>:
    10e0:	ff 25 8a 4f 00 00    	jmpq   *0x4f8a(%rip)        # 6070 <__cxa_rethrow@CXXABI_1.3>
    10e6:	68 0b 00 00 00       	pushq  $0xb
    10eb:	e9 30 ff ff ff       	jmpq   1020 <.plt>

00000000000010f0 <_ZNSt8ios_base4InitC1Ev@plt>:
    10f0:	ff 25 82 4f 00 00    	jmpq   *0x4f82(%rip)        # 6078 <_ZNSt8ios_base4InitC1Ev@GLIBCXX_3.4>
    10f6:	68 0c 00 00 00       	pushq  $0xc
    10fb:	e9 20 ff ff ff       	jmpq   1020 <.plt>

0000000000001100 <memmove@plt>:
    1100:	ff 25 7a 4f 00 00    	jmpq   *0x4f7a(%rip)        # 6080 <memmove@GLIBC_2.2.5>
    1106:	68 0d 00 00 00       	pushq  $0xd
    110b:	e9 10 ff ff ff       	jmpq   1020 <.plt>

0000000000001110 <__cxa_end_catch@plt>:
    1110:	ff 25 72 4f 00 00    	jmpq   *0x4f72(%rip)        # 6088 <__cxa_end_catch@CXXABI_1.3>
    1116:	68 0e 00 00 00       	pushq  $0xe
    111b:	e9 00 ff ff ff       	jmpq   1020 <.plt>

0000000000001120 <_ZNSolsEi@plt>:
    1120:	ff 25 6a 4f 00 00    	jmpq   *0x4f6a(%rip)        # 6090 <_ZNSolsEi@GLIBCXX_3.4>
    1126:	68 0f 00 00 00       	pushq  $0xf
    112b:	e9 f0 fe ff ff       	jmpq   1020 <.plt>

0000000000001130 <_Unwind_Resume@plt>:
    1130:	ff 25 62 4f 00 00    	jmpq   *0x4f62(%rip)        # 6098 <_Unwind_Resume@GCC_3.0>
    1136:	68 10 00 00 00       	pushq  $0x10
    113b:	e9 e0 fe ff ff       	jmpq   1020 <.plt>

Disassembly of section .plt.got:

0000000000001140 <__cxa_finalize@plt>:
    1140:	ff 25 82 4e 00 00    	jmpq   *0x4e82(%rip)        # 5fc8 <__cxa_finalize@GLIBC_2.2.5>
    1146:	66 90                	xchg   %ax,%ax

Disassembly of section .text:

0000000000001150 <_start>:
    1150:	31 ed                	xor    %ebp,%ebp
    1152:	49 89 d1             	mov    %rdx,%r9
    1155:	5e                   	pop    %rsi
    1156:	48 89 e2             	mov    %rsp,%rdx
    1159:	48 83 e4 f0          	and    $0xfffffffffffffff0,%rsp
    115d:	50                   	push   %rax
    115e:	54                   	push   %rsp
    115f:	4c 8d 05 7a 16 00 00 	lea    0x167a(%rip),%r8        # 27e0 <__libc_csu_fini>
    1166:	48 8d 0d 13 16 00 00 	lea    0x1613(%rip),%rcx        # 2780 <__libc_csu_init>
    116d:	48 8d 3d 8e 02 00 00 	lea    0x28e(%rip),%rdi        # 1402 <main>
    1174:	ff 15 66 4e 00 00    	callq  *0x4e66(%rip)        # 5fe0 <__libc_start_main@GLIBC_2.2.5>
    117a:	f4                   	hlt    
    117b:	0f 1f 44 00 00       	nopl   0x0(%rax,%rax,1)

0000000000001180 <deregister_tm_clones>:
    1180:	48 8d 3d 31 4f 00 00 	lea    0x4f31(%rip),%rdi        # 60b8 <__TMC_END__>
    1187:	48 8d 05 2a 4f 00 00 	lea    0x4f2a(%rip),%rax        # 60b8 <__TMC_END__>
    118e:	48 39 f8             	cmp    %rdi,%rax
    1191:	74 15                	je     11a8 <deregister_tm_clones+0x28>
    1193:	48 8b 05 3e 4e 00 00 	mov    0x4e3e(%rip),%rax        # 5fd8 <_ITM_deregisterTMCloneTable>
    119a:	48 85 c0             	test   %rax,%rax
    119d:	74 09                	je     11a8 <deregister_tm_clones+0x28>
    119f:	ff e0                	jmpq   *%rax
    11a1:	0f 1f 80 00 00 00 00 	nopl   0x0(%rax)
    11a8:	c3                   	retq   
    11a9:	0f 1f 80 00 00 00 00 	nopl   0x0(%rax)

00000000000011b0 <register_tm_clones>:
    11b0:	48 8d 3d 01 4f 00 00 	lea    0x4f01(%rip),%rdi        # 60b8 <__TMC_END__>
    11b7:	48 8d 35 fa 4e 00 00 	lea    0x4efa(%rip),%rsi        # 60b8 <__TMC_END__>
    11be:	48 29 fe             	sub    %rdi,%rsi
    11c1:	48 89 f0             	mov    %rsi,%rax
    11c4:	48 c1 ee 3f          	shr    $0x3f,%rsi
    11c8:	48 c1 f8 03          	sar    $0x3,%rax
    11cc:	48 01 c6             	add    %rax,%rsi
    11cf:	48 d1 fe             	sar    %rsi
    11d2:	74 14                	je     11e8 <register_tm_clones+0x38>
    11d4:	48 8b 05 15 4e 00 00 	mov    0x4e15(%rip),%rax        # 5ff0 <_ITM_registerTMCloneTable>
    11db:	48 85 c0             	test   %rax,%rax
    11de:	74 08                	je     11e8 <register_tm_clones+0x38>
    11e0:	ff e0                	jmpq   *%rax
    11e2:	66 0f 1f 44 00 00    	nopw   0x0(%rax,%rax,1)
    11e8:	c3                   	retq   
    11e9:	0f 1f 80 00 00 00 00 	nopl   0x0(%rax)

00000000000011f0 <__do_global_dtors_aux>:
    11f0:	80 3d 01 51 00 00 00 	cmpb   $0x0,0x5101(%rip)        # 62f8 <completed.7447>
    11f7:	75 2f                	jne    1228 <__do_global_dtors_aux+0x38>
    11f9:	55                   	push   %rbp
    11fa:	48 83 3d c6 4d 00 00 	cmpq   $0x0,0x4dc6(%rip)        # 5fc8 <__cxa_finalize@GLIBC_2.2.5>
    1201:	00 
    1202:	48 89 e5             	mov    %rsp,%rbp
    1205:	74 0c                	je     1213 <__do_global_dtors_aux+0x23>
    1207:	48 8b 3d 9a 4e 00 00 	mov    0x4e9a(%rip),%rdi        # 60a8 <__dso_handle>
    120e:	e8 2d ff ff ff       	callq  1140 <__cxa_finalize@plt>
    1213:	e8 68 ff ff ff       	callq  1180 <deregister_tm_clones>
    1218:	c6 05 d9 50 00 00 01 	movb   $0x1,0x50d9(%rip)        # 62f8 <completed.7447>
    121f:	5d                   	pop    %rbp
    1220:	c3                   	retq   
    1221:	0f 1f 80 00 00 00 00 	nopl   0x0(%rax)
    1228:	c3                   	retq   
    1229:	0f 1f 80 00 00 00 00 	nopl   0x0(%rax)

0000000000001230 <frame_dummy>:
    1230:	e9 7b ff ff ff       	jmpq   11b0 <register_tm_clones>

0000000000001235 <_Z7decSortxx>:
    1235:	55                   	push   %rbp
    1236:	48 89 e5             	mov    %rsp,%rbp
    1239:	48 89 7d f8          	mov    %rdi,-0x8(%rbp)
    123d:	48 89 75 f0          	mov    %rsi,-0x10(%rbp)
    1241:	48 8b 45 f8          	mov    -0x8(%rbp),%rax
    1245:	48 3b 45 f0          	cmp    -0x10(%rbp),%rax
    1249:	0f 9f c0             	setg   %al
    124c:	5d                   	pop    %rbp
    124d:	c3                   	retq   

000000000000124e <_Z12max_of_arrayPii>:
    124e:	55                   	push   %rbp
    124f:	48 89 e5             	mov    %rsp,%rbp
    1252:	48 89 7d e8          	mov    %rdi,-0x18(%rbp)
    1256:	89 75 e4             	mov    %esi,-0x1c(%rbp)
    1259:	48 8b 45 e8          	mov    -0x18(%rbp),%rax
    125d:	8b 00                	mov    (%rax),%eax
    125f:	48 98                	cltq   
    1261:	48 89 45 f8          	mov    %rax,-0x8(%rbp)
    1265:	c7 45 f4 00 00 00 00 	movl   $0x0,-0xc(%rbp)
    126c:	8b 45 f4             	mov    -0xc(%rbp),%eax
    126f:	3b 45 e4             	cmp    -0x1c(%rbp),%eax
    1272:	7d 40                	jge    12b4 <_Z12max_of_arrayPii+0x66>
    1274:	8b 45 f4             	mov    -0xc(%rbp),%eax
    1277:	48 98                	cltq   
    1279:	48 8d 14 85 00 00 00 	lea    0x0(,%rax,4),%rdx
    1280:	00 
    1281:	48 8b 45 e8          	mov    -0x18(%rbp),%rax
    1285:	48 01 d0             	add    %rdx,%rax
    1288:	8b 00                	mov    (%rax),%eax
    128a:	48 98                	cltq   
    128c:	48 39 45 f8          	cmp    %rax,-0x8(%rbp)
    1290:	7d 1c                	jge    12ae <_Z12max_of_arrayPii+0x60>
    1292:	8b 45 f4             	mov    -0xc(%rbp),%eax
    1295:	48 98                	cltq   
    1297:	48 8d 14 85 00 00 00 	lea    0x0(,%rax,4),%rdx
    129e:	00 
    129f:	48 8b 45 e8          	mov    -0x18(%rbp),%rax
    12a3:	48 01 d0             	add    %rdx,%rax
    12a6:	8b 00                	mov    (%rax),%eax
    12a8:	48 98                	cltq   
    12aa:	48 89 45 f8          	mov    %rax,-0x8(%rbp)
    12ae:	83 45 f4 01          	addl   $0x1,-0xc(%rbp)
    12b2:	eb b8                	jmp    126c <_Z12max_of_arrayPii+0x1e>
    12b4:	48 8b 45 f8          	mov    -0x8(%rbp),%rax
    12b8:	5d                   	pop    %rbp
    12b9:	c3                   	retq   

00000000000012ba <_Z12min_of_arrayPxx>:
    12ba:	55                   	push   %rbp
    12bb:	48 89 e5             	mov    %rsp,%rbp
    12be:	48 89 7d e8          	mov    %rdi,-0x18(%rbp)
    12c2:	48 89 75 e0          	mov    %rsi,-0x20(%rbp)
    12c6:	48 8b 45 e8          	mov    -0x18(%rbp),%rax
    12ca:	48 8b 00             	mov    (%rax),%rax
    12cd:	48 89 45 f8          	mov    %rax,-0x8(%rbp)
    12d1:	48 c7 45 f0 00 00 00 	movq   $0x0,-0x10(%rbp)
    12d8:	00 
    12d9:	48 8b 45 f0          	mov    -0x10(%rbp),%rax
    12dd:	48 3b 45 e0          	cmp    -0x20(%rbp),%rax
    12e1:	7d 3d                	jge    1320 <_Z12min_of_arrayPxx+0x66>
    12e3:	48 8b 45 f0          	mov    -0x10(%rbp),%rax
    12e7:	48 8d 14 c5 00 00 00 	lea    0x0(,%rax,8),%rdx
    12ee:	00 
    12ef:	48 8b 45 e8          	mov    -0x18(%rbp),%rax
    12f3:	48 01 d0             	add    %rdx,%rax
    12f6:	48 8b 00             	mov    (%rax),%rax
    12f9:	48 39 45 f8          	cmp    %rax,-0x8(%rbp)
    12fd:	7e 1a                	jle    1319 <_Z12min_of_arrayPxx+0x5f>
    12ff:	48 8b 45 f0          	mov    -0x10(%rbp),%rax
    1303:	48 8d 14 c5 00 00 00 	lea    0x0(,%rax,8),%rdx
    130a:	00 
    130b:	48 8b 45 e8          	mov    -0x18(%rbp),%rax
    130f:	48 01 d0             	add    %rdx,%rax
    1312:	48 8b 00             	mov    (%rax),%rax
    1315:	48 89 45 f8          	mov    %rax,-0x8(%rbp)
    1319:	48 83 45 f0 01       	addq   $0x1,-0x10(%rbp)
    131e:	eb b9                	jmp    12d9 <_Z12min_of_arrayPxx+0x1f>
    1320:	48 8b 45 f8          	mov    -0x8(%rbp),%rax
    1324:	5d                   	pop    %rbp
    1325:	c3                   	retq   

0000000000001326 <_Z7isPrimex>:
    1326:	55                   	push   %rbp
    1327:	48 89 e5             	mov    %rsp,%rbp
    132a:	48 89 7d e8          	mov    %rdi,-0x18(%rbp)
    132e:	48 83 7d e8 01       	cmpq   $0x1,-0x18(%rbp)
    1333:	75 07                	jne    133c <_Z7isPrimex+0x16>
    1335:	b8 00 00 00 00       	mov    $0x0,%eax
    133a:	eb 49                	jmp    1385 <_Z7isPrimex+0x5f>
    133c:	48 83 7d e8 02       	cmpq   $0x2,-0x18(%rbp)
    1341:	75 07                	jne    134a <_Z7isPrimex+0x24>
    1343:	b8 01 00 00 00       	mov    $0x1,%eax
    1348:	eb 3b                	jmp    1385 <_Z7isPrimex+0x5f>
    134a:	48 c7 45 f8 02 00 00 	movq   $0x2,-0x8(%rbp)
    1351:	00 
    1352:	48 8b 45 f8          	mov    -0x8(%rbp),%rax
    1356:	48 0f af c0          	imul   %rax,%rax
    135a:	48 39 45 e8          	cmp    %rax,-0x18(%rbp)
    135e:	7c 20                	jl     1380 <_Z7isPrimex+0x5a>
    1360:	48 8b 45 e8          	mov    -0x18(%rbp),%rax
    1364:	48 99                	cqto   
    1366:	48 f7 7d f8          	idivq  -0x8(%rbp)
    136a:	48 89 d0             	mov    %rdx,%rax
    136d:	48 85 c0             	test   %rax,%rax
    1370:	75 07                	jne    1379 <_Z7isPrimex+0x53>
    1372:	b8 00 00 00 00       	mov    $0x0,%eax
    1377:	eb 0c                	jmp    1385 <_Z7isPrimex+0x5f>
    1379:	48 83 45 f8 01       	addq   $0x1,-0x8(%rbp)
    137e:	eb d2                	jmp    1352 <_Z7isPrimex+0x2c>
    1380:	b8 01 00 00 00       	mov    $0x1,%eax
    1385:	5d                   	pop    %rbp
    1386:	c3                   	retq   

0000000000001387 <_Z3gcdxx>:
    1387:	55                   	push   %rbp
    1388:	48 89 e5             	mov    %rsp,%rbp
    138b:	48 83 ec 10          	sub    $0x10,%rsp
    138f:	48 89 7d f8          	mov    %rdi,-0x8(%rbp)
    1393:	48 89 75 f0          	mov    %rsi,-0x10(%rbp)
    1397:	48 83 7d f0 00       	cmpq   $0x0,-0x10(%rbp)
    139c:	75 06                	jne    13a4 <_Z3gcdxx+0x1d>
    139e:	48 8b 45 f8          	mov    -0x8(%rbp),%rax
    13a2:	eb 1a                	jmp    13be <_Z3gcdxx+0x37>
    13a4:	48 8b 45 f8          	mov    -0x8(%rbp),%rax
    13a8:	48 99                	cqto   
    13aa:	48 f7 7d f0          	idivq  -0x10(%rbp)
    13ae:	48 8b 45 f0          	mov    -0x10(%rbp),%rax
    13b2:	48 89 d6             	mov    %rdx,%rsi
    13b5:	48 89 c7             	mov    %rax,%rdi
    13b8:	e8 ca ff ff ff       	callq  1387 <_Z3gcdxx>
    13bd:	90                   	nop
    13be:	c9                   	leaveq 
    13bf:	c3                   	retq   

00000000000013c0 <_Z3lcmxx>:
    13c0:	55                   	push   %rbp
    13c1:	48 89 e5             	mov    %rsp,%rbp
    13c4:	53                   	push   %rbx
    13c5:	48 83 ec 18          	sub    $0x18,%rsp
    13c9:	48 89 7d e8          	mov    %rdi,-0x18(%rbp)
    13cd:	48 89 75 e0          	mov    %rsi,-0x20(%rbp)
    13d1:	48 8b 45 e8          	mov    -0x18(%rbp),%rax
    13d5:	48 0f af 45 e0       	imul   -0x20(%rbp),%rax
    13da:	48 89 c3             	mov    %rax,%rbx
    13dd:	48 8b 55 e0          	mov    -0x20(%rbp),%rdx
    13e1:	48 8b 45 e8          	mov    -0x18(%rbp),%rax
    13e5:	48 89 d6             	mov    %rdx,%rsi
    13e8:	48 89 c7             	mov    %rax,%rdi
    13eb:	e8 97 ff ff ff       	callq  1387 <_Z3gcdxx>
    13f0:	48 89 c1             	mov    %rax,%rcx
    13f3:	48 89 d8             	mov    %rbx,%rax
    13f6:	48 99                	cqto   
    13f8:	48 f7 f9             	idiv   %rcx
    13fb:	48 83 c4 18          	add    $0x18,%rsp
    13ff:	5b                   	pop    %rbx
    1400:	5d                   	pop    %rbp
    1401:	c3                   	retq   

0000000000001402 <main>:
    1402:	55                   	push   %rbp
    1403:	48 89 e5             	mov    %rsp,%rbp
    1406:	41 57                	push   %r15
    1408:	41 56                	push   %r14
    140a:	41 54                	push   %r12
    140c:	53                   	push   %rbx
    140d:	48 81 ec b0 00 00 00 	sub    $0xb0,%rsp
    1414:	bf 00 00 00 00       	mov    $0x0,%edi
    1419:	e8 32 fc ff ff       	callq  1050 <_ZNSt8ios_base15sync_with_stdioEb@plt>
    141e:	be 00 00 00 00       	mov    $0x0,%esi
    1423:	48 8d 3d c6 4d 00 00 	lea    0x4dc6(%rip),%rdi        # 61f0 <_ZSt3cin@@GLIBCXX_3.4+0x10>
    142a:	e8 51 fc ff ff       	callq  1080 <_ZNSt9basic_iosIcSt11char_traitsIcEE3tieEPSo@plt>
    142f:	48 8d 45 94          	lea    -0x6c(%rbp),%rax
    1433:	48 89 c6             	mov    %rax,%rsi
    1436:	48 8d 3d a3 4d 00 00 	lea    0x4da3(%rip),%rdi        # 61e0 <_ZSt3cin@@GLIBCXX_3.4>
    143d:	e8 2e fc ff ff       	callq  1070 <_ZNSirsERi@plt>
    1442:	48 89 c2             	mov    %rax,%rdx
    1445:	48 8d 45 90          	lea    -0x70(%rbp),%rax
    1449:	48 89 c6             	mov    %rax,%rsi
    144c:	48 89 d7             	mov    %rdx,%rdi
    144f:	e8 1c fc ff ff       	callq  1070 <_ZNSirsERi@plt>
    1454:	48 8b 10             	mov    (%rax),%rdx
    1457:	48 83 ea 18          	sub    $0x18,%rdx
    145b:	48 8b 12             	mov    (%rdx),%rdx
    145e:	48 01 d0             	add    %rdx,%rax
    1461:	48 89 c7             	mov    %rax,%rdi
    1464:	e8 67 fc ff ff       	callq  10d0 <_ZNKSt9basic_iosIcSt11char_traitsIcEEcvbEv@plt>
    1469:	84 c0                	test   %al,%al
    146b:	0f 84 73 03 00 00    	je     17e4 <main+0x3e2>
    1471:	48 89 e0             	mov    %rsp,%rax
    1474:	49 89 c4             	mov    %rax,%r12
    1477:	8b 45 94             	mov    -0x6c(%rbp),%eax
    147a:	83 c0 01             	add    $0x1,%eax
    147d:	48 98                	cltq   
    147f:	48 83 e8 01          	sub    $0x1,%rax
    1483:	48 89 45 b0          	mov    %rax,-0x50(%rbp)
    1487:	48 89 c2             	mov    %rax,%rdx
    148a:	48 83 c2 01          	add    $0x1,%rdx
    148e:	49 89 d6             	mov    %rdx,%r14
    1491:	41 bf 00 00 00 00    	mov    $0x0,%r15d
    1497:	48 89 c2             	mov    %rax,%rdx
    149a:	48 83 c2 01          	add    $0x1,%rdx
    149e:	48 89 95 50 ff ff ff 	mov    %rdx,-0xb0(%rbp)
    14a5:	48 c7 85 58 ff ff ff 	movq   $0x0,-0xa8(%rbp)
    14ac:	00 00 00 00 
    14b0:	48 83 c0 01          	add    $0x1,%rax
    14b4:	48 8d 14 85 00 00 00 	lea    0x0(,%rax,4),%rdx
    14bb:	00 
    14bc:	b8 10 00 00 00       	mov    $0x10,%eax
    14c1:	48 83 e8 01          	sub    $0x1,%rax
    14c5:	48 01 d0             	add    %rdx,%rax
    14c8:	bb 10 00 00 00       	mov    $0x10,%ebx
    14cd:	ba 00 00 00 00       	mov    $0x0,%edx
    14d2:	48 f7 f3             	div    %rbx
    14d5:	48 6b c0 10          	imul   $0x10,%rax,%rax
    14d9:	48 29 c4             	sub    %rax,%rsp
    14dc:	48 89 e0             	mov    %rsp,%rax
    14df:	48 83 c0 03          	add    $0x3,%rax
    14e3:	48 c1 e8 02          	shr    $0x2,%rax
    14e7:	48 c1 e0 02          	shl    $0x2,%rax
    14eb:	48 89 45 a8          	mov    %rax,-0x58(%rbp)
    14ef:	8b 45 90             	mov    -0x70(%rbp),%eax
    14f2:	83 c0 01             	add    $0x1,%eax
    14f5:	48 98                	cltq   
    14f7:	48 83 e8 01          	sub    $0x1,%rax
    14fb:	48 89 45 a0          	mov    %rax,-0x60(%rbp)
    14ff:	48 89 c2             	mov    %rax,%rdx
    1502:	48 83 c2 01          	add    $0x1,%rdx
    1506:	48 89 95 40 ff ff ff 	mov    %rdx,-0xc0(%rbp)
    150d:	48 c7 85 48 ff ff ff 	movq   $0x0,-0xb8(%rbp)
    1514:	00 00 00 00 
    1518:	48 89 c2             	mov    %rax,%rdx
    151b:	48 83 c2 01          	add    $0x1,%rdx
    151f:	48 89 95 30 ff ff ff 	mov    %rdx,-0xd0(%rbp)
    1526:	48 c7 85 38 ff ff ff 	movq   $0x0,-0xc8(%rbp)
    152d:	00 00 00 00 
    1531:	48 83 c0 01          	add    $0x1,%rax
    1535:	48 8d 14 85 00 00 00 	lea    0x0(,%rax,4),%rdx
    153c:	00 
    153d:	b8 10 00 00 00       	mov    $0x10,%eax
    1542:	48 83 e8 01          	sub    $0x1,%rax
    1546:	48 01 d0             	add    %rdx,%rax
    1549:	bb 10 00 00 00       	mov    $0x10,%ebx
    154e:	ba 00 00 00 00       	mov    $0x0,%edx
    1553:	48 f7 f3             	div    %rbx
    1556:	48 6b c0 10          	imul   $0x10,%rax,%rax
    155a:	48 29 c4             	sub    %rax,%rsp
    155d:	48 89 e0             	mov    %rsp,%rax
    1560:	48 83 c0 03          	add    $0x3,%rax
    1564:	48 c1 e8 02          	shr    $0x2,%rax
    1568:	48 c1 e0 02          	shl    $0x2,%rax
    156c:	48 89 45 98          	mov    %rax,-0x68(%rbp)
    1570:	c7 45 bc 00 00 00 00 	movl   $0x0,-0x44(%rbp)
    1577:	8b 45 94             	mov    -0x6c(%rbp),%eax
    157a:	39 45 bc             	cmp    %eax,-0x44(%rbp)
    157d:	7d 29                	jge    15a8 <main+0x1a6>
    157f:	8b 45 bc             	mov    -0x44(%rbp),%eax
    1582:	48 98                	cltq   
    1584:	48 8d 14 85 00 00 00 	lea    0x0(,%rax,4),%rdx
    158b:	00 
    158c:	48 8b 45 a8          	mov    -0x58(%rbp),%rax
    1590:	48 01 d0             	add    %rdx,%rax
    1593:	48 89 c6             	mov    %rax,%rsi
    1596:	48 8d 3d 43 4c 00 00 	lea    0x4c43(%rip),%rdi        # 61e0 <_ZSt3cin@@GLIBCXX_3.4>
    159d:	e8 ce fa ff ff       	callq  1070 <_ZNSirsERi@plt>
    15a2:	83 45 bc 01          	addl   $0x1,-0x44(%rbp)
    15a6:	eb cf                	jmp    1577 <main+0x175>
    15a8:	c7 45 c0 00 00 00 00 	movl   $0x0,-0x40(%rbp)
    15af:	8b 45 90             	mov    -0x70(%rbp),%eax
    15b2:	39 45 c0             	cmp    %eax,-0x40(%rbp)
    15b5:	7d 29                	jge    15e0 <main+0x1de>
    15b7:	8b 45 c0             	mov    -0x40(%rbp),%eax
    15ba:	48 98                	cltq   
    15bc:	48 8d 14 85 00 00 00 	lea    0x0(,%rax,4),%rdx
    15c3:	00 
    15c4:	48 8b 45 98          	mov    -0x68(%rbp),%rax
    15c8:	48 01 d0             	add    %rdx,%rax
    15cb:	48 89 c6             	mov    %rax,%rsi
    15ce:	48 8d 3d 0b 4c 00 00 	lea    0x4c0b(%rip),%rdi        # 61e0 <_ZSt3cin@@GLIBCXX_3.4>
    15d5:	e8 96 fa ff ff       	callq  1070 <_ZNSirsERi@plt>
    15da:	83 45 c0 01          	addl   $0x1,-0x40(%rbp)
    15de:	eb cf                	jmp    15af <main+0x1ad>
    15e0:	c7 45 c4 01 00 00 00 	movl   $0x1,-0x3c(%rbp)
    15e7:	c7 45 c8 00 00 00 00 	movl   $0x0,-0x38(%rbp)
    15ee:	8b 45 94             	mov    -0x6c(%rbp),%eax
    15f1:	39 45 c8             	cmp    %eax,-0x38(%rbp)
    15f4:	7d 29                	jge    161f <main+0x21d>
    15f6:	8b 45 c4             	mov    -0x3c(%rbp),%eax
    15f9:	48 63 d0             	movslq %eax,%rdx
    15fc:	48 8b 45 a8          	mov    -0x58(%rbp),%rax
    1600:	8b 4d c8             	mov    -0x38(%rbp),%ecx
    1603:	48 63 c9             	movslq %ecx,%rcx
    1606:	8b 04 88             	mov    (%rax,%rcx,4),%eax
    1609:	48 98                	cltq   
    160b:	48 89 d6             	mov    %rdx,%rsi
    160e:	48 89 c7             	mov    %rax,%rdi
    1611:	e8 aa fd ff ff       	callq  13c0 <_Z3lcmxx>
    1616:	89 45 c4             	mov    %eax,-0x3c(%rbp)
    1619:	83 45 c8 01          	addl   $0x1,-0x38(%rbp)
    161d:	eb cf                	jmp    15ee <main+0x1ec>
    161f:	48 8d 85 70 ff ff ff 	lea    -0x90(%rbp),%rax
    1626:	48 89 c7             	mov    %rax,%rdi
    1629:	e8 90 02 00 00       	callq  18be <_ZNSt6vectorIiSaIiEEC1Ev>
    162e:	48 8b 45 98          	mov    -0x68(%rbp),%rax
    1632:	8b 00                	mov    (%rax),%eax
    1634:	89 45 cc             	mov    %eax,-0x34(%rbp)
    1637:	c7 45 d0 01 00 00 00 	movl   $0x1,-0x30(%rbp)
    163e:	8b 45 94             	mov    -0x6c(%rbp),%eax
    1641:	39 45 d0             	cmp    %eax,-0x30(%rbp)
    1644:	7d 29                	jge    166f <main+0x26d>
    1646:	8b 45 cc             	mov    -0x34(%rbp),%eax
    1649:	48 63 d0             	movslq %eax,%rdx
    164c:	48 8b 45 98          	mov    -0x68(%rbp),%rax
    1650:	8b 4d d0             	mov    -0x30(%rbp),%ecx
    1653:	48 63 c9             	movslq %ecx,%rcx
    1656:	8b 04 88             	mov    (%rax,%rcx,4),%eax
    1659:	48 98                	cltq   
    165b:	48 89 d6             	mov    %rdx,%rsi
    165e:	48 89 c7             	mov    %rax,%rdi
    1661:	e8 21 fd ff ff       	callq  1387 <_Z3gcdxx>
    1666:	89 45 cc             	mov    %eax,-0x34(%rbp)
    1669:	83 45 d0 01          	addl   $0x1,-0x30(%rbp)
    166d:	eb cf                	jmp    163e <main+0x23c>
    166f:	c7 85 6c ff ff ff 01 	movl   $0x1,-0x94(%rbp)
    1676:	00 00 00 
    1679:	8b 55 90             	mov    -0x70(%rbp),%edx
    167c:	48 8b 45 98          	mov    -0x68(%rbp),%rax
    1680:	89 d6                	mov    %edx,%esi
    1682:	48 89 c7             	mov    %rax,%rdi
    1685:	e8 c4 fb ff ff       	callq  124e <_Z12max_of_arrayPii>
    168a:	8b 95 6c ff ff ff    	mov    -0x94(%rbp),%edx
    1690:	39 d0                	cmp    %edx,%eax
    1692:	0f 9d c0             	setge  %al
    1695:	84 c0                	test   %al,%al
    1697:	74 6c                	je     1705 <main+0x303>
    1699:	c6 45 d7 01          	movb   $0x1,-0x29(%rbp)
    169d:	c7 45 d8 00 00 00 00 	movl   $0x0,-0x28(%rbp)
    16a4:	8b 45 90             	mov    -0x70(%rbp),%eax
    16a7:	39 45 d8             	cmp    %eax,-0x28(%rbp)
    16aa:	7d 26                	jge    16d2 <main+0x2d0>
    16ac:	48 8b 45 98          	mov    -0x68(%rbp),%rax
    16b0:	8b 55 d8             	mov    -0x28(%rbp),%edx
    16b3:	48 63 d2             	movslq %edx,%rdx
    16b6:	8b 04 90             	mov    (%rax,%rdx,4),%eax
    16b9:	8b 8d 6c ff ff ff    	mov    -0x94(%rbp),%ecx
    16bf:	99                   	cltd   
    16c0:	f7 f9                	idiv   %ecx
    16c2:	89 d0                	mov    %edx,%eax
    16c4:	85 c0                	test   %eax,%eax
    16c6:	74 04                	je     16cc <main+0x2ca>
    16c8:	c6 45 d7 00          	movb   $0x0,-0x29(%rbp)
    16cc:	83 45 d8 01          	addl   $0x1,-0x28(%rbp)
    16d0:	eb d2                	jmp    16a4 <main+0x2a2>
    16d2:	80 7d d7 00          	cmpb   $0x0,-0x29(%rbp)
    16d6:	74 19                	je     16f1 <main+0x2ef>
    16d8:	48 8d 95 6c ff ff ff 	lea    -0x94(%rbp),%rdx
    16df:	48 8d 85 70 ff ff ff 	lea    -0x90(%rbp),%rax
    16e6:	48 89 d6             	mov    %rdx,%rsi
    16e9:	48 89 c7             	mov    %rax,%rdi
    16ec:	e8 bf 02 00 00       	callq  19b0 <_ZNSt6vectorIiSaIiEE9push_backERKi>
    16f1:	8b 85 6c ff ff ff    	mov    -0x94(%rbp),%eax
    16f7:	83 c0 01             	add    $0x1,%eax
    16fa:	89 85 6c ff ff ff    	mov    %eax,-0x94(%rbp)
    1700:	e9 74 ff ff ff       	jmpq   1679 <main+0x277>
    1705:	48 8d 85 70 ff ff ff 	lea    -0x90(%rbp),%rax
    170c:	48 89 c7             	mov    %rax,%rdi
    170f:	e8 18 03 00 00       	callq  1a2c <_ZNKSt6vectorIiSaIiEE5emptyEv>
    1714:	83 f0 01             	xor    $0x1,%eax
    1717:	84 c0                	test   %al,%al
    1719:	0f 84 88 00 00 00    	je     17a7 <main+0x3a5>
    171f:	c7 45 dc 00 00 00 00 	movl   $0x0,-0x24(%rbp)
    1726:	c7 45 b8 00 00 00 00 	movl   $0x0,-0x48(%rbp)
    172d:	8b 45 b8             	mov    -0x48(%rbp),%eax
    1730:	48 63 d8             	movslq %eax,%rbx
    1733:	48 8d 85 70 ff ff ff 	lea    -0x90(%rbp),%rax
    173a:	48 89 c7             	mov    %rax,%rdi
    173d:	e8 2c 03 00 00       	callq  1a6e <_ZNKSt6vectorIiSaIiEE4sizeEv>
    1742:	48 39 c3             	cmp    %rax,%rbx
    1745:	0f 92 c0             	setb   %al
    1748:	84 c0                	test   %al,%al
    174a:	74 33                	je     177f <main+0x37d>
    174c:	8b 45 b8             	mov    -0x48(%rbp),%eax
    174f:	48 63 d0             	movslq %eax,%rdx
    1752:	48 8d 85 70 ff ff ff 	lea    -0x90(%rbp),%rax
    1759:	48 89 d6             	mov    %rdx,%rsi
    175c:	48 89 c7             	mov    %rax,%rdi
    175f:	e8 2e 03 00 00       	callq  1a92 <_ZNSt6vectorIiSaIiEEixEm>
    1764:	8b 00                	mov    (%rax),%eax
    1766:	99                   	cltd   
    1767:	f7 7d c4             	idivl  -0x3c(%rbp)
    176a:	89 d0                	mov    %edx,%eax
    176c:	85 c0                	test   %eax,%eax
    176e:	0f 94 c0             	sete   %al
    1771:	84 c0                	test   %al,%al
    1773:	74 04                	je     1779 <main+0x377>
    1775:	83 45 dc 01          	addl   $0x1,-0x24(%rbp)
    1779:	83 45 b8 01          	addl   $0x1,-0x48(%rbp)
    177d:	eb ae                	jmp    172d <main+0x32b>
    177f:	8b 45 dc             	mov    -0x24(%rbp),%eax
    1782:	89 c6                	mov    %eax,%esi
    1784:	48 8d 3d 35 49 00 00 	lea    0x4935(%rip),%rdi        # 60c0 <_ZSt4cout@@GLIBCXX_3.4>
    178b:	e8 90 f9 ff ff       	callq  1120 <_ZNSolsEi@plt>
    1790:	48 89 c2             	mov    %rax,%rdx
    1793:	48 8b 05 36 48 00 00 	mov    0x4836(%rip),%rax        # 5fd0 <_ZSt4endlIcSt11char_traitsIcEERSt13basic_ostreamIT_T0_ES6_@GLIBCXX_3.4>
    179a:	48 89 c6             	mov    %rax,%rsi
    179d:	48 89 d7             	mov    %rdx,%rdi
    17a0:	e8 1b f9 ff ff       	callq  10c0 <_ZNSolsEPFRSoS_E@plt>
    17a5:	eb 26                	jmp    17cd <main+0x3cb>
    17a7:	be 00 00 00 00       	mov    $0x0,%esi
    17ac:	48 8d 3d 0d 49 00 00 	lea    0x490d(%rip),%rdi        # 60c0 <_ZSt4cout@@GLIBCXX_3.4>
    17b3:	e8 68 f9 ff ff       	callq  1120 <_ZNSolsEi@plt>
    17b8:	48 89 c2             	mov    %rax,%rdx
    17bb:	48 8b 05 0e 48 00 00 	mov    0x480e(%rip),%rax        # 5fd0 <_ZSt4endlIcSt11char_traitsIcEERSt13basic_ostreamIT_T0_ES6_@GLIBCXX_3.4>
    17c2:	48 89 c6             	mov    %rax,%rsi
    17c5:	48 89 d7             	mov    %rdx,%rdi
    17c8:	e8 f3 f8 ff ff       	callq  10c0 <_ZNSolsEPFRSoS_E@plt>
    17cd:	48 8d 85 70 ff ff ff 	lea    -0x90(%rbp),%rax
    17d4:	48 89 c7             	mov    %rax,%rdi
    17d7:	e8 90 01 00 00       	callq  196c <_ZNSt6vectorIiSaIiEED1Ev>
    17dc:	4c 89 e4             	mov    %r12,%rsp
    17df:	e9 4b fc ff ff       	jmpq   142f <main+0x2d>
    17e4:	b8 00 00 00 00       	mov    $0x0,%eax
    17e9:	eb 1d                	jmp    1808 <main+0x406>
    17eb:	48 89 c3             	mov    %rax,%rbx
    17ee:	48 8d 85 70 ff ff ff 	lea    -0x90(%rbp),%rax
    17f5:	48 89 c7             	mov    %rax,%rdi
    17f8:	e8 6f 01 00 00       	callq  196c <_ZNSt6vectorIiSaIiEED1Ev>
    17fd:	48 89 d8             	mov    %rbx,%rax
    1800:	48 89 c7             	mov    %rax,%rdi
    1803:	e8 28 f9 ff ff       	callq  1130 <_Unwind_Resume@plt>
    1808:	48 8d 65 e0          	lea    -0x20(%rbp),%rsp
    180c:	5b                   	pop    %rbx
    180d:	41 5c                	pop    %r12
    180f:	41 5e                	pop    %r14
    1811:	41 5f                	pop    %r15
    1813:	5d                   	pop    %rbp
    1814:	c3                   	retq   

0000000000001815 <_Z41__static_initialization_and_destruction_0ii>:
    1815:	55                   	push   %rbp
    1816:	48 89 e5             	mov    %rsp,%rbp
    1819:	48 83 ec 10          	sub    $0x10,%rsp
    181d:	89 7d fc             	mov    %edi,-0x4(%rbp)
    1820:	89 75 f8             	mov    %esi,-0x8(%rbp)
    1823:	83 7d fc 01          	cmpl   $0x1,-0x4(%rbp)
    1827:	75 32                	jne    185b <_Z41__static_initialization_and_destruction_0ii+0x46>
    1829:	81 7d f8 ff ff 00 00 	cmpl   $0xffff,-0x8(%rbp)
    1830:	75 29                	jne    185b <_Z41__static_initialization_and_destruction_0ii+0x46>
    1832:	48 8d 3d c0 4a 00 00 	lea    0x4ac0(%rip),%rdi        # 62f9 <_ZStL8__ioinit>
    1839:	e8 b2 f8 ff ff       	callq  10f0 <_ZNSt8ios_base4InitC1Ev@plt>
    183e:	48 8d 15 63 48 00 00 	lea    0x4863(%rip),%rdx        # 60a8 <__dso_handle>
    1845:	48 8d 35 ad 4a 00 00 	lea    0x4aad(%rip),%rsi        # 62f9 <_ZStL8__ioinit>
    184c:	48 8b 05 a5 47 00 00 	mov    0x47a5(%rip),%rax        # 5ff8 <_ZNSt8ios_base4InitD1Ev@GLIBCXX_3.4>
    1853:	48 89 c7             	mov    %rax,%rdi
    1856:	e8 35 f8 ff ff       	callq  1090 <__cxa_atexit@plt>
    185b:	90                   	nop
    185c:	c9                   	leaveq 
    185d:	c3                   	retq   

000000000000185e <_GLOBAL__sub_I__Z7decSortxx>:
    185e:	55                   	push   %rbp
    185f:	48 89 e5             	mov    %rsp,%rbp
    1862:	be ff ff 00 00       	mov    $0xffff,%esi
    1867:	bf 01 00 00 00       	mov    $0x1,%edi
    186c:	e8 a4 ff ff ff       	callq  1815 <_Z41__static_initialization_and_destruction_0ii>
    1871:	5d                   	pop    %rbp
    1872:	c3                   	retq   

0000000000001873 <_ZnwmPv>:
    1873:	55                   	push   %rbp
    1874:	48 89 e5             	mov    %rsp,%rbp
    1877:	48 89 7d f8          	mov    %rdi,-0x8(%rbp)
    187b:	48 89 75 f0          	mov    %rsi,-0x10(%rbp)
    187f:	48 8b 45 f0          	mov    -0x10(%rbp),%rax
    1883:	5d                   	pop    %rbp
    1884:	c3                   	retq   
    1885:	90                   	nop

0000000000001886 <_ZNSt12_Vector_baseIiSaIiEE12_Vector_implD1Ev>:
    1886:	55                   	push   %rbp
    1887:	48 89 e5             	mov    %rsp,%rbp
    188a:	48 83 ec 10          	sub    $0x10,%rsp
    188e:	48 89 7d f8          	mov    %rdi,-0x8(%rbp)
    1892:	48 8b 45 f8          	mov    -0x8(%rbp),%rax
    1896:	48 89 c7             	mov    %rax,%rdi
    1899:	e8 64 00 00 00       	callq  1902 <_ZNSaIiED1Ev>
    189e:	90                   	nop
    189f:	c9                   	leaveq 
    18a0:	c3                   	retq   
    18a1:	90                   	nop

00000000000018a2 <_ZNSt12_Vector_baseIiSaIiEEC1Ev>:
    18a2:	55                   	push   %rbp
    18a3:	48 89 e5             	mov    %rsp,%rbp
    18a6:	48 83 ec 10          	sub    $0x10,%rsp
    18aa:	48 89 7d f8          	mov    %rdi,-0x8(%rbp)
    18ae:	48 8b 45 f8          	mov    -0x8(%rbp),%rax
    18b2:	48 89 c7             	mov    %rax,%rdi
    18b5:	e8 20 00 00 00       	callq  18da <_ZNSt12_Vector_baseIiSaIiEE12_Vector_implC1Ev>
    18ba:	90                   	nop
    18bb:	c9                   	leaveq 
    18bc:	c3                   	retq   
    18bd:	90                   	nop

00000000000018be <_ZNSt6vectorIiSaIiEEC1Ev>:
    18be:	55                   	push   %rbp
    18bf:	48 89 e5             	mov    %rsp,%rbp
    18c2:	48 83 ec 10          	sub    $0x10,%rsp
    18c6:	48 89 7d f8          	mov    %rdi,-0x8(%rbp)
    18ca:	48 8b 45 f8          	mov    -0x8(%rbp),%rax
    18ce:	48 89 c7             	mov    %rax,%rdi
    18d1:	e8 cc ff ff ff       	callq  18a2 <_ZNSt12_Vector_baseIiSaIiEEC1Ev>
    18d6:	90                   	nop
    18d7:	c9                   	leaveq 
    18d8:	c3                   	retq   
    18d9:	90                   	nop

00000000000018da <_ZNSt12_Vector_baseIiSaIiEE12_Vector_implC1Ev>:
    18da:	55                   	push   %rbp
    18db:	48 89 e5             	mov    %rsp,%rbp
    18de:	48 83 ec 10          	sub    $0x10,%rsp
    18e2:	48 89 7d f8          	mov    %rdi,-0x8(%rbp)
    18e6:	48 8b 45 f8          	mov    -0x8(%rbp),%rax
    18ea:	48 89 c7             	mov    %rax,%rdi
    18ed:	e8 c0 01 00 00       	callq  1ab2 <_ZNSaIiEC1Ev>
    18f2:	48 8b 45 f8          	mov    -0x8(%rbp),%rax
    18f6:	48 89 c7             	mov    %rax,%rdi
    18f9:	e8 d0 01 00 00       	callq  1ace <_ZNSt12_Vector_baseIiSaIiEE17_Vector_impl_dataC1Ev>
    18fe:	90                   	nop
    18ff:	c9                   	leaveq 
    1900:	c3                   	retq   
    1901:	90                   	nop

0000000000001902 <_ZNSaIiED1Ev>:
    1902:	55                   	push   %rbp
    1903:	48 89 e5             	mov    %rsp,%rbp
    1906:	48 83 ec 10          	sub    $0x10,%rsp
    190a:	48 89 7d f8          	mov    %rdi,-0x8(%rbp)
    190e:	48 8b 45 f8          	mov    -0x8(%rbp),%rax
    1912:	48 89 c7             	mov    %rax,%rdi
    1915:	e8 e2 01 00 00       	callq  1afc <_ZN9__gnu_cxx13new_allocatorIiED1Ev>
    191a:	90                   	nop
    191b:	c9                   	leaveq 
    191c:	c3                   	retq   
    191d:	90                   	nop

000000000000191e <_ZNSt12_Vector_baseIiSaIiEED1Ev>:
    191e:	55                   	push   %rbp
    191f:	48 89 e5             	mov    %rsp,%rbp
    1922:	48 83 ec 10          	sub    $0x10,%rsp
    1926:	48 89 7d f8          	mov    %rdi,-0x8(%rbp)
    192a:	48 8b 45 f8          	mov    -0x8(%rbp),%rax
    192e:	48 8b 50 10          	mov    0x10(%rax),%rdx
    1932:	48 8b 45 f8          	mov    -0x8(%rbp),%rax
    1936:	48 8b 00             	mov    (%rax),%rax
    1939:	48 29 c2             	sub    %rax,%rdx
    193c:	48 89 d0             	mov    %rdx,%rax
    193f:	48 c1 f8 02          	sar    $0x2,%rax
    1943:	48 89 c2             	mov    %rax,%rdx
    1946:	48 8b 45 f8          	mov    -0x8(%rbp),%rax
    194a:	48 8b 08             	mov    (%rax),%rcx
    194d:	48 8b 45 f8          	mov    -0x8(%rbp),%rax
    1951:	48 89 ce             	mov    %rcx,%rsi
    1954:	48 89 c7             	mov    %rax,%rdi
    1957:	e8 ac 01 00 00       	callq  1b08 <_ZNSt12_Vector_baseIiSaIiEE13_M_deallocateEPim>
    195c:	48 8b 45 f8          	mov    -0x8(%rbp),%rax
    1960:	48 89 c7             	mov    %rax,%rdi
    1963:	e8 1e ff ff ff       	callq  1886 <_ZNSt12_Vector_baseIiSaIiEE12_Vector_implD1Ev>
    1968:	90                   	nop
    1969:	c9                   	leaveq 
    196a:	c3                   	retq   
    196b:	90                   	nop

000000000000196c <_ZNSt6vectorIiSaIiEED1Ev>:
    196c:	55                   	push   %rbp
    196d:	48 89 e5             	mov    %rsp,%rbp
    1970:	48 83 ec 10          	sub    $0x10,%rsp
    1974:	48 89 7d f8          	mov    %rdi,-0x8(%rbp)
    1978:	48 8b 45 f8          	mov    -0x8(%rbp),%rax
    197c:	48 89 c7             	mov    %rax,%rdi
    197f:	e8 ba 01 00 00       	callq  1b3e <_ZNSt12_Vector_baseIiSaIiEE19_M_get_Tp_allocatorEv>
    1984:	48 89 c2             	mov    %rax,%rdx
    1987:	48 8b 45 f8          	mov    -0x8(%rbp),%rax
    198b:	48 8b 48 08          	mov    0x8(%rax),%rcx
    198f:	48 8b 45 f8          	mov    -0x8(%rbp),%rax
    1993:	48 8b 00             	mov    (%rax),%rax
    1996:	48 89 ce             	mov    %rcx,%rsi
    1999:	48 89 c7             	mov    %rax,%rdi
    199c:	e8 ab 01 00 00       	callq  1b4c <_ZSt8_DestroyIPiiEvT_S1_RSaIT0_E>
    19a1:	48 8b 45 f8          	mov    -0x8(%rbp),%rax
    19a5:	48 89 c7             	mov    %rax,%rdi
    19a8:	e8 71 ff ff ff       	callq  191e <_ZNSt12_Vector_baseIiSaIiEED1Ev>
    19ad:	90                   	nop
    19ae:	c9                   	leaveq 
    19af:	c3                   	retq   

00000000000019b0 <_ZNSt6vectorIiSaIiEE9push_backERKi>:
    19b0:	55                   	push   %rbp
    19b1:	48 89 e5             	mov    %rsp,%rbp
    19b4:	48 83 ec 10          	sub    $0x10,%rsp
    19b8:	48 89 7d f8          	mov    %rdi,-0x8(%rbp)
    19bc:	48 89 75 f0          	mov    %rsi,-0x10(%rbp)
    19c0:	48 8b 45 f8          	mov    -0x8(%rbp),%rax
    19c4:	48 8b 50 08          	mov    0x8(%rax),%rdx
    19c8:	48 8b 45 f8          	mov    -0x8(%rbp),%rax
    19cc:	48 8b 40 10          	mov    0x10(%rax),%rax
    19d0:	48 39 c2             	cmp    %rax,%rdx
    19d3:	74 31                	je     1a06 <_ZNSt6vectorIiSaIiEE9push_backERKi+0x56>
    19d5:	48 8b 45 f8          	mov    -0x8(%rbp),%rax
    19d9:	48 8b 48 08          	mov    0x8(%rax),%rcx
    19dd:	48 8b 45 f8          	mov    -0x8(%rbp),%rax
    19e1:	48 8b 55 f0          	mov    -0x10(%rbp),%rdx
    19e5:	48 89 ce             	mov    %rcx,%rsi
    19e8:	48 89 c7             	mov    %rax,%rdi
    19eb:	e8 86 01 00 00       	callq  1b76 <_ZNSt16allocator_traitsISaIiEE9constructIiJRKiEEEvRS0_PT_DpOT0_>
    19f0:	48 8b 45 f8          	mov    -0x8(%rbp),%rax
    19f4:	48 8b 40 08          	mov    0x8(%rax),%rax
    19f8:	48 8d 50 04          	lea    0x4(%rax),%rdx
    19fc:	48 8b 45 f8          	mov    -0x8(%rbp),%rax
    1a00:	48 89 50 08          	mov    %rdx,0x8(%rax)
    1a04:	eb 22                	jmp    1a28 <_ZNSt6vectorIiSaIiEE9push_backERKi+0x78>
    1a06:	48 8b 45 f8          	mov    -0x8(%rbp),%rax
    1a0a:	48 89 c7             	mov    %rax,%rdi
    1a0d:	e8 9e 01 00 00       	callq  1bb0 <_ZNSt6vectorIiSaIiEE3endEv>
    1a12:	48 89 c1             	mov    %rax,%rcx
    1a15:	48 8b 55 f0          	mov    -0x10(%rbp),%rdx
    1a19:	48 8b 45 f8          	mov    -0x8(%rbp),%rax
    1a1d:	48 89 ce             	mov    %rcx,%rsi
    1a20:	48 89 c7             	mov    %rax,%rdi
    1a23:	e8 cc 01 00 00       	callq  1bf4 <_ZNSt6vectorIiSaIiEE17_M_realloc_insertIJRKiEEEvN9__gnu_cxx17__normal_iteratorIPiS1_EEDpOT_>
    1a28:	90                   	nop
    1a29:	c9                   	leaveq 
    1a2a:	c3                   	retq   
    1a2b:	90                   	nop

0000000000001a2c <_ZNKSt6vectorIiSaIiEE5emptyEv>:
    1a2c:	55                   	push   %rbp
    1a2d:	48 89 e5             	mov    %rsp,%rbp
    1a30:	48 83 ec 20          	sub    $0x20,%rsp
    1a34:	48 89 7d e8          	mov    %rdi,-0x18(%rbp)
    1a38:	48 8b 45 e8          	mov    -0x18(%rbp),%rax
    1a3c:	48 89 c7             	mov    %rax,%rdi
    1a3f:	e8 a4 04 00 00       	callq  1ee8 <_ZNKSt6vectorIiSaIiEE3endEv>
    1a44:	48 89 45 f0          	mov    %rax,-0x10(%rbp)
    1a48:	48 8b 45 e8          	mov    -0x18(%rbp),%rax
    1a4c:	48 89 c7             	mov    %rax,%rdi
    1a4f:	e8 64 04 00 00       	callq  1eb8 <_ZNKSt6vectorIiSaIiEE5beginEv>
    1a54:	48 89 45 f8          	mov    %rax,-0x8(%rbp)
    1a58:	48 8d 55 f0          	lea    -0x10(%rbp),%rdx
    1a5c:	48 8d 45 f8          	lea    -0x8(%rbp),%rax
    1a60:	48 89 d6             	mov    %rdx,%rsi
    1a63:	48 89 c7             	mov    %rax,%rdi
    1a66:	e8 ae 04 00 00       	callq  1f19 <_ZN9__gnu_cxxeqIPKiSt6vectorIiSaIiEEEEbRKNS_17__normal_iteratorIT_T0_EESB_>
    1a6b:	c9                   	leaveq 
    1a6c:	c3                   	retq   
    1a6d:	90                   	nop

0000000000001a6e <_ZNKSt6vectorIiSaIiEE4sizeEv>:
    1a6e:	55                   	push   %rbp
    1a6f:	48 89 e5             	mov    %rsp,%rbp
    1a72:	48 89 7d f8          	mov    %rdi,-0x8(%rbp)
    1a76:	48 8b 45 f8          	mov    -0x8(%rbp),%rax
    1a7a:	48 8b 50 08          	mov    0x8(%rax),%rdx
    1a7e:	48 8b 45 f8          	mov    -0x8(%rbp),%rax
    1a82:	48 8b 00             	mov    (%rax),%rax
    1a85:	48 29 c2             	sub    %rax,%rdx
    1a88:	48 89 d0             	mov    %rdx,%rax
    1a8b:	48 c1 f8 02          	sar    $0x2,%rax
    1a8f:	5d                   	pop    %rbp
    1a90:	c3                   	retq   
    1a91:	90                   	nop

0000000000001a92 <_ZNSt6vectorIiSaIiEEixEm>:
    1a92:	55                   	push   %rbp
    1a93:	48 89 e5             	mov    %rsp,%rbp
    1a96:	48 89 7d f8          	mov    %rdi,-0x8(%rbp)
    1a9a:	48 89 75 f0          	mov    %rsi,-0x10(%rbp)
    1a9e:	48 8b 45 f8          	mov    -0x8(%rbp),%rax
    1aa2:	48 8b 00             	mov    (%rax),%rax
    1aa5:	48 8b 55 f0          	mov    -0x10(%rbp),%rdx
    1aa9:	48 c1 e2 02          	shl    $0x2,%rdx
    1aad:	48 01 d0             	add    %rdx,%rax
    1ab0:	5d                   	pop    %rbp
    1ab1:	c3                   	retq   

0000000000001ab2 <_ZNSaIiEC1Ev>:
    1ab2:	55                   	push   %rbp
    1ab3:	48 89 e5             	mov    %rsp,%rbp
    1ab6:	48 83 ec 10          	sub    $0x10,%rsp
    1aba:	48 89 7d f8          	mov    %rdi,-0x8(%rbp)
    1abe:	48 8b 45 f8          	mov    -0x8(%rbp),%rax
    1ac2:	48 89 c7             	mov    %rax,%rdi
    1ac5:	e8 8c 04 00 00       	callq  1f56 <_ZN9__gnu_cxx13new_allocatorIiEC1Ev>
    1aca:	90                   	nop
    1acb:	c9                   	leaveq 
    1acc:	c3                   	retq   
    1acd:	90                   	nop

0000000000001ace <_ZNSt12_Vector_baseIiSaIiEE17_Vector_impl_dataC1Ev>:
    1ace:	55                   	push   %rbp
    1acf:	48 89 e5             	mov    %rsp,%rbp
    1ad2:	48 89 7d f8          	mov    %rdi,-0x8(%rbp)
    1ad6:	48 8b 45 f8          	mov    -0x8(%rbp),%rax
    1ada:	48 c7 00 00 00 00 00 	movq   $0x0,(%rax)
    1ae1:	48 8b 45 f8          	mov    -0x8(%rbp),%rax
    1ae5:	48 c7 40 08 00 00 00 	movq   $0x0,0x8(%rax)
    1aec:	00 
    1aed:	48 8b 45 f8          	mov    -0x8(%rbp),%rax
    1af1:	48 c7 40 10 00 00 00 	movq   $0x0,0x10(%rax)
    1af8:	00 
    1af9:	90                   	nop
    1afa:	5d                   	pop    %rbp
    1afb:	c3                   	retq   

0000000000001afc <_ZN9__gnu_cxx13new_allocatorIiED1Ev>:
    1afc:	55                   	push   %rbp
    1afd:	48 89 e5             	mov    %rsp,%rbp
    1b00:	48 89 7d f8          	mov    %rdi,-0x8(%rbp)
    1b04:	90                   	nop
    1b05:	5d                   	pop    %rbp
    1b06:	c3                   	retq   
    1b07:	90                   	nop

0000000000001b08 <_ZNSt12_Vector_baseIiSaIiEE13_M_deallocateEPim>:
    1b08:	55                   	push   %rbp
    1b09:	48 89 e5             	mov    %rsp,%rbp
    1b0c:	48 83 ec 20          	sub    $0x20,%rsp
    1b10:	48 89 7d f8          	mov    %rdi,-0x8(%rbp)
    1b14:	48 89 75 f0          	mov    %rsi,-0x10(%rbp)
    1b18:	48 89 55 e8          	mov    %rdx,-0x18(%rbp)
    1b1c:	48 83 7d f0 00       	cmpq   $0x0,-0x10(%rbp)
    1b21:	74 17                	je     1b3a <_ZNSt12_Vector_baseIiSaIiEE13_M_deallocateEPim+0x32>
    1b23:	48 8b 45 f8          	mov    -0x8(%rbp),%rax
    1b27:	48 8b 55 e8          	mov    -0x18(%rbp),%rdx
    1b2b:	48 8b 4d f0          	mov    -0x10(%rbp),%rcx
    1b2f:	48 89 ce             	mov    %rcx,%rsi
    1b32:	48 89 c7             	mov    %rax,%rdi
    1b35:	e8 27 04 00 00       	callq  1f61 <_ZNSt16allocator_traitsISaIiEE10deallocateERS0_Pim>
    1b3a:	90                   	nop
    1b3b:	c9                   	leaveq 
    1b3c:	c3                   	retq   
    1b3d:	90                   	nop

0000000000001b3e <_ZNSt12_Vector_baseIiSaIiEE19_M_get_Tp_allocatorEv>:
    1b3e:	55                   	push   %rbp
    1b3f:	48 89 e5             	mov    %rsp,%rbp
    1b42:	48 89 7d f8          	mov    %rdi,-0x8(%rbp)
    1b46:	48 8b 45 f8          	mov    -0x8(%rbp),%rax
    1b4a:	5d                   	pop    %rbp
    1b4b:	c3                   	retq   

0000000000001b4c <_ZSt8_DestroyIPiiEvT_S1_RSaIT0_E>:
    1b4c:	55                   	push   %rbp
    1b4d:	48 89 e5             	mov    %rsp,%rbp
    1b50:	48 83 ec 20          	sub    $0x20,%rsp
    1b54:	48 89 7d f8          	mov    %rdi,-0x8(%rbp)
    1b58:	48 89 75 f0          	mov    %rsi,-0x10(%rbp)
    1b5c:	48 89 55 e8          	mov    %rdx,-0x18(%rbp)
    1b60:	48 8b 55 f0          	mov    -0x10(%rbp),%rdx
    1b64:	48 8b 45 f8          	mov    -0x8(%rbp),%rax
    1b68:	48 89 d6             	mov    %rdx,%rsi
    1b6b:	48 89 c7             	mov    %rax,%rdi
    1b6e:	e8 1c 04 00 00       	callq  1f8f <_ZSt8_DestroyIPiEvT_S1_>
    1b73:	90                   	nop
    1b74:	c9                   	leaveq 
    1b75:	c3                   	retq   

0000000000001b76 <_ZNSt16allocator_traitsISaIiEE9constructIiJRKiEEEvRS0_PT_DpOT0_>:
    1b76:	55                   	push   %rbp
    1b77:	48 89 e5             	mov    %rsp,%rbp
    1b7a:	48 83 ec 20          	sub    $0x20,%rsp
    1b7e:	48 89 7d f8          	mov    %rdi,-0x8(%rbp)
    1b82:	48 89 75 f0          	mov    %rsi,-0x10(%rbp)
    1b86:	48 89 55 e8          	mov    %rdx,-0x18(%rbp)
    1b8a:	48 8b 45 e8          	mov    -0x18(%rbp),%rax
    1b8e:	48 89 c7             	mov    %rax,%rdi
    1b91:	e8 1f 04 00 00       	callq  1fb5 <_ZSt7forwardIRKiEOT_RNSt16remove_referenceIS2_E4typeE>
    1b96:	48 89 c2             	mov    %rax,%rdx
    1b99:	48 8b 4d f0          	mov    -0x10(%rbp),%rcx
    1b9d:	48 8b 45 f8          	mov    -0x8(%rbp),%rax
    1ba1:	48 89 ce             	mov    %rcx,%rsi
    1ba4:	48 89 c7             	mov    %rax,%rdi
    1ba7:	e8 18 04 00 00       	callq  1fc4 <_ZN9__gnu_cxx13new_allocatorIiE9constructIiJRKiEEEvPT_DpOT0_>
    1bac:	90                   	nop
    1bad:	c9                   	leaveq 
    1bae:	c3                   	retq   
    1baf:	90                   	nop

0000000000001bb0 <_ZNSt6vectorIiSaIiEE3endEv>:
    1bb0:	55                   	push   %rbp
    1bb1:	48 89 e5             	mov    %rsp,%rbp
    1bb4:	48 83 ec 20          	sub    $0x20,%rsp
    1bb8:	48 89 7d e8          	mov    %rdi,-0x18(%rbp)
    1bbc:	48 8b 45 e8          	mov    -0x18(%rbp),%rax
    1bc0:	48 8d 50 08          	lea    0x8(%rax),%rdx
    1bc4:	48 8d 45 f8          	lea    -0x8(%rbp),%rax
    1bc8:	48 89 d6             	mov    %rdx,%rsi
    1bcb:	48 89 c7             	mov    %rax,%rdi
    1bce:	e8 2f 04 00 00       	callq  2002 <_ZN9__gnu_cxx17__normal_iteratorIPiSt6vectorIiSaIiEEEC1ERKS1_>
    1bd3:	48 8b 45 f8          	mov    -0x8(%rbp),%rax
    1bd7:	c9                   	leaveq 
    1bd8:	c3                   	retq   

0000000000001bd9 <_ZNSt6vectorIiSaIiEE15_S_use_relocateEv>:
    1bd9:	55                   	push   %rbp
    1bda:	48 89 e5             	mov    %rsp,%rbp
    1bdd:	48 83 ec 10          	sub    $0x10,%rsp
    1be1:	e8 02 00 00 00       	callq  1be8 <_ZNSt6vectorIiSaIiEE19_S_nothrow_relocateESt17integral_constantIbLb1EE>
    1be6:	c9                   	leaveq 
    1be7:	c3                   	retq   

0000000000001be8 <_ZNSt6vectorIiSaIiEE19_S_nothrow_relocateESt17integral_constantIbLb1EE>:
    1be8:	55                   	push   %rbp
    1be9:	48 89 e5             	mov    %rsp,%rbp
    1bec:	b8 01 00 00 00       	mov    $0x1,%eax
    1bf1:	5d                   	pop    %rbp
    1bf2:	c3                   	retq   
    1bf3:	90                   	nop

0000000000001bf4 <_ZNSt6vectorIiSaIiEE17_M_realloc_insertIJRKiEEEvN9__gnu_cxx17__normal_iteratorIPiS1_EEDpOT_>:
    1bf4:	55                   	push   %rbp
    1bf5:	48 89 e5             	mov    %rsp,%rbp
    1bf8:	53                   	push   %rbx
    1bf9:	48 83 ec 68          	sub    $0x68,%rsp
    1bfd:	48 89 7d a8          	mov    %rdi,-0x58(%rbp)
    1c01:	48 89 75 a0          	mov    %rsi,-0x60(%rbp)
    1c05:	48 89 55 98          	mov    %rdx,-0x68(%rbp)
    1c09:	48 8b 45 a8          	mov    -0x58(%rbp),%rax
    1c0d:	48 8d 15 f3 13 00 00 	lea    0x13f3(%rip),%rdx        # 3007 <_ZStL6ignore+0x1>
    1c14:	be 01 00 00 00       	mov    $0x1,%esi
    1c19:	48 89 c7             	mov    %rax,%rdi
    1c1c:	e8 ff 03 00 00       	callq  2020 <_ZNKSt6vectorIiSaIiEE12_M_check_lenEmPKc>
    1c21:	48 89 45 e0          	mov    %rax,-0x20(%rbp)
    1c25:	48 8b 45 a8          	mov    -0x58(%rbp),%rax
    1c29:	48 8b 00             	mov    (%rax),%rax
    1c2c:	48 89 45 d8          	mov    %rax,-0x28(%rbp)
    1c30:	48 8b 45 a8          	mov    -0x58(%rbp),%rax
    1c34:	48 8b 40 08          	mov    0x8(%rax),%rax
    1c38:	48 89 45 d0          	mov    %rax,-0x30(%rbp)
    1c3c:	48 8b 45 a8          	mov    -0x58(%rbp),%rax
    1c40:	48 89 c7             	mov    %rax,%rdi
    1c43:	e8 a2 04 00 00       	callq  20ea <_ZNSt6vectorIiSaIiEE5beginEv>
    1c48:	48 89 45 b8          	mov    %rax,-0x48(%rbp)
    1c4c:	48 8d 55 b8          	lea    -0x48(%rbp),%rdx
    1c50:	48 8d 45 a0          	lea    -0x60(%rbp),%rax
    1c54:	48 89 d6             	mov    %rdx,%rsi
    1c57:	48 89 c7             	mov    %rax,%rdi
    1c5a:	e8 b0 04 00 00       	callq  210f <_ZN9__gnu_cxxmiIPiSt6vectorIiSaIiEEEENS_17__normal_iteratorIT_T0_E15difference_typeERKS8_SB_>
    1c5f:	48 89 45 c8          	mov    %rax,-0x38(%rbp)
    1c63:	48 8b 45 a8          	mov    -0x58(%rbp),%rax
    1c67:	48 8b 55 e0          	mov    -0x20(%rbp),%rdx
    1c6b:	48 89 d6             	mov    %rdx,%rsi
    1c6e:	48 89 c7             	mov    %rax,%rdi
    1c71:	e8 da 04 00 00       	callq  2150 <_ZNSt12_Vector_baseIiSaIiEE11_M_allocateEm>
    1c76:	48 89 45 c0          	mov    %rax,-0x40(%rbp)
    1c7a:	48 8b 45 c0          	mov    -0x40(%rbp),%rax
    1c7e:	48 89 45 e8          	mov    %rax,-0x18(%rbp)
    1c82:	48 8b 45 98          	mov    -0x68(%rbp),%rax
    1c86:	48 89 c7             	mov    %rax,%rdi
    1c89:	e8 27 03 00 00       	callq  1fb5 <_ZSt7forwardIRKiEOT_RNSt16remove_referenceIS2_E4typeE>
    1c8e:	48 89 c2             	mov    %rax,%rdx
    1c91:	48 8b 45 c8          	mov    -0x38(%rbp),%rax
    1c95:	48 8d 0c 85 00 00 00 	lea    0x0(,%rax,4),%rcx
    1c9c:	00 
    1c9d:	48 8b 45 c0          	mov    -0x40(%rbp),%rax
    1ca1:	48 01 c1             	add    %rax,%rcx
    1ca4:	48 8b 45 a8          	mov    -0x58(%rbp),%rax
    1ca8:	48 89 ce             	mov    %rcx,%rsi
    1cab:	48 89 c7             	mov    %rax,%rdi
    1cae:	e8 c3 fe ff ff       	callq  1b76 <_ZNSt16allocator_traitsISaIiEE9constructIiJRKiEEEvRS0_PT_DpOT0_>
    1cb3:	48 c7 45 e8 00 00 00 	movq   $0x0,-0x18(%rbp)
    1cba:	00 
    1cbb:	e8 19 ff ff ff       	callq  1bd9 <_ZNSt6vectorIiSaIiEE15_S_use_relocateEv>
    1cc0:	84 c0                	test   %al,%al
    1cc2:	74 71                	je     1d35 <_ZNSt6vectorIiSaIiEE17_M_realloc_insertIJRKiEEEvN9__gnu_cxx17__normal_iteratorIPiS1_EEDpOT_+0x141>
    1cc4:	48 8b 45 a8          	mov    -0x58(%rbp),%rax
    1cc8:	48 89 c7             	mov    %rax,%rdi
    1ccb:	e8 6e fe ff ff       	callq  1b3e <_ZNSt12_Vector_baseIiSaIiEE19_M_get_Tp_allocatorEv>
    1cd0:	48 89 c3             	mov    %rax,%rbx
    1cd3:	48 8d 45 a0          	lea    -0x60(%rbp),%rax
    1cd7:	48 89 c7             	mov    %rax,%rdi
    1cda:	e8 d7 04 00 00       	callq  21b6 <_ZNK9__gnu_cxx17__normal_iteratorIPiSt6vectorIiSaIiEEE4baseEv>
    1cdf:	48 8b 30             	mov    (%rax),%rsi
    1ce2:	48 8b 55 c0          	mov    -0x40(%rbp),%rdx
    1ce6:	48 8b 45 d8          	mov    -0x28(%rbp),%rax
    1cea:	48 89 d9             	mov    %rbx,%rcx
    1ced:	48 89 c7             	mov    %rax,%rdi
    1cf0:	e8 8e 04 00 00       	callq  2183 <_ZNSt6vectorIiSaIiEE11_S_relocateEPiS2_S2_RS0_>
    1cf5:	48 89 45 e8          	mov    %rax,-0x18(%rbp)
    1cf9:	48 83 45 e8 04       	addq   $0x4,-0x18(%rbp)
    1cfe:	48 8b 45 a8          	mov    -0x58(%rbp),%rax
    1d02:	48 89 c7             	mov    %rax,%rdi
    1d05:	e8 34 fe ff ff       	callq  1b3e <_ZNSt12_Vector_baseIiSaIiEE19_M_get_Tp_allocatorEv>
    1d0a:	48 89 c3             	mov    %rax,%rbx
    1d0d:	48 8d 45 a0          	lea    -0x60(%rbp),%rax
    1d11:	48 89 c7             	mov    %rax,%rdi
    1d14:	e8 9d 04 00 00       	callq  21b6 <_ZNK9__gnu_cxx17__normal_iteratorIPiSt6vectorIiSaIiEEE4baseEv>
    1d19:	48 8b 00             	mov    (%rax),%rax
    1d1c:	48 8b 55 e8          	mov    -0x18(%rbp),%rdx
    1d20:	48 8b 75 d0          	mov    -0x30(%rbp),%rsi
    1d24:	48 89 d9             	mov    %rbx,%rcx
    1d27:	48 89 c7             	mov    %rax,%rdi
    1d2a:	e8 54 04 00 00       	callq  2183 <_ZNSt6vectorIiSaIiEE11_S_relocateEPiS2_S2_RS0_>
    1d2f:	48 89 45 e8          	mov    %rax,-0x18(%rbp)
    1d33:	eb 6f                	jmp    1da4 <_ZNSt6vectorIiSaIiEE17_M_realloc_insertIJRKiEEEvN9__gnu_cxx17__normal_iteratorIPiS1_EEDpOT_+0x1b0>
    1d35:	48 8b 45 a8          	mov    -0x58(%rbp),%rax
    1d39:	48 89 c7             	mov    %rax,%rdi
    1d3c:	e8 fd fd ff ff       	callq  1b3e <_ZNSt12_Vector_baseIiSaIiEE19_M_get_Tp_allocatorEv>
    1d41:	48 89 c3             	mov    %rax,%rbx
    1d44:	48 8d 45 a0          	lea    -0x60(%rbp),%rax
    1d48:	48 89 c7             	mov    %rax,%rdi
    1d4b:	e8 66 04 00 00       	callq  21b6 <_ZNK9__gnu_cxx17__normal_iteratorIPiSt6vectorIiSaIiEEE4baseEv>
    1d50:	48 8b 30             	mov    (%rax),%rsi
    1d53:	48 8b 55 c0          	mov    -0x40(%rbp),%rdx
    1d57:	48 8b 45 d8          	mov    -0x28(%rbp),%rax
    1d5b:	48 89 d9             	mov    %rbx,%rcx
    1d5e:	48 89 c7             	mov    %rax,%rdi
    1d61:	e8 5e 04 00 00       	callq  21c4 <_ZSt34__uninitialized_move_if_noexcept_aIPiS0_SaIiEET0_T_S3_S2_RT1_>
    1d66:	48 89 45 e8          	mov    %rax,-0x18(%rbp)
    1d6a:	48 83 45 e8 04       	addq   $0x4,-0x18(%rbp)
    1d6f:	48 8b 45 a8          	mov    -0x58(%rbp),%rax
    1d73:	48 89 c7             	mov    %rax,%rdi
    1d76:	e8 c3 fd ff ff       	callq  1b3e <_ZNSt12_Vector_baseIiSaIiEE19_M_get_Tp_allocatorEv>
    1d7b:	48 89 c3             	mov    %rax,%rbx
    1d7e:	48 8d 45 a0          	lea    -0x60(%rbp),%rax
    1d82:	48 89 c7             	mov    %rax,%rdi
    1d85:	e8 2c 04 00 00       	callq  21b6 <_ZNK9__gnu_cxx17__normal_iteratorIPiSt6vectorIiSaIiEEE4baseEv>
    1d8a:	48 8b 00             	mov    (%rax),%rax
    1d8d:	48 8b 55 e8          	mov    -0x18(%rbp),%rdx
    1d91:	48 8b 75 d0          	mov    -0x30(%rbp),%rsi
    1d95:	48 89 d9             	mov    %rbx,%rcx
    1d98:	48 89 c7             	mov    %rax,%rdi
    1d9b:	e8 24 04 00 00       	callq  21c4 <_ZSt34__uninitialized_move_if_noexcept_aIPiS0_SaIiEET0_T_S3_S2_RT1_>
    1da0:	48 89 45 e8          	mov    %rax,-0x18(%rbp)
    1da4:	e8 30 fe ff ff       	callq  1bd9 <_ZNSt6vectorIiSaIiEE15_S_use_relocateEv>
    1da9:	83 f0 01             	xor    $0x1,%eax
    1dac:	84 c0                	test   %al,%al
    1dae:	74 22                	je     1dd2 <_ZNSt6vectorIiSaIiEE17_M_realloc_insertIJRKiEEEvN9__gnu_cxx17__normal_iteratorIPiS1_EEDpOT_+0x1de>
    1db0:	48 8b 45 a8          	mov    -0x58(%rbp),%rax
    1db4:	48 89 c7             	mov    %rax,%rdi
    1db7:	e8 82 fd ff ff       	callq  1b3e <_ZNSt12_Vector_baseIiSaIiEE19_M_get_Tp_allocatorEv>
    1dbc:	48 89 c2             	mov    %rax,%rdx
    1dbf:	48 8b 4d d0          	mov    -0x30(%rbp),%rcx
    1dc3:	48 8b 45 d8          	mov    -0x28(%rbp),%rax
    1dc7:	48 89 ce             	mov    %rcx,%rsi
    1dca:	48 89 c7             	mov    %rax,%rdi
    1dcd:	e8 7a fd ff ff       	callq  1b4c <_ZSt8_DestroyIPiiEvT_S1_RSaIT0_E>
    1dd2:	48 8b 45 a8          	mov    -0x58(%rbp),%rax
    1dd6:	48 8b 55 a8          	mov    -0x58(%rbp),%rdx
    1dda:	48 8b 52 10          	mov    0x10(%rdx),%rdx
    1dde:	48 2b 55 d8          	sub    -0x28(%rbp),%rdx
    1de2:	48 c1 fa 02          	sar    $0x2,%rdx
    1de6:	48 8b 4d d8          	mov    -0x28(%rbp),%rcx
    1dea:	48 89 ce             	mov    %rcx,%rsi
    1ded:	48 89 c7             	mov    %rax,%rdi
    1df0:	e8 13 fd ff ff       	callq  1b08 <_ZNSt12_Vector_baseIiSaIiEE13_M_deallocateEPim>
    1df5:	48 8b 45 a8          	mov    -0x58(%rbp),%rax
    1df9:	48 8b 55 c0          	mov    -0x40(%rbp),%rdx
    1dfd:	48 89 10             	mov    %rdx,(%rax)
    1e00:	48 8b 45 a8          	mov    -0x58(%rbp),%rax
    1e04:	48 8b 55 e8          	mov    -0x18(%rbp),%rdx
    1e08:	48 89 50 08          	mov    %rdx,0x8(%rax)
    1e0c:	48 8b 45 e0          	mov    -0x20(%rbp),%rax
    1e10:	48 8d 14 85 00 00 00 	lea    0x0(,%rax,4),%rdx
    1e17:	00 
    1e18:	48 8b 45 c0          	mov    -0x40(%rbp),%rax
    1e1c:	48 01 c2             	add    %rax,%rdx
    1e1f:	48 8b 45 a8          	mov    -0x58(%rbp),%rax
    1e23:	48 89 50 10          	mov    %rdx,0x10(%rax)
    1e27:	e9 84 00 00 00       	jmpq   1eb0 <_ZNSt6vectorIiSaIiEE17_M_realloc_insertIJRKiEEEvN9__gnu_cxx17__normal_iteratorIPiS1_EEDpOT_+0x2bc>
    1e2c:	48 89 c7             	mov    %rax,%rdi
    1e2f:	e8 0c f2 ff ff       	callq  1040 <__cxa_begin_catch@plt>
    1e34:	48 83 7d e8 00       	cmpq   $0x0,-0x18(%rbp)
    1e39:	75 24                	jne    1e5f <_ZNSt6vectorIiSaIiEE17_M_realloc_insertIJRKiEEEvN9__gnu_cxx17__normal_iteratorIPiS1_EEDpOT_+0x26b>
    1e3b:	48 8b 45 c8          	mov    -0x38(%rbp),%rax
    1e3f:	48 8d 14 85 00 00 00 	lea    0x0(,%rax,4),%rdx
    1e46:	00 
    1e47:	48 8b 45 c0          	mov    -0x40(%rbp),%rax
    1e4b:	48 01 c2             	add    %rax,%rdx
    1e4e:	48 8b 45 a8          	mov    -0x58(%rbp),%rax
    1e52:	48 89 d6             	mov    %rdx,%rsi
    1e55:	48 89 c7             	mov    %rax,%rdi
    1e58:	e8 bb 03 00 00       	callq  2218 <_ZNSt16allocator_traitsISaIiEE7destroyIiEEvRS0_PT_>
    1e5d:	eb 22                	jmp    1e81 <_ZNSt6vectorIiSaIiEE17_M_realloc_insertIJRKiEEEvN9__gnu_cxx17__normal_iteratorIPiS1_EEDpOT_+0x28d>
    1e5f:	48 8b 45 a8          	mov    -0x58(%rbp),%rax
    1e63:	48 89 c7             	mov    %rax,%rdi
    1e66:	e8 d3 fc ff ff       	callq  1b3e <_ZNSt12_Vector_baseIiSaIiEE19_M_get_Tp_allocatorEv>
    1e6b:	48 89 c2             	mov    %rax,%rdx
    1e6e:	48 8b 4d e8          	mov    -0x18(%rbp),%rcx
    1e72:	48 8b 45 c0          	mov    -0x40(%rbp),%rax
    1e76:	48 89 ce             	mov    %rcx,%rsi
    1e79:	48 89 c7             	mov    %rax,%rdi
    1e7c:	e8 cb fc ff ff       	callq  1b4c <_ZSt8_DestroyIPiiEvT_S1_RSaIT0_E>
    1e81:	48 8b 45 a8          	mov    -0x58(%rbp),%rax
    1e85:	48 8b 55 e0          	mov    -0x20(%rbp),%rdx
    1e89:	48 8b 4d c0          	mov    -0x40(%rbp),%rcx
    1e8d:	48 89 ce             	mov    %rcx,%rsi
    1e90:	48 89 c7             	mov    %rax,%rdi
    1e93:	e8 70 fc ff ff       	callq  1b08 <_ZNSt12_Vector_baseIiSaIiEE13_M_deallocateEPim>
    1e98:	e8 43 f2 ff ff       	callq  10e0 <__cxa_rethrow@plt>
    1e9d:	48 89 c3             	mov    %rax,%rbx
    1ea0:	e8 6b f2 ff ff       	callq  1110 <__cxa_end_catch@plt>
    1ea5:	48 89 d8             	mov    %rbx,%rax
    1ea8:	48 89 c7             	mov    %rax,%rdi
    1eab:	e8 80 f2 ff ff       	callq  1130 <_Unwind_Resume@plt>
    1eb0:	48 83 c4 68          	add    $0x68,%rsp
    1eb4:	5b                   	pop    %rbx
    1eb5:	5d                   	pop    %rbp
    1eb6:	c3                   	retq   
    1eb7:	90                   	nop

0000000000001eb8 <_ZNKSt6vectorIiSaIiEE5beginEv>:
    1eb8:	55                   	push   %rbp
    1eb9:	48 89 e5             	mov    %rsp,%rbp
    1ebc:	48 83 ec 20          	sub    $0x20,%rsp
    1ec0:	48 89 7d e8          	mov    %rdi,-0x18(%rbp)
    1ec4:	48 8b 45 e8          	mov    -0x18(%rbp),%rax
    1ec8:	48 8b 00             	mov    (%rax),%rax
    1ecb:	48 89 45 f8          	mov    %rax,-0x8(%rbp)
    1ecf:	48 8d 55 f8          	lea    -0x8(%rbp),%rdx
    1ed3:	48 8d 45 f0          	lea    -0x10(%rbp),%rax
    1ed7:	48 89 d6             	mov    %rdx,%rsi
    1eda:	48 89 c7             	mov    %rax,%rdi
    1edd:	e8 5c 03 00 00       	callq  223e <_ZN9__gnu_cxx17__normal_iteratorIPKiSt6vectorIiSaIiEEEC1ERKS2_>
    1ee2:	48 8b 45 f0          	mov    -0x10(%rbp),%rax
    1ee6:	c9                   	leaveq 
    1ee7:	c3                   	retq   

0000000000001ee8 <_ZNKSt6vectorIiSaIiEE3endEv>:
    1ee8:	55                   	push   %rbp
    1ee9:	48 89 e5             	mov    %rsp,%rbp
    1eec:	48 83 ec 20          	sub    $0x20,%rsp
    1ef0:	48 89 7d e8          	mov    %rdi,-0x18(%rbp)
    1ef4:	48 8b 45 e8          	mov    -0x18(%rbp),%rax
    1ef8:	48 8b 40 08          	mov    0x8(%rax),%rax
    1efc:	48 89 45 f8          	mov    %rax,-0x8(%rbp)
    1f00:	48 8d 55 f8          	lea    -0x8(%rbp),%rdx
    1f04:	48 8d 45 f0          	lea    -0x10(%rbp),%rax
    1f08:	48 89 d6             	mov    %rdx,%rsi
    1f0b:	48 89 c7             	mov    %rax,%rdi
    1f0e:	e8 2b 03 00 00       	callq  223e <_ZN9__gnu_cxx17__normal_iteratorIPKiSt6vectorIiSaIiEEEC1ERKS2_>
    1f13:	48 8b 45 f0          	mov    -0x10(%rbp),%rax
    1f17:	c9                   	leaveq 
    1f18:	c3                   	retq   

0000000000001f19 <_ZN9__gnu_cxxeqIPKiSt6vectorIiSaIiEEEEbRKNS_17__normal_iteratorIT_T0_EESB_>:
    1f19:	55                   	push   %rbp
    1f1a:	48 89 e5             	mov    %rsp,%rbp
    1f1d:	53                   	push   %rbx
    1f1e:	48 83 ec 18          	sub    $0x18,%rsp
    1f22:	48 89 7d e8          	mov    %rdi,-0x18(%rbp)
    1f26:	48 89 75 e0          	mov    %rsi,-0x20(%rbp)
    1f2a:	48 8b 45 e8          	mov    -0x18(%rbp),%rax
    1f2e:	48 89 c7             	mov    %rax,%rdi
    1f31:	e8 26 03 00 00       	callq  225c <_ZNK9__gnu_cxx17__normal_iteratorIPKiSt6vectorIiSaIiEEE4baseEv>
    1f36:	48 8b 18             	mov    (%rax),%rbx
    1f39:	48 8b 45 e0          	mov    -0x20(%rbp),%rax
    1f3d:	48 89 c7             	mov    %rax,%rdi
    1f40:	e8 17 03 00 00       	callq  225c <_ZNK9__gnu_cxx17__normal_iteratorIPKiSt6vectorIiSaIiEEE4baseEv>
    1f45:	48 8b 00             	mov    (%rax),%rax
    1f48:	48 39 c3             	cmp    %rax,%rbx
    1f4b:	0f 94 c0             	sete   %al
    1f4e:	48 83 c4 18          	add    $0x18,%rsp
    1f52:	5b                   	pop    %rbx
    1f53:	5d                   	pop    %rbp
    1f54:	c3                   	retq   
    1f55:	90                   	nop

0000000000001f56 <_ZN9__gnu_cxx13new_allocatorIiEC1Ev>:
    1f56:	55                   	push   %rbp
    1f57:	48 89 e5             	mov    %rsp,%rbp
    1f5a:	48 89 7d f8          	mov    %rdi,-0x8(%rbp)
    1f5e:	90                   	nop
    1f5f:	5d                   	pop    %rbp
    1f60:	c3                   	retq   

0000000000001f61 <_ZNSt16allocator_traitsISaIiEE10deallocateERS0_Pim>:
    1f61:	55                   	push   %rbp
    1f62:	48 89 e5             	mov    %rsp,%rbp
    1f65:	48 83 ec 20          	sub    $0x20,%rsp
    1f69:	48 89 7d f8          	mov    %rdi,-0x8(%rbp)
    1f6d:	48 89 75 f0          	mov    %rsi,-0x10(%rbp)
    1f71:	48 89 55 e8          	mov    %rdx,-0x18(%rbp)
    1f75:	48 8b 55 e8          	mov    -0x18(%rbp),%rdx
    1f79:	48 8b 4d f0          	mov    -0x10(%rbp),%rcx
    1f7d:	48 8b 45 f8          	mov    -0x8(%rbp),%rax
    1f81:	48 89 ce             	mov    %rcx,%rsi
    1f84:	48 89 c7             	mov    %rax,%rdi
    1f87:	e8 de 02 00 00       	callq  226a <_ZN9__gnu_cxx13new_allocatorIiE10deallocateEPim>
    1f8c:	90                   	nop
    1f8d:	c9                   	leaveq 
    1f8e:	c3                   	retq   

0000000000001f8f <_ZSt8_DestroyIPiEvT_S1_>:
    1f8f:	55                   	push   %rbp
    1f90:	48 89 e5             	mov    %rsp,%rbp
    1f93:	48 83 ec 10          	sub    $0x10,%rsp
    1f97:	48 89 7d f8          	mov    %rdi,-0x8(%rbp)
    1f9b:	48 89 75 f0          	mov    %rsi,-0x10(%rbp)
    1f9f:	48 8b 55 f0          	mov    -0x10(%rbp),%rdx
    1fa3:	48 8b 45 f8          	mov    -0x8(%rbp),%rax
    1fa7:	48 89 d6             	mov    %rdx,%rsi
    1faa:	48 89 c7             	mov    %rax,%rdi
    1fad:	e8 db 02 00 00       	callq  228d <_ZNSt12_Destroy_auxILb1EE9__destroyIPiEEvT_S3_>
    1fb2:	90                   	nop
    1fb3:	c9                   	leaveq 
    1fb4:	c3                   	retq   

0000000000001fb5 <_ZSt7forwardIRKiEOT_RNSt16remove_referenceIS2_E4typeE>:
    1fb5:	55                   	push   %rbp
    1fb6:	48 89 e5             	mov    %rsp,%rbp
    1fb9:	48 89 7d f8          	mov    %rdi,-0x8(%rbp)
    1fbd:	48 8b 45 f8          	mov    -0x8(%rbp),%rax
    1fc1:	5d                   	pop    %rbp
    1fc2:	c3                   	retq   
    1fc3:	90                   	nop

0000000000001fc4 <_ZN9__gnu_cxx13new_allocatorIiE9constructIiJRKiEEEvPT_DpOT0_>:
    1fc4:	55                   	push   %rbp
    1fc5:	48 89 e5             	mov    %rsp,%rbp
    1fc8:	53                   	push   %rbx
    1fc9:	48 83 ec 28          	sub    $0x28,%rsp
    1fcd:	48 89 7d e8          	mov    %rdi,-0x18(%rbp)
    1fd1:	48 89 75 e0          	mov    %rsi,-0x20(%rbp)
    1fd5:	48 89 55 d8          	mov    %rdx,-0x28(%rbp)
    1fd9:	48 8b 45 d8          	mov    -0x28(%rbp),%rax
    1fdd:	48 89 c7             	mov    %rax,%rdi
    1fe0:	e8 d0 ff ff ff       	callq  1fb5 <_ZSt7forwardIRKiEOT_RNSt16remove_referenceIS2_E4typeE>
    1fe5:	8b 18                	mov    (%rax),%ebx
    1fe7:	48 8b 45 e0          	mov    -0x20(%rbp),%rax
    1feb:	48 89 c6             	mov    %rax,%rsi
    1fee:	bf 04 00 00 00       	mov    $0x4,%edi
    1ff3:	e8 7b f8 ff ff       	callq  1873 <_ZnwmPv>
    1ff8:	89 18                	mov    %ebx,(%rax)
    1ffa:	90                   	nop
    1ffb:	48 83 c4 28          	add    $0x28,%rsp
    1fff:	5b                   	pop    %rbx
    2000:	5d                   	pop    %rbp
    2001:	c3                   	retq   

0000000000002002 <_ZN9__gnu_cxx17__normal_iteratorIPiSt6vectorIiSaIiEEEC1ERKS1_>:
    2002:	55                   	push   %rbp
    2003:	48 89 e5             	mov    %rsp,%rbp
    2006:	48 89 7d f8          	mov    %rdi,-0x8(%rbp)
    200a:	48 89 75 f0          	mov    %rsi,-0x10(%rbp)
    200e:	48 8b 45 f0          	mov    -0x10(%rbp),%rax
    2012:	48 8b 10             	mov    (%rax),%rdx
    2015:	48 8b 45 f8          	mov    -0x8(%rbp),%rax
    2019:	48 89 10             	mov    %rdx,(%rax)
    201c:	90                   	nop
    201d:	5d                   	pop    %rbp
    201e:	c3                   	retq   
    201f:	90                   	nop

0000000000002020 <_ZNKSt6vectorIiSaIiEE12_M_check_lenEmPKc>:
    2020:	55                   	push   %rbp
    2021:	48 89 e5             	mov    %rsp,%rbp
    2024:	53                   	push   %rbx
    2025:	48 83 ec 38          	sub    $0x38,%rsp
    2029:	48 89 7d d8          	mov    %rdi,-0x28(%rbp)
    202d:	48 89 75 d0          	mov    %rsi,-0x30(%rbp)
    2031:	48 89 55 c8          	mov    %rdx,-0x38(%rbp)
    2035:	48 8b 45 d8          	mov    -0x28(%rbp),%rax
    2039:	48 89 c7             	mov    %rax,%rdi
    203c:	e8 5b 02 00 00       	callq  229c <_ZNKSt6vectorIiSaIiEE8max_sizeEv>
    2041:	48 89 c3             	mov    %rax,%rbx
    2044:	48 8b 45 d8          	mov    -0x28(%rbp),%rax
    2048:	48 89 c7             	mov    %rax,%rdi
    204b:	e8 1e fa ff ff       	callq  1a6e <_ZNKSt6vectorIiSaIiEE4sizeEv>
    2050:	48 29 c3             	sub    %rax,%rbx
    2053:	48 89 da             	mov    %rbx,%rdx
    2056:	48 8b 45 d0          	mov    -0x30(%rbp),%rax
    205a:	48 39 c2             	cmp    %rax,%rdx
    205d:	0f 92 c0             	setb   %al
    2060:	84 c0                	test   %al,%al
    2062:	74 0c                	je     2070 <_ZNKSt6vectorIiSaIiEE12_M_check_lenEmPKc+0x50>
    2064:	48 8b 45 c8          	mov    -0x38(%rbp),%rax
    2068:	48 89 c7             	mov    %rax,%rdi
    206b:	e8 f0 ef ff ff       	callq  1060 <_ZSt20__throw_length_errorPKc@plt>
    2070:	48 8b 45 d8          	mov    -0x28(%rbp),%rax
    2074:	48 89 c7             	mov    %rax,%rdi
    2077:	e8 f2 f9 ff ff       	callq  1a6e <_ZNKSt6vectorIiSaIiEE4sizeEv>
    207c:	48 89 c3             	mov    %rax,%rbx
    207f:	48 8b 45 d8          	mov    -0x28(%rbp),%rax
    2083:	48 89 c7             	mov    %rax,%rdi
    2086:	e8 e3 f9 ff ff       	callq  1a6e <_ZNKSt6vectorIiSaIiEE4sizeEv>
    208b:	48 89 45 e0          	mov    %rax,-0x20(%rbp)
    208f:	48 8d 55 d0          	lea    -0x30(%rbp),%rdx
    2093:	48 8d 45 e0          	lea    -0x20(%rbp),%rax
    2097:	48 89 d6             	mov    %rdx,%rsi
    209a:	48 89 c7             	mov    %rax,%rdi
    209d:	e8 1c 02 00 00       	callq  22be <_ZSt3maxImERKT_S2_S2_>
    20a2:	48 8b 00             	mov    (%rax),%rax
    20a5:	48 01 d8             	add    %rbx,%rax
    20a8:	48 89 45 e8          	mov    %rax,-0x18(%rbp)
    20ac:	48 8b 45 d8          	mov    -0x28(%rbp),%rax
    20b0:	48 89 c7             	mov    %rax,%rdi
    20b3:	e8 b6 f9 ff ff       	callq  1a6e <_ZNKSt6vectorIiSaIiEE4sizeEv>
    20b8:	48 39 45 e8          	cmp    %rax,-0x18(%rbp)
    20bc:	72 12                	jb     20d0 <_ZNKSt6vectorIiSaIiEE12_M_check_lenEmPKc+0xb0>
    20be:	48 8b 45 d8          	mov    -0x28(%rbp),%rax
    20c2:	48 89 c7             	mov    %rax,%rdi
    20c5:	e8 d2 01 00 00       	callq  229c <_ZNKSt6vectorIiSaIiEE8max_sizeEv>
    20ca:	48 39 45 e8          	cmp    %rax,-0x18(%rbp)
    20ce:	76 0e                	jbe    20de <_ZNKSt6vectorIiSaIiEE12_M_check_lenEmPKc+0xbe>
    20d0:	48 8b 45 d8          	mov    -0x28(%rbp),%rax
    20d4:	48 89 c7             	mov    %rax,%rdi
    20d7:	e8 c0 01 00 00       	callq  229c <_ZNKSt6vectorIiSaIiEE8max_sizeEv>
    20dc:	eb 04                	jmp    20e2 <_ZNKSt6vectorIiSaIiEE12_M_check_lenEmPKc+0xc2>
    20de:	48 8b 45 e8          	mov    -0x18(%rbp),%rax
    20e2:	48 83 c4 38          	add    $0x38,%rsp
    20e6:	5b                   	pop    %rbx
    20e7:	5d                   	pop    %rbp
    20e8:	c3                   	retq   
    20e9:	90                   	nop

00000000000020ea <_ZNSt6vectorIiSaIiEE5beginEv>:
    20ea:	55                   	push   %rbp
    20eb:	48 89 e5             	mov    %rsp,%rbp
    20ee:	48 83 ec 20          	sub    $0x20,%rsp
    20f2:	48 89 7d e8          	mov    %rdi,-0x18(%rbp)
    20f6:	48 8b 55 e8          	mov    -0x18(%rbp),%rdx
    20fa:	48 8d 45 f8          	lea    -0x8(%rbp),%rax
    20fe:	48 89 d6             	mov    %rdx,%rsi
    2101:	48 89 c7             	mov    %rax,%rdi
    2104:	e8 f9 fe ff ff       	callq  2002 <_ZN9__gnu_cxx17__normal_iteratorIPiSt6vectorIiSaIiEEEC1ERKS1_>
    2109:	48 8b 45 f8          	mov    -0x8(%rbp),%rax
    210d:	c9                   	leaveq 
    210e:	c3                   	retq   

000000000000210f <_ZN9__gnu_cxxmiIPiSt6vectorIiSaIiEEEENS_17__normal_iteratorIT_T0_E15difference_typeERKS8_SB_>:
    210f:	55                   	push   %rbp
    2110:	48 89 e5             	mov    %rsp,%rbp
    2113:	53                   	push   %rbx
    2114:	48 83 ec 18          	sub    $0x18,%rsp
    2118:	48 89 7d e8          	mov    %rdi,-0x18(%rbp)
    211c:	48 89 75 e0          	mov    %rsi,-0x20(%rbp)
    2120:	48 8b 45 e8          	mov    -0x18(%rbp),%rax
    2124:	48 89 c7             	mov    %rax,%rdi
    2127:	e8 8a 00 00 00       	callq  21b6 <_ZNK9__gnu_cxx17__normal_iteratorIPiSt6vectorIiSaIiEEE4baseEv>
    212c:	48 8b 18             	mov    (%rax),%rbx
    212f:	48 8b 45 e0          	mov    -0x20(%rbp),%rax
    2133:	48 89 c7             	mov    %rax,%rdi
    2136:	e8 7b 00 00 00       	callq  21b6 <_ZNK9__gnu_cxx17__normal_iteratorIPiSt6vectorIiSaIiEEE4baseEv>
    213b:	48 8b 00             	mov    (%rax),%rax
    213e:	48 29 c3             	sub    %rax,%rbx
    2141:	48 89 d8             	mov    %rbx,%rax
    2144:	48 c1 f8 02          	sar    $0x2,%rax
    2148:	48 83 c4 18          	add    $0x18,%rsp
    214c:	5b                   	pop    %rbx
    214d:	5d                   	pop    %rbp
    214e:	c3                   	retq   
    214f:	90                   	nop

0000000000002150 <_ZNSt12_Vector_baseIiSaIiEE11_M_allocateEm>:
    2150:	55                   	push   %rbp
    2151:	48 89 e5             	mov    %rsp,%rbp
    2154:	48 83 ec 10          	sub    $0x10,%rsp
    2158:	48 89 7d f8          	mov    %rdi,-0x8(%rbp)
    215c:	48 89 75 f0          	mov    %rsi,-0x10(%rbp)
    2160:	48 83 7d f0 00       	cmpq   $0x0,-0x10(%rbp)
    2165:	74 15                	je     217c <_ZNSt12_Vector_baseIiSaIiEE11_M_allocateEm+0x2c>
    2167:	48 8b 45 f8          	mov    -0x8(%rbp),%rax
    216b:	48 8b 55 f0          	mov    -0x10(%rbp),%rdx
    216f:	48 89 d6             	mov    %rdx,%rsi
    2172:	48 89 c7             	mov    %rax,%rdi
    2175:	e8 6f 01 00 00       	callq  22e9 <_ZNSt16allocator_traitsISaIiEE8allocateERS0_m>
    217a:	eb 05                	jmp    2181 <_ZNSt12_Vector_baseIiSaIiEE11_M_allocateEm+0x31>
    217c:	b8 00 00 00 00       	mov    $0x0,%eax
    2181:	c9                   	leaveq 
    2182:	c3                   	retq   

0000000000002183 <_ZNSt6vectorIiSaIiEE11_S_relocateEPiS2_S2_RS0_>:
    2183:	55                   	push   %rbp
    2184:	48 89 e5             	mov    %rsp,%rbp
    2187:	48 83 ec 30          	sub    $0x30,%rsp
    218b:	48 89 7d e8          	mov    %rdi,-0x18(%rbp)
    218f:	48 89 75 e0          	mov    %rsi,-0x20(%rbp)
    2193:	48 89 55 d8          	mov    %rdx,-0x28(%rbp)
    2197:	48 89 4d d0          	mov    %rcx,-0x30(%rbp)
    219b:	48 8b 4d d0          	mov    -0x30(%rbp),%rcx
    219f:	48 8b 55 d8          	mov    -0x28(%rbp),%rdx
    21a3:	48 8b 75 e0          	mov    -0x20(%rbp),%rsi
    21a7:	48 8b 45 e8          	mov    -0x18(%rbp),%rax
    21ab:	48 89 c7             	mov    %rax,%rdi
    21ae:	e8 60 01 00 00       	callq  2313 <_ZNSt6vectorIiSaIiEE14_S_do_relocateEPiS2_S2_RS0_St17integral_constantIbLb1EE>
    21b3:	c9                   	leaveq 
    21b4:	c3                   	retq   
    21b5:	90                   	nop

00000000000021b6 <_ZNK9__gnu_cxx17__normal_iteratorIPiSt6vectorIiSaIiEEE4baseEv>:
    21b6:	55                   	push   %rbp
    21b7:	48 89 e5             	mov    %rsp,%rbp
    21ba:	48 89 7d f8          	mov    %rdi,-0x8(%rbp)
    21be:	48 8b 45 f8          	mov    -0x8(%rbp),%rax
    21c2:	5d                   	pop    %rbp
    21c3:	c3                   	retq   

00000000000021c4 <_ZSt34__uninitialized_move_if_noexcept_aIPiS0_SaIiEET0_T_S3_S2_RT1_>:
    21c4:	55                   	push   %rbp
    21c5:	48 89 e5             	mov    %rsp,%rbp
    21c8:	53                   	push   %rbx
    21c9:	48 83 ec 28          	sub    $0x28,%rsp
    21cd:	48 89 7d e8          	mov    %rdi,-0x18(%rbp)
    21d1:	48 89 75 e0          	mov    %rsi,-0x20(%rbp)
    21d5:	48 89 55 d8          	mov    %rdx,-0x28(%rbp)
    21d9:	48 89 4d d0          	mov    %rcx,-0x30(%rbp)
    21dd:	48 8b 45 e0          	mov    -0x20(%rbp),%rax
    21e1:	48 89 c7             	mov    %rax,%rdi
    21e4:	e8 5c 01 00 00       	callq  2345 <_ZSt32__make_move_if_noexcept_iteratorIiSt13move_iteratorIPiEET0_PT_>
    21e9:	48 89 c3             	mov    %rax,%rbx
    21ec:	48 8b 45 e8          	mov    -0x18(%rbp),%rax
    21f0:	48 89 c7             	mov    %rax,%rdi
    21f3:	e8 4d 01 00 00       	callq  2345 <_ZSt32__make_move_if_noexcept_iteratorIiSt13move_iteratorIPiEET0_PT_>
    21f8:	48 89 c7             	mov    %rax,%rdi
    21fb:	48 8b 55 d0          	mov    -0x30(%rbp),%rdx
    21ff:	48 8b 45 d8          	mov    -0x28(%rbp),%rax
    2203:	48 89 d1             	mov    %rdx,%rcx
    2206:	48 89 c2             	mov    %rax,%rdx
    2209:	48 89 de             	mov    %rbx,%rsi
    220c:	e8 59 01 00 00       	callq  236a <_ZSt22__uninitialized_copy_aISt13move_iteratorIPiES1_iET0_T_S4_S3_RSaIT1_E>
    2211:	48 83 c4 28          	add    $0x28,%rsp
    2215:	5b                   	pop    %rbx
    2216:	5d                   	pop    %rbp
    2217:	c3                   	retq   

0000000000002218 <_ZNSt16allocator_traitsISaIiEE7destroyIiEEvRS0_PT_>:
    2218:	55                   	push   %rbp
    2219:	48 89 e5             	mov    %rsp,%rbp
    221c:	48 83 ec 10          	sub    $0x10,%rsp
    2220:	48 89 7d f8          	mov    %rdi,-0x8(%rbp)
    2224:	48 89 75 f0          	mov    %rsi,-0x10(%rbp)
    2228:	48 8b 55 f0          	mov    -0x10(%rbp),%rdx
    222c:	48 8b 45 f8          	mov    -0x8(%rbp),%rax
    2230:	48 89 d6             	mov    %rdx,%rsi
    2233:	48 89 c7             	mov    %rax,%rdi
    2236:	e8 61 01 00 00       	callq  239c <_ZN9__gnu_cxx13new_allocatorIiE7destroyIiEEvPT_>
    223b:	90                   	nop
    223c:	c9                   	leaveq 
    223d:	c3                   	retq   

000000000000223e <_ZN9__gnu_cxx17__normal_iteratorIPKiSt6vectorIiSaIiEEEC1ERKS2_>:
    223e:	55                   	push   %rbp
    223f:	48 89 e5             	mov    %rsp,%rbp
    2242:	48 89 7d f8          	mov    %rdi,-0x8(%rbp)
    2246:	48 89 75 f0          	mov    %rsi,-0x10(%rbp)
    224a:	48 8b 45 f0          	mov    -0x10(%rbp),%rax
    224e:	48 8b 10             	mov    (%rax),%rdx
    2251:	48 8b 45 f8          	mov    -0x8(%rbp),%rax
    2255:	48 89 10             	mov    %rdx,(%rax)
    2258:	90                   	nop
    2259:	5d                   	pop    %rbp
    225a:	c3                   	retq   
    225b:	90                   	nop

000000000000225c <_ZNK9__gnu_cxx17__normal_iteratorIPKiSt6vectorIiSaIiEEE4baseEv>:
    225c:	55                   	push   %rbp
    225d:	48 89 e5             	mov    %rsp,%rbp
    2260:	48 89 7d f8          	mov    %rdi,-0x8(%rbp)
    2264:	48 8b 45 f8          	mov    -0x8(%rbp),%rax
    2268:	5d                   	pop    %rbp
    2269:	c3                   	retq   

000000000000226a <_ZN9__gnu_cxx13new_allocatorIiE10deallocateEPim>:
    226a:	55                   	push   %rbp
    226b:	48 89 e5             	mov    %rsp,%rbp
    226e:	48 83 ec 20          	sub    $0x20,%rsp
    2272:	48 89 7d f8          	mov    %rdi,-0x8(%rbp)
    2276:	48 89 75 f0          	mov    %rsi,-0x10(%rbp)
    227a:	48 89 55 e8          	mov    %rdx,-0x18(%rbp)
    227e:	48 8b 45 f0          	mov    -0x10(%rbp),%rax
    2282:	48 89 c7             	mov    %rax,%rdi
    2285:	e8 16 ee ff ff       	callq  10a0 <_ZdlPv@plt>
    228a:	90                   	nop
    228b:	c9                   	leaveq 
    228c:	c3                   	retq   

000000000000228d <_ZNSt12_Destroy_auxILb1EE9__destroyIPiEEvT_S3_>:
    228d:	55                   	push   %rbp
    228e:	48 89 e5             	mov    %rsp,%rbp
    2291:	48 89 7d f8          	mov    %rdi,-0x8(%rbp)
    2295:	48 89 75 f0          	mov    %rsi,-0x10(%rbp)
    2299:	90                   	nop
    229a:	5d                   	pop    %rbp
    229b:	c3                   	retq   

000000000000229c <_ZNKSt6vectorIiSaIiEE8max_sizeEv>:
    229c:	55                   	push   %rbp
    229d:	48 89 e5             	mov    %rsp,%rbp
    22a0:	48 83 ec 10          	sub    $0x10,%rsp
    22a4:	48 89 7d f8          	mov    %rdi,-0x8(%rbp)
    22a8:	48 8b 45 f8          	mov    -0x8(%rbp),%rax
    22ac:	48 89 c7             	mov    %rax,%rdi
    22af:	e8 3a 01 00 00       	callq  23ee <_ZNKSt12_Vector_baseIiSaIiEE19_M_get_Tp_allocatorEv>
    22b4:	48 89 c7             	mov    %rax,%rdi
    22b7:	e8 ef 00 00 00       	callq  23ab <_ZNSt6vectorIiSaIiEE11_S_max_sizeERKS0_>
    22bc:	c9                   	leaveq 
    22bd:	c3                   	retq   

00000000000022be <_ZSt3maxImERKT_S2_S2_>:
    22be:	55                   	push   %rbp
    22bf:	48 89 e5             	mov    %rsp,%rbp
    22c2:	48 89 7d f8          	mov    %rdi,-0x8(%rbp)
    22c6:	48 89 75 f0          	mov    %rsi,-0x10(%rbp)
    22ca:	48 8b 45 f8          	mov    -0x8(%rbp),%rax
    22ce:	48 8b 10             	mov    (%rax),%rdx
    22d1:	48 8b 45 f0          	mov    -0x10(%rbp),%rax
    22d5:	48 8b 00             	mov    (%rax),%rax
    22d8:	48 39 c2             	cmp    %rax,%rdx
    22db:	73 06                	jae    22e3 <_ZSt3maxImERKT_S2_S2_+0x25>
    22dd:	48 8b 45 f0          	mov    -0x10(%rbp),%rax
    22e1:	eb 04                	jmp    22e7 <_ZSt3maxImERKT_S2_S2_+0x29>
    22e3:	48 8b 45 f8          	mov    -0x8(%rbp),%rax
    22e7:	5d                   	pop    %rbp
    22e8:	c3                   	retq   

00000000000022e9 <_ZNSt16allocator_traitsISaIiEE8allocateERS0_m>:
    22e9:	55                   	push   %rbp
    22ea:	48 89 e5             	mov    %rsp,%rbp
    22ed:	48 83 ec 10          	sub    $0x10,%rsp
    22f1:	48 89 7d f8          	mov    %rdi,-0x8(%rbp)
    22f5:	48 89 75 f0          	mov    %rsi,-0x10(%rbp)
    22f9:	48 8b 4d f0          	mov    -0x10(%rbp),%rcx
    22fd:	48 8b 45 f8          	mov    -0x8(%rbp),%rax
    2301:	ba 00 00 00 00       	mov    $0x0,%edx
    2306:	48 89 ce             	mov    %rcx,%rsi
    2309:	48 89 c7             	mov    %rax,%rdi
    230c:	e8 eb 00 00 00       	callq  23fc <_ZN9__gnu_cxx13new_allocatorIiE8allocateEmPKv>
    2311:	c9                   	leaveq 
    2312:	c3                   	retq   

0000000000002313 <_ZNSt6vectorIiSaIiEE14_S_do_relocateEPiS2_S2_RS0_St17integral_constantIbLb1EE>:
    2313:	55                   	push   %rbp
    2314:	48 89 e5             	mov    %rsp,%rbp
    2317:	48 83 ec 20          	sub    $0x20,%rsp
    231b:	48 89 7d f8          	mov    %rdi,-0x8(%rbp)
    231f:	48 89 75 f0          	mov    %rsi,-0x10(%rbp)
    2323:	48 89 55 e8          	mov    %rdx,-0x18(%rbp)
    2327:	48 89 4d e0          	mov    %rcx,-0x20(%rbp)
    232b:	48 8b 4d e0          	mov    -0x20(%rbp),%rcx
    232f:	48 8b 55 e8          	mov    -0x18(%rbp),%rdx
    2333:	48 8b 75 f0          	mov    -0x10(%rbp),%rsi
    2337:	48 8b 45 f8          	mov    -0x8(%rbp),%rax
    233b:	48 89 c7             	mov    %rax,%rdi
    233e:	e8 fb 00 00 00       	callq  243e <_ZSt12__relocate_aIPiS0_SaIiEET0_T_S3_S2_RT1_>
    2343:	c9                   	leaveq 
    2344:	c3                   	retq   

0000000000002345 <_ZSt32__make_move_if_noexcept_iteratorIiSt13move_iteratorIPiEET0_PT_>:
    2345:	55                   	push   %rbp
    2346:	48 89 e5             	mov    %rsp,%rbp
    2349:	48 83 ec 20          	sub    $0x20,%rsp
    234d:	48 89 7d e8          	mov    %rdi,-0x18(%rbp)
    2351:	48 8b 55 e8          	mov    -0x18(%rbp),%rdx
    2355:	48 8d 45 f8          	lea    -0x8(%rbp),%rax
    2359:	48 89 d6             	mov    %rdx,%rsi
    235c:	48 89 c7             	mov    %rax,%rdi
    235f:	e8 3e 01 00 00       	callq  24a2 <_ZNSt13move_iteratorIPiEC1ES0_>
    2364:	48 8b 45 f8          	mov    -0x8(%rbp),%rax
    2368:	c9                   	leaveq 
    2369:	c3                   	retq   

000000000000236a <_ZSt22__uninitialized_copy_aISt13move_iteratorIPiES1_iET0_T_S4_S3_RSaIT1_E>:
    236a:	55                   	push   %rbp
    236b:	48 89 e5             	mov    %rsp,%rbp
    236e:	48 83 ec 20          	sub    $0x20,%rsp
    2372:	48 89 7d f8          	mov    %rdi,-0x8(%rbp)
    2376:	48 89 75 f0          	mov    %rsi,-0x10(%rbp)
    237a:	48 89 55 e8          	mov    %rdx,-0x18(%rbp)
    237e:	48 89 4d e0          	mov    %rcx,-0x20(%rbp)
    2382:	48 8b 55 e8          	mov    -0x18(%rbp),%rdx
    2386:	48 8b 4d f0          	mov    -0x10(%rbp),%rcx
    238a:	48 8b 45 f8          	mov    -0x8(%rbp),%rax
    238e:	48 89 ce             	mov    %rcx,%rsi
    2391:	48 89 c7             	mov    %rax,%rdi
    2394:	e8 23 01 00 00       	callq  24bc <_ZSt18uninitialized_copyISt13move_iteratorIPiES1_ET0_T_S4_S3_>
    2399:	c9                   	leaveq 
    239a:	c3                   	retq   
    239b:	90                   	nop

000000000000239c <_ZN9__gnu_cxx13new_allocatorIiE7destroyIiEEvPT_>:
    239c:	55                   	push   %rbp
    239d:	48 89 e5             	mov    %rsp,%rbp
    23a0:	48 89 7d f8          	mov    %rdi,-0x8(%rbp)
    23a4:	48 89 75 f0          	mov    %rsi,-0x10(%rbp)
    23a8:	90                   	nop
    23a9:	5d                   	pop    %rbp
    23aa:	c3                   	retq   

00000000000023ab <_ZNSt6vectorIiSaIiEE11_S_max_sizeERKS0_>:
    23ab:	55                   	push   %rbp
    23ac:	48 89 e5             	mov    %rsp,%rbp
    23af:	48 83 ec 20          	sub    $0x20,%rsp
    23b3:	48 89 7d e8          	mov    %rdi,-0x18(%rbp)
    23b7:	48 b8 ff ff ff ff ff 	movabs $0x1fffffffffffffff,%rax
    23be:	ff ff 1f 
    23c1:	48 89 45 f8          	mov    %rax,-0x8(%rbp)
    23c5:	48 8b 45 e8          	mov    -0x18(%rbp),%rax
    23c9:	48 89 c7             	mov    %rax,%rdi
    23cc:	e8 1c 01 00 00       	callq  24ed <_ZNSt16allocator_traitsISaIiEE8max_sizeERKS0_>
    23d1:	48 89 45 f0          	mov    %rax,-0x10(%rbp)
    23d5:	48 8d 55 f0          	lea    -0x10(%rbp),%rdx
    23d9:	48 8d 45 f8          	lea    -0x8(%rbp),%rax
    23dd:	48 89 d6             	mov    %rdx,%rsi
    23e0:	48 89 c7             	mov    %rax,%rdi
    23e3:	e8 1f 01 00 00       	callq  2507 <_ZSt3minImERKT_S2_S2_>
    23e8:	48 8b 00             	mov    (%rax),%rax
    23eb:	c9                   	leaveq 
    23ec:	c3                   	retq   
    23ed:	90                   	nop

00000000000023ee <_ZNKSt12_Vector_baseIiSaIiEE19_M_get_Tp_allocatorEv>:
    23ee:	55                   	push   %rbp
    23ef:	48 89 e5             	mov    %rsp,%rbp
    23f2:	48 89 7d f8          	mov    %rdi,-0x8(%rbp)
    23f6:	48 8b 45 f8          	mov    -0x8(%rbp),%rax
    23fa:	5d                   	pop    %rbp
    23fb:	c3                   	retq   

00000000000023fc <_ZN9__gnu_cxx13new_allocatorIiE8allocateEmPKv>:
    23fc:	55                   	push   %rbp
    23fd:	48 89 e5             	mov    %rsp,%rbp
    2400:	48 83 ec 20          	sub    $0x20,%rsp
    2404:	48 89 7d f8          	mov    %rdi,-0x8(%rbp)
    2408:	48 89 75 f0          	mov    %rsi,-0x10(%rbp)
    240c:	48 89 55 e8          	mov    %rdx,-0x18(%rbp)
    2410:	48 8b 45 f8          	mov    -0x8(%rbp),%rax
    2414:	48 89 c7             	mov    %rax,%rdi
    2417:	e8 16 01 00 00       	callq  2532 <_ZNK9__gnu_cxx13new_allocatorIiE8max_sizeEv>
    241c:	48 39 45 f0          	cmp    %rax,-0x10(%rbp)
    2420:	0f 97 c0             	seta   %al
    2423:	84 c0                	test   %al,%al
    2425:	74 05                	je     242c <_ZN9__gnu_cxx13new_allocatorIiE8allocateEmPKv+0x30>
    2427:	e8 04 ec ff ff       	callq  1030 <_ZSt17__throw_bad_allocv@plt>
    242c:	48 8b 45 f0          	mov    -0x10(%rbp),%rax
    2430:	48 c1 e0 02          	shl    $0x2,%rax
    2434:	48 89 c7             	mov    %rax,%rdi
    2437:	e8 74 ec ff ff       	callq  10b0 <_Znwm@plt>
    243c:	c9                   	leaveq 
    243d:	c3                   	retq   

000000000000243e <_ZSt12__relocate_aIPiS0_SaIiEET0_T_S3_S2_RT1_>:
    243e:	55                   	push   %rbp
    243f:	48 89 e5             	mov    %rsp,%rbp
    2442:	41 54                	push   %r12
    2444:	53                   	push   %rbx
    2445:	48 83 ec 20          	sub    $0x20,%rsp
    2449:	48 89 7d e8          	mov    %rdi,-0x18(%rbp)
    244d:	48 89 75 e0          	mov    %rsi,-0x20(%rbp)
    2451:	48 89 55 d8          	mov    %rdx,-0x28(%rbp)
    2455:	48 89 4d d0          	mov    %rcx,-0x30(%rbp)
    2459:	48 8b 45 d8          	mov    -0x28(%rbp),%rax
    245d:	48 89 c7             	mov    %rax,%rdi
    2460:	e8 e1 00 00 00       	callq  2546 <_ZSt12__niter_baseIPiET_S1_>
    2465:	49 89 c4             	mov    %rax,%r12
    2468:	48 8b 45 e0          	mov    -0x20(%rbp),%rax
    246c:	48 89 c7             	mov    %rax,%rdi
    246f:	e8 d2 00 00 00       	callq  2546 <_ZSt12__niter_baseIPiET_S1_>
    2474:	48 89 c3             	mov    %rax,%rbx
    2477:	48 8b 45 e8          	mov    -0x18(%rbp),%rax
    247b:	48 89 c7             	mov    %rax,%rdi
    247e:	e8 c3 00 00 00       	callq  2546 <_ZSt12__niter_baseIPiET_S1_>
    2483:	48 89 c7             	mov    %rax,%rdi
    2486:	48 8b 45 d0          	mov    -0x30(%rbp),%rax
    248a:	48 89 c1             	mov    %rax,%rcx
    248d:	4c 89 e2             	mov    %r12,%rdx
    2490:	48 89 de             	mov    %rbx,%rsi
    2493:	e8 bc 00 00 00       	callq  2554 <_ZSt14__relocate_a_1IiiENSt9enable_ifIXsrSt24__is_bitwise_relocatableIT_vE5valueEPS2_E4typeES4_S4_S4_RSaIT0_E>
    2498:	48 83 c4 20          	add    $0x20,%rsp
    249c:	5b                   	pop    %rbx
    249d:	41 5c                	pop    %r12
    249f:	5d                   	pop    %rbp
    24a0:	c3                   	retq   
    24a1:	90                   	nop

00000000000024a2 <_ZNSt13move_iteratorIPiEC1ES0_>:
    24a2:	55                   	push   %rbp
    24a3:	48 89 e5             	mov    %rsp,%rbp
    24a6:	48 89 7d f8          	mov    %rdi,-0x8(%rbp)
    24aa:	48 89 75 f0          	mov    %rsi,-0x10(%rbp)
    24ae:	48 8b 45 f8          	mov    -0x8(%rbp),%rax
    24b2:	48 8b 55 f0          	mov    -0x10(%rbp),%rdx
    24b6:	48 89 10             	mov    %rdx,(%rax)
    24b9:	90                   	nop
    24ba:	5d                   	pop    %rbp
    24bb:	c3                   	retq   

00000000000024bc <_ZSt18uninitialized_copyISt13move_iteratorIPiES1_ET0_T_S4_S3_>:
    24bc:	55                   	push   %rbp
    24bd:	48 89 e5             	mov    %rsp,%rbp
    24c0:	48 83 ec 30          	sub    $0x30,%rsp
    24c4:	48 89 7d e8          	mov    %rdi,-0x18(%rbp)
    24c8:	48 89 75 e0          	mov    %rsi,-0x20(%rbp)
    24cc:	48 89 55 d8          	mov    %rdx,-0x28(%rbp)
    24d0:	c6 45 ff 01          	movb   $0x1,-0x1(%rbp)
    24d4:	48 8b 55 d8          	mov    -0x28(%rbp),%rdx
    24d8:	48 8b 4d e0          	mov    -0x20(%rbp),%rcx
    24dc:	48 8b 45 e8          	mov    -0x18(%rbp),%rax
    24e0:	48 89 ce             	mov    %rcx,%rsi
    24e3:	48 89 c7             	mov    %rax,%rdi
    24e6:	e8 cc 00 00 00       	callq  25b7 <_ZNSt20__uninitialized_copyILb1EE13__uninit_copyISt13move_iteratorIPiES3_EET0_T_S6_S5_>
    24eb:	c9                   	leaveq 
    24ec:	c3                   	retq   

00000000000024ed <_ZNSt16allocator_traitsISaIiEE8max_sizeERKS0_>:
    24ed:	55                   	push   %rbp
    24ee:	48 89 e5             	mov    %rsp,%rbp
    24f1:	48 83 ec 10          	sub    $0x10,%rsp
    24f5:	48 89 7d f8          	mov    %rdi,-0x8(%rbp)
    24f9:	48 8b 45 f8          	mov    -0x8(%rbp),%rax
    24fd:	48 89 c7             	mov    %rax,%rdi
    2500:	e8 2d 00 00 00       	callq  2532 <_ZNK9__gnu_cxx13new_allocatorIiE8max_sizeEv>
    2505:	c9                   	leaveq 
    2506:	c3                   	retq   

0000000000002507 <_ZSt3minImERKT_S2_S2_>:
    2507:	55                   	push   %rbp
    2508:	48 89 e5             	mov    %rsp,%rbp
    250b:	48 89 7d f8          	mov    %rdi,-0x8(%rbp)
    250f:	48 89 75 f0          	mov    %rsi,-0x10(%rbp)
    2513:	48 8b 45 f0          	mov    -0x10(%rbp),%rax
    2517:	48 8b 10             	mov    (%rax),%rdx
    251a:	48 8b 45 f8          	mov    -0x8(%rbp),%rax
    251e:	48 8b 00             	mov    (%rax),%rax
    2521:	48 39 c2             	cmp    %rax,%rdx
    2524:	73 06                	jae    252c <_ZSt3minImERKT_S2_S2_+0x25>
    2526:	48 8b 45 f0          	mov    -0x10(%rbp),%rax
    252a:	eb 04                	jmp    2530 <_ZSt3minImERKT_S2_S2_+0x29>
    252c:	48 8b 45 f8          	mov    -0x8(%rbp),%rax
    2530:	5d                   	pop    %rbp
    2531:	c3                   	retq   

0000000000002532 <_ZNK9__gnu_cxx13new_allocatorIiE8max_sizeEv>:
    2532:	55                   	push   %rbp
    2533:	48 89 e5             	mov    %rsp,%rbp
    2536:	48 89 7d f8          	mov    %rdi,-0x8(%rbp)
    253a:	48 b8 ff ff ff ff ff 	movabs $0x1fffffffffffffff,%rax
    2541:	ff ff 1f 
    2544:	5d                   	pop    %rbp
    2545:	c3                   	retq   

0000000000002546 <_ZSt12__niter_baseIPiET_S1_>:
    2546:	55                   	push   %rbp
    2547:	48 89 e5             	mov    %rsp,%rbp
    254a:	48 89 7d f8          	mov    %rdi,-0x8(%rbp)
    254e:	48 8b 45 f8          	mov    -0x8(%rbp),%rax
    2552:	5d                   	pop    %rbp
    2553:	c3                   	retq   

0000000000002554 <_ZSt14__relocate_a_1IiiENSt9enable_ifIXsrSt24__is_bitwise_relocatableIT_vE5valueEPS2_E4typeES4_S4_S4_RSaIT0_E>:
    2554:	55                   	push   %rbp
    2555:	48 89 e5             	mov    %rsp,%rbp
    2558:	48 83 ec 30          	sub    $0x30,%rsp
    255c:	48 89 7d e8          	mov    %rdi,-0x18(%rbp)
    2560:	48 89 75 e0          	mov    %rsi,-0x20(%rbp)
    2564:	48 89 55 d8          	mov    %rdx,-0x28(%rbp)
    2568:	48 89 4d d0          	mov    %rcx,-0x30(%rbp)
    256c:	48 8b 45 e0          	mov    -0x20(%rbp),%rax
    2570:	48 2b 45 e8          	sub    -0x18(%rbp),%rax
    2574:	48 c1 f8 02          	sar    $0x2,%rax
    2578:	48 89 45 f8          	mov    %rax,-0x8(%rbp)
    257c:	48 83 7d f8 00       	cmpq   $0x0,-0x8(%rbp)
    2581:	7e 1f                	jle    25a2 <_ZSt14__relocate_a_1IiiENSt9enable_ifIXsrSt24__is_bitwise_relocatableIT_vE5valueEPS2_E4typeES4_S4_S4_RSaIT0_E+0x4e>
    2583:	48 8b 45 f8          	mov    -0x8(%rbp),%rax
    2587:	48 8d 14 85 00 00 00 	lea    0x0(,%rax,4),%rdx
    258e:	00 
    258f:	48 8b 4d e8          	mov    -0x18(%rbp),%rcx
    2593:	48 8b 45 d8          	mov    -0x28(%rbp),%rax
    2597:	48 89 ce             	mov    %rcx,%rsi
    259a:	48 89 c7             	mov    %rax,%rdi
    259d:	e8 5e eb ff ff       	callq  1100 <memmove@plt>
    25a2:	48 8b 45 f8          	mov    -0x8(%rbp),%rax
    25a6:	48 8d 14 85 00 00 00 	lea    0x0(,%rax,4),%rdx
    25ad:	00 
    25ae:	48 8b 45 d8          	mov    -0x28(%rbp),%rax
    25b2:	48 01 d0             	add    %rdx,%rax
    25b5:	c9                   	leaveq 
    25b6:	c3                   	retq   

00000000000025b7 <_ZNSt20__uninitialized_copyILb1EE13__uninit_copyISt13move_iteratorIPiES3_EET0_T_S6_S5_>:
    25b7:	55                   	push   %rbp
    25b8:	48 89 e5             	mov    %rsp,%rbp
    25bb:	48 83 ec 20          	sub    $0x20,%rsp
    25bf:	48 89 7d f8          	mov    %rdi,-0x8(%rbp)
    25c3:	48 89 75 f0          	mov    %rsi,-0x10(%rbp)
    25c7:	48 89 55 e8          	mov    %rdx,-0x18(%rbp)
    25cb:	48 8b 55 e8          	mov    -0x18(%rbp),%rdx
    25cf:	48 8b 4d f0          	mov    -0x10(%rbp),%rcx
    25d3:	48 8b 45 f8          	mov    -0x8(%rbp),%rax
    25d7:	48 89 ce             	mov    %rcx,%rsi
    25da:	48 89 c7             	mov    %rax,%rdi
    25dd:	e8 02 00 00 00       	callq  25e4 <_ZSt4copyISt13move_iteratorIPiES1_ET0_T_S4_S3_>
    25e2:	c9                   	leaveq 
    25e3:	c3                   	retq   

00000000000025e4 <_ZSt4copyISt13move_iteratorIPiES1_ET0_T_S4_S3_>:
    25e4:	55                   	push   %rbp
    25e5:	48 89 e5             	mov    %rsp,%rbp
    25e8:	53                   	push   %rbx
    25e9:	48 83 ec 28          	sub    $0x28,%rsp
    25ed:	48 89 7d e8          	mov    %rdi,-0x18(%rbp)
    25f1:	48 89 75 e0          	mov    %rsi,-0x20(%rbp)
    25f5:	48 89 55 d8          	mov    %rdx,-0x28(%rbp)
    25f9:	48 8b 45 e0          	mov    -0x20(%rbp),%rax
    25fd:	48 89 c7             	mov    %rax,%rdi
    2600:	e8 2b 00 00 00       	callq  2630 <_ZSt12__miter_baseIPiEDTcl12__miter_basecldtfp_4baseEEESt13move_iteratorIT_E>
    2605:	48 89 c3             	mov    %rax,%rbx
    2608:	48 8b 45 e8          	mov    -0x18(%rbp),%rax
    260c:	48 89 c7             	mov    %rax,%rdi
    260f:	e8 1c 00 00 00       	callq  2630 <_ZSt12__miter_baseIPiEDTcl12__miter_basecldtfp_4baseEEESt13move_iteratorIT_E>
    2614:	48 89 c1             	mov    %rax,%rcx
    2617:	48 8b 45 d8          	mov    -0x28(%rbp),%rax
    261b:	48 89 c2             	mov    %rax,%rdx
    261e:	48 89 de             	mov    %rbx,%rsi
    2621:	48 89 cf             	mov    %rcx,%rdi
    2624:	e8 29 00 00 00       	callq  2652 <_ZSt14__copy_move_a2ILb1EPiS0_ET1_T0_S2_S1_>
    2629:	48 83 c4 28          	add    $0x28,%rsp
    262d:	5b                   	pop    %rbx
    262e:	5d                   	pop    %rbp
    262f:	c3                   	retq   

0000000000002630 <_ZSt12__miter_baseIPiEDTcl12__miter_basecldtfp_4baseEEESt13move_iteratorIT_E>:
    2630:	55                   	push   %rbp
    2631:	48 89 e5             	mov    %rsp,%rbp
    2634:	48 83 ec 10          	sub    $0x10,%rsp
    2638:	48 89 7d f8          	mov    %rdi,-0x8(%rbp)
    263c:	48 8d 45 f8          	lea    -0x8(%rbp),%rax
    2640:	48 89 c7             	mov    %rax,%rdi
    2643:	e8 74 00 00 00       	callq  26bc <_ZNKSt13move_iteratorIPiE4baseEv>
    2648:	48 89 c7             	mov    %rax,%rdi
    264b:	e8 7d 00 00 00       	callq  26cd <_ZSt12__miter_baseIPiET_S1_>
    2650:	c9                   	leaveq 
    2651:	c3                   	retq   

0000000000002652 <_ZSt14__copy_move_a2ILb1EPiS0_ET1_T0_S2_S1_>:
    2652:	55                   	push   %rbp
    2653:	48 89 e5             	mov    %rsp,%rbp
    2656:	41 54                	push   %r12
    2658:	53                   	push   %rbx
    2659:	48 83 ec 20          	sub    $0x20,%rsp
    265d:	48 89 7d e8          	mov    %rdi,-0x18(%rbp)
    2661:	48 89 75 e0          	mov    %rsi,-0x20(%rbp)
    2665:	48 89 55 d8          	mov    %rdx,-0x28(%rbp)
    2669:	48 8b 45 d8          	mov    -0x28(%rbp),%rax
    266d:	48 89 c7             	mov    %rax,%rdi
    2670:	e8 d1 fe ff ff       	callq  2546 <_ZSt12__niter_baseIPiET_S1_>
    2675:	49 89 c4             	mov    %rax,%r12
    2678:	48 8b 45 e0          	mov    -0x20(%rbp),%rax
    267c:	48 89 c7             	mov    %rax,%rdi
    267f:	e8 c2 fe ff ff       	callq  2546 <_ZSt12__niter_baseIPiET_S1_>
    2684:	48 89 c3             	mov    %rax,%rbx
    2687:	48 8b 45 e8          	mov    -0x18(%rbp),%rax
    268b:	48 89 c7             	mov    %rax,%rdi
    268e:	e8 b3 fe ff ff       	callq  2546 <_ZSt12__niter_baseIPiET_S1_>
    2693:	4c 89 e2             	mov    %r12,%rdx
    2696:	48 89 de             	mov    %rbx,%rsi
    2699:	48 89 c7             	mov    %rax,%rdi
    269c:	e8 3a 00 00 00       	callq  26db <_ZSt13__copy_move_aILb1EPiS0_ET1_T0_S2_S1_>
    26a1:	48 89 c2             	mov    %rax,%rdx
    26a4:	48 8d 45 d8          	lea    -0x28(%rbp),%rax
    26a8:	48 89 d6             	mov    %rdx,%rsi
    26ab:	48 89 c7             	mov    %rax,%rdi
    26ae:	e8 59 00 00 00       	callq  270c <_ZSt12__niter_wrapIPiET_RKS1_S1_>
    26b3:	48 83 c4 20          	add    $0x20,%rsp
    26b7:	5b                   	pop    %rbx
    26b8:	41 5c                	pop    %r12
    26ba:	5d                   	pop    %rbp
    26bb:	c3                   	retq   

00000000000026bc <_ZNKSt13move_iteratorIPiE4baseEv>:
    26bc:	55                   	push   %rbp
    26bd:	48 89 e5             	mov    %rsp,%rbp
    26c0:	48 89 7d f8          	mov    %rdi,-0x8(%rbp)
    26c4:	48 8b 45 f8          	mov    -0x8(%rbp),%rax
    26c8:	48 8b 00             	mov    (%rax),%rax
    26cb:	5d                   	pop    %rbp
    26cc:	c3                   	retq   

00000000000026cd <_ZSt12__miter_baseIPiET_S1_>:
    26cd:	55                   	push   %rbp
    26ce:	48 89 e5             	mov    %rsp,%rbp
    26d1:	48 89 7d f8          	mov    %rdi,-0x8(%rbp)
    26d5:	48 8b 45 f8          	mov    -0x8(%rbp),%rax
    26d9:	5d                   	pop    %rbp
    26da:	c3                   	retq   

00000000000026db <_ZSt13__copy_move_aILb1EPiS0_ET1_T0_S2_S1_>:
    26db:	55                   	push   %rbp
    26dc:	48 89 e5             	mov    %rsp,%rbp
    26df:	48 83 ec 30          	sub    $0x30,%rsp
    26e3:	48 89 7d e8          	mov    %rdi,-0x18(%rbp)
    26e7:	48 89 75 e0          	mov    %rsi,-0x20(%rbp)
    26eb:	48 89 55 d8          	mov    %rdx,-0x28(%rbp)
    26ef:	c6 45 ff 01          	movb   $0x1,-0x1(%rbp)
    26f3:	48 8b 55 d8          	mov    -0x28(%rbp),%rdx
    26f7:	48 8b 4d e0          	mov    -0x20(%rbp),%rcx
    26fb:	48 8b 45 e8          	mov    -0x18(%rbp),%rax
    26ff:	48 89 ce             	mov    %rcx,%rsi
    2702:	48 89 c7             	mov    %rax,%rdi
    2705:	e8 14 00 00 00       	callq  271e <_ZNSt11__copy_moveILb1ELb1ESt26random_access_iterator_tagE8__copy_mIiEEPT_PKS3_S6_S4_>
    270a:	c9                   	leaveq 
    270b:	c3                   	retq   

000000000000270c <_ZSt12__niter_wrapIPiET_RKS1_S1_>:
    270c:	55                   	push   %rbp
    270d:	48 89 e5             	mov    %rsp,%rbp
    2710:	48 89 7d f8          	mov    %rdi,-0x8(%rbp)
    2714:	48 89 75 f0          	mov    %rsi,-0x10(%rbp)
    2718:	48 8b 45 f0          	mov    -0x10(%rbp),%rax
    271c:	5d                   	pop    %rbp
    271d:	c3                   	retq   

000000000000271e <_ZNSt11__copy_moveILb1ELb1ESt26random_access_iterator_tagE8__copy_mIiEEPT_PKS3_S6_S4_>:
    271e:	55                   	push   %rbp
    271f:	48 89 e5             	mov    %rsp,%rbp
    2722:	48 83 ec 30          	sub    $0x30,%rsp
    2726:	48 89 7d e8          	mov    %rdi,-0x18(%rbp)
    272a:	48 89 75 e0          	mov    %rsi,-0x20(%rbp)
    272e:	48 89 55 d8          	mov    %rdx,-0x28(%rbp)
    2732:	48 8b 45 e0          	mov    -0x20(%rbp),%rax
    2736:	48 2b 45 e8          	sub    -0x18(%rbp),%rax
    273a:	48 c1 f8 02          	sar    $0x2,%rax
    273e:	48 89 45 f8          	mov    %rax,-0x8(%rbp)
    2742:	48 83 7d f8 00       	cmpq   $0x0,-0x8(%rbp)
    2747:	74 1f                	je     2768 <_ZNSt11__copy_moveILb1ELb1ESt26random_access_iterator_tagE8__copy_mIiEEPT_PKS3_S6_S4_+0x4a>
    2749:	48 8b 45 f8          	mov    -0x8(%rbp),%rax
    274d:	48 8d 14 85 00 00 00 	lea    0x0(,%rax,4),%rdx
    2754:	00 
    2755:	48 8b 4d e8          	mov    -0x18(%rbp),%rcx
    2759:	48 8b 45 d8          	mov    -0x28(%rbp),%rax
    275d:	48 89 ce             	mov    %rcx,%rsi
    2760:	48 89 c7             	mov    %rax,%rdi
    2763:	e8 98 e9 ff ff       	callq  1100 <memmove@plt>
    2768:	48 8b 45 f8          	mov    -0x8(%rbp),%rax
    276c:	48 8d 14 85 00 00 00 	lea    0x0(,%rax,4),%rdx
    2773:	00 
    2774:	48 8b 45 d8          	mov    -0x28(%rbp),%rax
    2778:	48 01 d0             	add    %rdx,%rax
    277b:	c9                   	leaveq 
    277c:	c3                   	retq   
    277d:	0f 1f 00             	nopl   (%rax)

0000000000002780 <__libc_csu_init>:
    2780:	41 57                	push   %r15
    2782:	4c 8d 3d 27 36 00 00 	lea    0x3627(%rip),%r15        # 5db0 <__frame_dummy_init_array_entry>
    2789:	41 56                	push   %r14
    278b:	49 89 d6             	mov    %rdx,%r14
    278e:	41 55                	push   %r13
    2790:	49 89 f5             	mov    %rsi,%r13
    2793:	41 54                	push   %r12
    2795:	41 89 fc             	mov    %edi,%r12d
    2798:	55                   	push   %rbp
    2799:	48 8d 2d 20 36 00 00 	lea    0x3620(%rip),%rbp        # 5dc0 <__do_global_dtors_aux_fini_array_entry>
    27a0:	53                   	push   %rbx
    27a1:	4c 29 fd             	sub    %r15,%rbp
    27a4:	48 83 ec 08          	sub    $0x8,%rsp
    27a8:	e8 53 e8 ff ff       	callq  1000 <_init>
    27ad:	48 c1 fd 03          	sar    $0x3,%rbp
    27b1:	74 1b                	je     27ce <__libc_csu_init+0x4e>
    27b3:	31 db                	xor    %ebx,%ebx
    27b5:	0f 1f 00             	nopl   (%rax)
    27b8:	4c 89 f2             	mov    %r14,%rdx
    27bb:	4c 89 ee             	mov    %r13,%rsi
    27be:	44 89 e7             	mov    %r12d,%edi
    27c1:	41 ff 14 df          	callq  *(%r15,%rbx,8)
    27c5:	48 83 c3 01          	add    $0x1,%rbx
    27c9:	48 39 dd             	cmp    %rbx,%rbp
    27cc:	75 ea                	jne    27b8 <__libc_csu_init+0x38>
    27ce:	48 83 c4 08          	add    $0x8,%rsp
    27d2:	5b                   	pop    %rbx
    27d3:	5d                   	pop    %rbp
    27d4:	41 5c                	pop    %r12
    27d6:	41 5d                	pop    %r13
    27d8:	41 5e                	pop    %r14
    27da:	41 5f                	pop    %r15
    27dc:	c3                   	retq   
    27dd:	0f 1f 00             	nopl   (%rax)

00000000000027e0 <__libc_csu_fini>:
    27e0:	c3                   	retq   

Disassembly of section .fini:

00000000000027e4 <_fini>:
    27e4:	48 83 ec 08          	sub    $0x8,%rsp
    27e8:	48 83 c4 08          	add    $0x8,%rsp
    27ec:	c3                   	retq   
