
ADDREV - Adding Reversed Numbers.out:     file format elf64-x86-64


Disassembly of section .init:

0000000000001000 <_init>:
    1000:	48 83 ec 08          	sub    $0x8,%rsp
    1004:	48 8b 05 dd 5f 00 00 	mov    0x5fdd(%rip),%rax        # 6fe8 <__gmon_start__>
    100b:	48 85 c0             	test   %rax,%rax
    100e:	74 02                	je     1012 <_init+0x12>
    1010:	ff d0                	callq  *%rax
    1012:	48 83 c4 08          	add    $0x8,%rsp
    1016:	c3                   	retq   

Disassembly of section .plt:

0000000000001020 <.plt>:
    1020:	ff 35 e2 5f 00 00    	pushq  0x5fe2(%rip)        # 7008 <_GLOBAL_OFFSET_TABLE_+0x8>
    1026:	ff 25 e4 5f 00 00    	jmpq   *0x5fe4(%rip)        # 7010 <_GLOBAL_OFFSET_TABLE_+0x10>
    102c:	0f 1f 40 00          	nopl   0x0(%rax)

0000000000001030 <_ZSt17__throw_bad_allocv@plt>:
    1030:	ff 25 e2 5f 00 00    	jmpq   *0x5fe2(%rip)        # 7018 <_ZSt17__throw_bad_allocv@GLIBCXX_3.4>
    1036:	68 00 00 00 00       	pushq  $0x0
    103b:	e9 e0 ff ff ff       	jmpq   1020 <.plt>

0000000000001040 <__cxa_begin_catch@plt>:
    1040:	ff 25 da 5f 00 00    	jmpq   *0x5fda(%rip)        # 7020 <__cxa_begin_catch@CXXABI_1.3>
    1046:	68 01 00 00 00       	pushq  $0x1
    104b:	e9 d0 ff ff ff       	jmpq   1020 <.plt>

0000000000001050 <_ZNSt8ios_base15sync_with_stdioEb@plt>:
    1050:	ff 25 d2 5f 00 00    	jmpq   *0x5fd2(%rip)        # 7028 <_ZNSt8ios_base15sync_with_stdioEb@GLIBCXX_3.4>
    1056:	68 02 00 00 00       	pushq  $0x2
    105b:	e9 c0 ff ff ff       	jmpq   1020 <.plt>

0000000000001060 <_ZSt20__throw_length_errorPKc@plt>:
    1060:	ff 25 ca 5f 00 00    	jmpq   *0x5fca(%rip)        # 7030 <_ZSt20__throw_length_errorPKc@GLIBCXX_3.4>
    1066:	68 03 00 00 00       	pushq  $0x3
    106b:	e9 b0 ff ff ff       	jmpq   1020 <.plt>

0000000000001070 <_ZNSirsERi@plt>:
    1070:	ff 25 c2 5f 00 00    	jmpq   *0x5fc2(%rip)        # 7038 <_ZNSirsERi@GLIBCXX_3.4>
    1076:	68 04 00 00 00       	pushq  $0x4
    107b:	e9 a0 ff ff ff       	jmpq   1020 <.plt>

0000000000001080 <_ZNSt7__cxx1112basic_stringIcSt11char_traitsIcESaIcEED1Ev@plt>:
    1080:	ff 25 ba 5f 00 00    	jmpq   *0x5fba(%rip)        # 7040 <_ZNSt7__cxx1112basic_stringIcSt11char_traitsIcESaIcEED1Ev@GLIBCXX_3.4.21>
    1086:	68 05 00 00 00       	pushq  $0x5
    108b:	e9 90 ff ff ff       	jmpq   1020 <.plt>

0000000000001090 <_ZNKSt7__cxx1112basic_stringIcSt11char_traitsIcESaIcEE4sizeEv@plt>:
    1090:	ff 25 b2 5f 00 00    	jmpq   *0x5fb2(%rip)        # 7048 <_ZNKSt7__cxx1112basic_stringIcSt11char_traitsIcESaIcEE4sizeEv@GLIBCXX_3.4.21>
    1096:	68 06 00 00 00       	pushq  $0x6
    109b:	e9 80 ff ff ff       	jmpq   1020 <.plt>

00000000000010a0 <_ZNSt9basic_iosIcSt11char_traitsIcEE3tieEPSo@plt>:
    10a0:	ff 25 aa 5f 00 00    	jmpq   *0x5faa(%rip)        # 7050 <_ZNSt9basic_iosIcSt11char_traitsIcEE3tieEPSo@GLIBCXX_3.4>
    10a6:	68 07 00 00 00       	pushq  $0x7
    10ab:	e9 70 ff ff ff       	jmpq   1020 <.plt>

00000000000010b0 <__cxa_atexit@plt>:
    10b0:	ff 25 a2 5f 00 00    	jmpq   *0x5fa2(%rip)        # 7058 <__cxa_atexit@GLIBC_2.2.5>
    10b6:	68 08 00 00 00       	pushq  $0x8
    10bb:	e9 60 ff ff ff       	jmpq   1020 <.plt>

00000000000010c0 <_ZdlPv@plt>:
    10c0:	ff 25 9a 5f 00 00    	jmpq   *0x5f9a(%rip)        # 7060 <_ZdlPv@GLIBCXX_3.4>
    10c6:	68 09 00 00 00       	pushq  $0x9
    10cb:	e9 50 ff ff ff       	jmpq   1020 <.plt>

00000000000010d0 <_ZStlsISt11char_traitsIcEERSt13basic_ostreamIcT_ES5_PKc@plt>:
    10d0:	ff 25 92 5f 00 00    	jmpq   *0x5f92(%rip)        # 7068 <_ZStlsISt11char_traitsIcEERSt13basic_ostreamIcT_ES5_PKc@GLIBCXX_3.4>
    10d6:	68 0a 00 00 00       	pushq  $0xa
    10db:	e9 40 ff ff ff       	jmpq   1020 <.plt>

00000000000010e0 <_Znwm@plt>:
    10e0:	ff 25 8a 5f 00 00    	jmpq   *0x5f8a(%rip)        # 7070 <_Znwm@GLIBCXX_3.4>
    10e6:	68 0b 00 00 00       	pushq  $0xb
    10eb:	e9 30 ff ff ff       	jmpq   1020 <.plt>

00000000000010f0 <_ZNSolsEPFRSoS_E@plt>:
    10f0:	ff 25 82 5f 00 00    	jmpq   *0x5f82(%rip)        # 7078 <_ZNSolsEPFRSoS_E@GLIBCXX_3.4>
    10f6:	68 0c 00 00 00       	pushq  $0xc
    10fb:	e9 20 ff ff ff       	jmpq   1020 <.plt>

0000000000001100 <_ZStrsIcSt11char_traitsIcESaIcEERSt13basic_istreamIT_T0_ES7_RNSt7__cxx1112basic_stringIS4_S5_T1_EE@plt>:
    1100:	ff 25 7a 5f 00 00    	jmpq   *0x5f7a(%rip)        # 7080 <_ZStrsIcSt11char_traitsIcESaIcEERSt13basic_istreamIT_T0_ES7_RNSt7__cxx1112basic_stringIS4_S5_T1_EE@GLIBCXX_3.4.21>
    1106:	68 0d 00 00 00       	pushq  $0xd
    110b:	e9 10 ff ff ff       	jmpq   1020 <.plt>

0000000000001110 <_ZNSt7__cxx1112basic_stringIcSt11char_traitsIcESaIcEEC1Ev@plt>:
    1110:	ff 25 72 5f 00 00    	jmpq   *0x5f72(%rip)        # 7088 <_ZNSt7__cxx1112basic_stringIcSt11char_traitsIcESaIcEEC1Ev@GLIBCXX_3.4.21>
    1116:	68 0e 00 00 00       	pushq  $0xe
    111b:	e9 00 ff ff ff       	jmpq   1020 <.plt>

0000000000001120 <__cxa_rethrow@plt>:
    1120:	ff 25 6a 5f 00 00    	jmpq   *0x5f6a(%rip)        # 7090 <__cxa_rethrow@CXXABI_1.3>
    1126:	68 0f 00 00 00       	pushq  $0xf
    112b:	e9 f0 fe ff ff       	jmpq   1020 <.plt>

0000000000001130 <_ZNSt8ios_base4InitC1Ev@plt>:
    1130:	ff 25 62 5f 00 00    	jmpq   *0x5f62(%rip)        # 7098 <_ZNSt8ios_base4InitC1Ev@GLIBCXX_3.4>
    1136:	68 10 00 00 00       	pushq  $0x10
    113b:	e9 e0 fe ff ff       	jmpq   1020 <.plt>

0000000000001140 <memmove@plt>:
    1140:	ff 25 5a 5f 00 00    	jmpq   *0x5f5a(%rip)        # 70a0 <memmove@GLIBC_2.2.5>
    1146:	68 11 00 00 00       	pushq  $0x11
    114b:	e9 d0 fe ff ff       	jmpq   1020 <.plt>

0000000000001150 <__cxa_end_catch@plt>:
    1150:	ff 25 52 5f 00 00    	jmpq   *0x5f52(%rip)        # 70a8 <__cxa_end_catch@CXXABI_1.3>
    1156:	68 12 00 00 00       	pushq  $0x12
    115b:	e9 c0 fe ff ff       	jmpq   1020 <.plt>

0000000000001160 <_ZNSolsEi@plt>:
    1160:	ff 25 4a 5f 00 00    	jmpq   *0x5f4a(%rip)        # 70b0 <_ZNSolsEi@GLIBCXX_3.4>
    1166:	68 13 00 00 00       	pushq  $0x13
    116b:	e9 b0 fe ff ff       	jmpq   1020 <.plt>

0000000000001170 <_Unwind_Resume@plt>:
    1170:	ff 25 42 5f 00 00    	jmpq   *0x5f42(%rip)        # 70b8 <_Unwind_Resume@GCC_3.0>
    1176:	68 14 00 00 00       	pushq  $0x14
    117b:	e9 a0 fe ff ff       	jmpq   1020 <.plt>

0000000000001180 <_ZNSt7__cxx1112basic_stringIcSt11char_traitsIcESaIcEEixEm@plt>:
    1180:	ff 25 3a 5f 00 00    	jmpq   *0x5f3a(%rip)        # 70c0 <_ZNSt7__cxx1112basic_stringIcSt11char_traitsIcESaIcEEixEm@GLIBCXX_3.4.21>
    1186:	68 15 00 00 00       	pushq  $0x15
    118b:	e9 90 fe ff ff       	jmpq   1020 <.plt>

Disassembly of section .plt.got:

0000000000001190 <__cxa_finalize@plt>:
    1190:	ff 25 32 5e 00 00    	jmpq   *0x5e32(%rip)        # 6fc8 <__cxa_finalize@GLIBC_2.2.5>
    1196:	66 90                	xchg   %ax,%ax

Disassembly of section .text:

00000000000011a0 <_start>:
    11a0:	31 ed                	xor    %ebp,%ebp
    11a2:	49 89 d1             	mov    %rdx,%r9
    11a5:	5e                   	pop    %rsi
    11a6:	48 89 e2             	mov    %rsp,%rdx
    11a9:	48 83 e4 f0          	and    $0xfffffffffffffff0,%rsp
    11ad:	50                   	push   %rax
    11ae:	54                   	push   %rsp
    11af:	4c 8d 05 1a 20 00 00 	lea    0x201a(%rip),%r8        # 31d0 <__libc_csu_fini>
    11b6:	48 8d 0d b3 1f 00 00 	lea    0x1fb3(%rip),%rcx        # 3170 <__libc_csu_init>
    11bd:	48 8d 3d 8e 02 00 00 	lea    0x28e(%rip),%rdi        # 1452 <main>
    11c4:	ff 15 16 5e 00 00    	callq  *0x5e16(%rip)        # 6fe0 <__libc_start_main@GLIBC_2.2.5>
    11ca:	f4                   	hlt    
    11cb:	0f 1f 44 00 00       	nopl   0x0(%rax,%rax,1)

00000000000011d0 <deregister_tm_clones>:
    11d0:	48 8d 3d 09 5f 00 00 	lea    0x5f09(%rip),%rdi        # 70e0 <__TMC_END__>
    11d7:	48 8d 05 02 5f 00 00 	lea    0x5f02(%rip),%rax        # 70e0 <__TMC_END__>
    11de:	48 39 f8             	cmp    %rdi,%rax
    11e1:	74 15                	je     11f8 <deregister_tm_clones+0x28>
    11e3:	48 8b 05 ee 5d 00 00 	mov    0x5dee(%rip),%rax        # 6fd8 <_ITM_deregisterTMCloneTable>
    11ea:	48 85 c0             	test   %rax,%rax
    11ed:	74 09                	je     11f8 <deregister_tm_clones+0x28>
    11ef:	ff e0                	jmpq   *%rax
    11f1:	0f 1f 80 00 00 00 00 	nopl   0x0(%rax)
    11f8:	c3                   	retq   
    11f9:	0f 1f 80 00 00 00 00 	nopl   0x0(%rax)

0000000000001200 <register_tm_clones>:
    1200:	48 8d 3d d9 5e 00 00 	lea    0x5ed9(%rip),%rdi        # 70e0 <__TMC_END__>
    1207:	48 8d 35 d2 5e 00 00 	lea    0x5ed2(%rip),%rsi        # 70e0 <__TMC_END__>
    120e:	48 29 fe             	sub    %rdi,%rsi
    1211:	48 89 f0             	mov    %rsi,%rax
    1214:	48 c1 ee 3f          	shr    $0x3f,%rsi
    1218:	48 c1 f8 03          	sar    $0x3,%rax
    121c:	48 01 c6             	add    %rax,%rsi
    121f:	48 d1 fe             	sar    %rsi
    1222:	74 14                	je     1238 <register_tm_clones+0x38>
    1224:	48 8b 05 c5 5d 00 00 	mov    0x5dc5(%rip),%rax        # 6ff0 <_ITM_registerTMCloneTable>
    122b:	48 85 c0             	test   %rax,%rax
    122e:	74 08                	je     1238 <register_tm_clones+0x38>
    1230:	ff e0                	jmpq   *%rax
    1232:	66 0f 1f 44 00 00    	nopw   0x0(%rax,%rax,1)
    1238:	c3                   	retq   
    1239:	0f 1f 80 00 00 00 00 	nopl   0x0(%rax)

0000000000001240 <__do_global_dtors_aux>:
    1240:	80 3d f1 60 00 00 00 	cmpb   $0x0,0x60f1(%rip)        # 7338 <completed.7447>
    1247:	75 2f                	jne    1278 <__do_global_dtors_aux+0x38>
    1249:	55                   	push   %rbp
    124a:	48 83 3d 76 5d 00 00 	cmpq   $0x0,0x5d76(%rip)        # 6fc8 <__cxa_finalize@GLIBC_2.2.5>
    1251:	00 
    1252:	48 89 e5             	mov    %rsp,%rbp
    1255:	74 0c                	je     1263 <__do_global_dtors_aux+0x23>
    1257:	48 8b 3d 72 5e 00 00 	mov    0x5e72(%rip),%rdi        # 70d0 <__dso_handle>
    125e:	e8 2d ff ff ff       	callq  1190 <__cxa_finalize@plt>
    1263:	e8 68 ff ff ff       	callq  11d0 <deregister_tm_clones>
    1268:	c6 05 c9 60 00 00 01 	movb   $0x1,0x60c9(%rip)        # 7338 <completed.7447>
    126f:	5d                   	pop    %rbp
    1270:	c3                   	retq   
    1271:	0f 1f 80 00 00 00 00 	nopl   0x0(%rax)
    1278:	c3                   	retq   
    1279:	0f 1f 80 00 00 00 00 	nopl   0x0(%rax)

0000000000001280 <frame_dummy>:
    1280:	e9 7b ff ff ff       	jmpq   1200 <register_tm_clones>

0000000000001285 <_Z7decSortxx>:
    1285:	55                   	push   %rbp
    1286:	48 89 e5             	mov    %rsp,%rbp
    1289:	48 89 7d f8          	mov    %rdi,-0x8(%rbp)
    128d:	48 89 75 f0          	mov    %rsi,-0x10(%rbp)
    1291:	48 8b 45 f8          	mov    -0x8(%rbp),%rax
    1295:	48 3b 45 f0          	cmp    -0x10(%rbp),%rax
    1299:	0f 9f c0             	setg   %al
    129c:	5d                   	pop    %rbp
    129d:	c3                   	retq   

000000000000129e <_Z12max_of_arrayPxx>:
    129e:	55                   	push   %rbp
    129f:	48 89 e5             	mov    %rsp,%rbp
    12a2:	48 89 7d e8          	mov    %rdi,-0x18(%rbp)
    12a6:	48 89 75 e0          	mov    %rsi,-0x20(%rbp)
    12aa:	48 8b 45 e8          	mov    -0x18(%rbp),%rax
    12ae:	48 8b 00             	mov    (%rax),%rax
    12b1:	48 89 45 f8          	mov    %rax,-0x8(%rbp)
    12b5:	48 c7 45 f0 00 00 00 	movq   $0x0,-0x10(%rbp)
    12bc:	00 
    12bd:	48 8b 45 f0          	mov    -0x10(%rbp),%rax
    12c1:	48 3b 45 e0          	cmp    -0x20(%rbp),%rax
    12c5:	7d 3d                	jge    1304 <_Z12max_of_arrayPxx+0x66>
    12c7:	48 8b 45 f0          	mov    -0x10(%rbp),%rax
    12cb:	48 8d 14 c5 00 00 00 	lea    0x0(,%rax,8),%rdx
    12d2:	00 
    12d3:	48 8b 45 e8          	mov    -0x18(%rbp),%rax
    12d7:	48 01 d0             	add    %rdx,%rax
    12da:	48 8b 00             	mov    (%rax),%rax
    12dd:	48 39 45 f8          	cmp    %rax,-0x8(%rbp)
    12e1:	7d 1a                	jge    12fd <_Z12max_of_arrayPxx+0x5f>
    12e3:	48 8b 45 f0          	mov    -0x10(%rbp),%rax
    12e7:	48 8d 14 c5 00 00 00 	lea    0x0(,%rax,8),%rdx
    12ee:	00 
    12ef:	48 8b 45 e8          	mov    -0x18(%rbp),%rax
    12f3:	48 01 d0             	add    %rdx,%rax
    12f6:	48 8b 00             	mov    (%rax),%rax
    12f9:	48 89 45 f8          	mov    %rax,-0x8(%rbp)
    12fd:	48 83 45 f0 01       	addq   $0x1,-0x10(%rbp)
    1302:	eb b9                	jmp    12bd <_Z12max_of_arrayPxx+0x1f>
    1304:	48 8b 45 f8          	mov    -0x8(%rbp),%rax
    1308:	5d                   	pop    %rbp
    1309:	c3                   	retq   

000000000000130a <_Z12min_of_arrayPxx>:
    130a:	55                   	push   %rbp
    130b:	48 89 e5             	mov    %rsp,%rbp
    130e:	48 89 7d e8          	mov    %rdi,-0x18(%rbp)
    1312:	48 89 75 e0          	mov    %rsi,-0x20(%rbp)
    1316:	48 8b 45 e8          	mov    -0x18(%rbp),%rax
    131a:	48 8b 00             	mov    (%rax),%rax
    131d:	48 89 45 f8          	mov    %rax,-0x8(%rbp)
    1321:	48 c7 45 f0 00 00 00 	movq   $0x0,-0x10(%rbp)
    1328:	00 
    1329:	48 8b 45 f0          	mov    -0x10(%rbp),%rax
    132d:	48 3b 45 e0          	cmp    -0x20(%rbp),%rax
    1331:	7d 3d                	jge    1370 <_Z12min_of_arrayPxx+0x66>
    1333:	48 8b 45 f0          	mov    -0x10(%rbp),%rax
    1337:	48 8d 14 c5 00 00 00 	lea    0x0(,%rax,8),%rdx
    133e:	00 
    133f:	48 8b 45 e8          	mov    -0x18(%rbp),%rax
    1343:	48 01 d0             	add    %rdx,%rax
    1346:	48 8b 00             	mov    (%rax),%rax
    1349:	48 39 45 f8          	cmp    %rax,-0x8(%rbp)
    134d:	7e 1a                	jle    1369 <_Z12min_of_arrayPxx+0x5f>
    134f:	48 8b 45 f0          	mov    -0x10(%rbp),%rax
    1353:	48 8d 14 c5 00 00 00 	lea    0x0(,%rax,8),%rdx
    135a:	00 
    135b:	48 8b 45 e8          	mov    -0x18(%rbp),%rax
    135f:	48 01 d0             	add    %rdx,%rax
    1362:	48 8b 00             	mov    (%rax),%rax
    1365:	48 89 45 f8          	mov    %rax,-0x8(%rbp)
    1369:	48 83 45 f0 01       	addq   $0x1,-0x10(%rbp)
    136e:	eb b9                	jmp    1329 <_Z12min_of_arrayPxx+0x1f>
    1370:	48 8b 45 f8          	mov    -0x8(%rbp),%rax
    1374:	5d                   	pop    %rbp
    1375:	c3                   	retq   

0000000000001376 <_Z7isPrimex>:
    1376:	55                   	push   %rbp
    1377:	48 89 e5             	mov    %rsp,%rbp
    137a:	48 89 7d e8          	mov    %rdi,-0x18(%rbp)
    137e:	48 83 7d e8 01       	cmpq   $0x1,-0x18(%rbp)
    1383:	75 07                	jne    138c <_Z7isPrimex+0x16>
    1385:	b8 00 00 00 00       	mov    $0x0,%eax
    138a:	eb 49                	jmp    13d5 <_Z7isPrimex+0x5f>
    138c:	48 83 7d e8 02       	cmpq   $0x2,-0x18(%rbp)
    1391:	75 07                	jne    139a <_Z7isPrimex+0x24>
    1393:	b8 01 00 00 00       	mov    $0x1,%eax
    1398:	eb 3b                	jmp    13d5 <_Z7isPrimex+0x5f>
    139a:	48 c7 45 f8 02 00 00 	movq   $0x2,-0x8(%rbp)
    13a1:	00 
    13a2:	48 8b 45 f8          	mov    -0x8(%rbp),%rax
    13a6:	48 0f af c0          	imul   %rax,%rax
    13aa:	48 39 45 e8          	cmp    %rax,-0x18(%rbp)
    13ae:	7c 20                	jl     13d0 <_Z7isPrimex+0x5a>
    13b0:	48 8b 45 e8          	mov    -0x18(%rbp),%rax
    13b4:	48 99                	cqto   
    13b6:	48 f7 7d f8          	idivq  -0x8(%rbp)
    13ba:	48 89 d0             	mov    %rdx,%rax
    13bd:	48 85 c0             	test   %rax,%rax
    13c0:	75 07                	jne    13c9 <_Z7isPrimex+0x53>
    13c2:	b8 00 00 00 00       	mov    $0x0,%eax
    13c7:	eb 0c                	jmp    13d5 <_Z7isPrimex+0x5f>
    13c9:	48 83 45 f8 01       	addq   $0x1,-0x8(%rbp)
    13ce:	eb d2                	jmp    13a2 <_Z7isPrimex+0x2c>
    13d0:	b8 01 00 00 00       	mov    $0x1,%eax
    13d5:	5d                   	pop    %rbp
    13d6:	c3                   	retq   

00000000000013d7 <_Z3gcdxx>:
    13d7:	55                   	push   %rbp
    13d8:	48 89 e5             	mov    %rsp,%rbp
    13db:	48 83 ec 10          	sub    $0x10,%rsp
    13df:	48 89 7d f8          	mov    %rdi,-0x8(%rbp)
    13e3:	48 89 75 f0          	mov    %rsi,-0x10(%rbp)
    13e7:	48 83 7d f0 00       	cmpq   $0x0,-0x10(%rbp)
    13ec:	75 06                	jne    13f4 <_Z3gcdxx+0x1d>
    13ee:	48 8b 45 f8          	mov    -0x8(%rbp),%rax
    13f2:	eb 1a                	jmp    140e <_Z3gcdxx+0x37>
    13f4:	48 8b 45 f8          	mov    -0x8(%rbp),%rax
    13f8:	48 99                	cqto   
    13fa:	48 f7 7d f0          	idivq  -0x10(%rbp)
    13fe:	48 8b 45 f0          	mov    -0x10(%rbp),%rax
    1402:	48 89 d6             	mov    %rdx,%rsi
    1405:	48 89 c7             	mov    %rax,%rdi
    1408:	e8 ca ff ff ff       	callq  13d7 <_Z3gcdxx>
    140d:	90                   	nop
    140e:	c9                   	leaveq 
    140f:	c3                   	retq   

0000000000001410 <_Z3lcmxx>:
    1410:	55                   	push   %rbp
    1411:	48 89 e5             	mov    %rsp,%rbp
    1414:	53                   	push   %rbx
    1415:	48 83 ec 18          	sub    $0x18,%rsp
    1419:	48 89 7d e8          	mov    %rdi,-0x18(%rbp)
    141d:	48 89 75 e0          	mov    %rsi,-0x20(%rbp)
    1421:	48 8b 45 e8          	mov    -0x18(%rbp),%rax
    1425:	48 0f af 45 e0       	imul   -0x20(%rbp),%rax
    142a:	48 89 c3             	mov    %rax,%rbx
    142d:	48 8b 55 e0          	mov    -0x20(%rbp),%rdx
    1431:	48 8b 45 e8          	mov    -0x18(%rbp),%rax
    1435:	48 89 d6             	mov    %rdx,%rsi
    1438:	48 89 c7             	mov    %rax,%rdi
    143b:	e8 97 ff ff ff       	callq  13d7 <_Z3gcdxx>
    1440:	48 89 c1             	mov    %rax,%rcx
    1443:	48 89 d8             	mov    %rbx,%rax
    1446:	48 99                	cqto   
    1448:	48 f7 f9             	idiv   %rcx
    144b:	48 83 c4 18          	add    $0x18,%rsp
    144f:	5b                   	pop    %rbx
    1450:	5d                   	pop    %rbp
    1451:	c3                   	retq   

0000000000001452 <main>:
    1452:	55                   	push   %rbp
    1453:	48 89 e5             	mov    %rsp,%rbp
    1456:	53                   	push   %rbx
    1457:	48 81 ec 18 01 00 00 	sub    $0x118,%rsp
    145e:	bf 00 00 00 00       	mov    $0x0,%edi
    1463:	e8 e8 fb ff ff       	callq  1050 <_ZNSt8ios_base15sync_with_stdioEb@plt>
    1468:	be 00 00 00 00       	mov    $0x0,%esi
    146d:	48 8d 3d bc 5d 00 00 	lea    0x5dbc(%rip),%rdi        # 7230 <_ZSt3cin@@GLIBCXX_3.4+0x10>
    1474:	e8 27 fc ff ff       	callq  10a0 <_ZNSt9basic_iosIcSt11char_traitsIcEE3tieEPSo@plt>
    1479:	48 8d 45 88          	lea    -0x78(%rbp),%rax
    147d:	48 89 c6             	mov    %rax,%rsi
    1480:	48 8d 3d 99 5d 00 00 	lea    0x5d99(%rip),%rdi        # 7220 <_ZSt3cin@@GLIBCXX_3.4>
    1487:	e8 e4 fb ff ff       	callq  1070 <_ZNSirsERi@plt>
    148c:	8b 45 88             	mov    -0x78(%rbp),%eax
    148f:	8d 50 ff             	lea    -0x1(%rax),%edx
    1492:	89 55 88             	mov    %edx,-0x78(%rbp)
    1495:	85 c0                	test   %eax,%eax
    1497:	0f 95 c0             	setne  %al
    149a:	84 c0                	test   %al,%al
    149c:	0f 84 cb 09 00 00    	je     1e6d <main+0xa1b>
    14a2:	48 8d 85 e0 fe ff ff 	lea    -0x120(%rbp),%rax
    14a9:	48 89 c7             	mov    %rax,%rdi
    14ac:	e8 5f fc ff ff       	callq  1110 <_ZNSt7__cxx1112basic_stringIcSt11char_traitsIcESaIcEEC1Ev@plt>
    14b1:	48 8d 85 00 ff ff ff 	lea    -0x100(%rbp),%rax
    14b8:	48 89 c7             	mov    %rax,%rdi
    14bb:	e8 50 fc ff ff       	callq  1110 <_ZNSt7__cxx1112basic_stringIcSt11char_traitsIcESaIcEEC1Ev@plt>
    14c0:	48 8d 85 e0 fe ff ff 	lea    -0x120(%rbp),%rax
    14c7:	48 89 c6             	mov    %rax,%rsi
    14ca:	48 8d 3d 4f 5d 00 00 	lea    0x5d4f(%rip),%rdi        # 7220 <_ZSt3cin@@GLIBCXX_3.4>
    14d1:	e8 2a fc ff ff       	callq  1100 <_ZStrsIcSt11char_traitsIcESaIcEERSt13basic_istreamIT_T0_ES7_RNSt7__cxx1112basic_stringIS4_S5_T1_EE@plt>
    14d6:	48 89 c2             	mov    %rax,%rdx
    14d9:	48 8d 85 00 ff ff ff 	lea    -0x100(%rbp),%rax
    14e0:	48 89 c6             	mov    %rax,%rsi
    14e3:	48 89 d7             	mov    %rdx,%rdi
    14e6:	e8 15 fc ff ff       	callq  1100 <_ZStrsIcSt11char_traitsIcESaIcEERSt13basic_istreamIT_T0_ES7_RNSt7__cxx1112basic_stringIS4_S5_T1_EE@plt>
    14eb:	48 8d 85 e0 fe ff ff 	lea    -0x120(%rbp),%rax
    14f2:	48 89 c7             	mov    %rax,%rdi
    14f5:	e8 96 fb ff ff       	callq  1090 <_ZNKSt7__cxx1112basic_stringIcSt11char_traitsIcESaIcEE4sizeEv@plt>
    14fa:	89 45 c4             	mov    %eax,-0x3c(%rbp)
    14fd:	48 8d 85 00 ff ff ff 	lea    -0x100(%rbp),%rax
    1504:	48 89 c7             	mov    %rax,%rdi
    1507:	e8 84 fb ff ff       	callq  1090 <_ZNKSt7__cxx1112basic_stringIcSt11char_traitsIcESaIcEE4sizeEv@plt>
    150c:	89 45 c0             	mov    %eax,-0x40(%rbp)
    150f:	8b 45 c4             	mov    -0x3c(%rbp),%eax
    1512:	3b 45 c0             	cmp    -0x40(%rbp),%eax
    1515:	0f 8d f1 02 00 00    	jge    180c <main+0x3ba>
    151b:	48 8d 85 70 ff ff ff 	lea    -0x90(%rbp),%rax
    1522:	48 89 c7             	mov    %rax,%rdi
    1525:	e8 64 0a 00 00       	callq  1f8e <_ZNSt6vectorIiSaIiEEC1Ev>
    152a:	c7 45 ec 00 00 00 00 	movl   $0x0,-0x14(%rbp)
    1531:	c7 45 e8 00 00 00 00 	movl   $0x0,-0x18(%rbp)
    1538:	8b 45 e8             	mov    -0x18(%rbp),%eax
    153b:	3b 45 c4             	cmp    -0x3c(%rbp),%eax
    153e:	0f 8d ac 01 00 00    	jge    16f0 <main+0x29e>
    1544:	8b 45 e8             	mov    -0x18(%rbp),%eax
    1547:	48 63 d0             	movslq %eax,%rdx
    154a:	48 8d 85 e0 fe ff ff 	lea    -0x120(%rbp),%rax
    1551:	48 89 d6             	mov    %rdx,%rsi
    1554:	48 89 c7             	mov    %rax,%rdi
    1557:	e8 24 fc ff ff       	callq  1180 <_ZNSt7__cxx1112basic_stringIcSt11char_traitsIcESaIcEEixEm@plt>
    155c:	0f b6 00             	movzbl (%rax),%eax
    155f:	0f be c0             	movsbl %al,%eax
    1562:	83 e8 30             	sub    $0x30,%eax
    1565:	89 45 ac             	mov    %eax,-0x54(%rbp)
    1568:	8b 45 e8             	mov    -0x18(%rbp),%eax
    156b:	48 63 d0             	movslq %eax,%rdx
    156e:	48 8d 85 00 ff ff ff 	lea    -0x100(%rbp),%rax
    1575:	48 89 d6             	mov    %rdx,%rsi
    1578:	48 89 c7             	mov    %rax,%rdi
    157b:	e8 00 fc ff ff       	callq  1180 <_ZNSt7__cxx1112basic_stringIcSt11char_traitsIcESaIcEEixEm@plt>
    1580:	0f b6 00             	movzbl (%rax),%eax
    1583:	0f be c0             	movsbl %al,%eax
    1586:	83 e8 30             	sub    $0x30,%eax
    1589:	89 45 a8             	mov    %eax,-0x58(%rbp)
    158c:	8b 55 ac             	mov    -0x54(%rbp),%edx
    158f:	8b 45 a8             	mov    -0x58(%rbp),%eax
    1592:	8d 0c 02             	lea    (%rdx,%rax,1),%ecx
    1595:	48 63 c1             	movslq %ecx,%rax
    1598:	48 69 c0 67 66 66 66 	imul   $0x66666667,%rax,%rax
    159f:	48 c1 e8 20          	shr    $0x20,%rax
    15a3:	89 c2                	mov    %eax,%edx
    15a5:	c1 fa 02             	sar    $0x2,%edx
    15a8:	89 c8                	mov    %ecx,%eax
    15aa:	c1 f8 1f             	sar    $0x1f,%eax
    15ad:	29 c2                	sub    %eax,%edx
    15af:	89 d0                	mov    %edx,%eax
    15b1:	c1 e0 02             	shl    $0x2,%eax
    15b4:	01 d0                	add    %edx,%eax
    15b6:	01 c0                	add    %eax,%eax
    15b8:	29 c1                	sub    %eax,%ecx
    15ba:	89 ca                	mov    %ecx,%edx
    15bc:	8b 45 ec             	mov    -0x14(%rbp),%eax
    15bf:	8d 0c 02             	lea    (%rdx,%rax,1),%ecx
    15c2:	48 63 c1             	movslq %ecx,%rax
    15c5:	48 69 c0 67 66 66 66 	imul   $0x66666667,%rax,%rax
    15cc:	48 c1 e8 20          	shr    $0x20,%rax
    15d0:	89 c2                	mov    %eax,%edx
    15d2:	c1 fa 02             	sar    $0x2,%edx
    15d5:	89 c8                	mov    %ecx,%eax
    15d7:	c1 f8 1f             	sar    $0x1f,%eax
    15da:	29 c2                	sub    %eax,%edx
    15dc:	89 d0                	mov    %edx,%eax
    15de:	c1 e0 02             	shl    $0x2,%eax
    15e1:	01 d0                	add    %edx,%eax
    15e3:	01 c0                	add    %eax,%eax
    15e5:	29 c1                	sub    %eax,%ecx
    15e7:	89 ca                	mov    %ecx,%edx
    15e9:	89 55 8c             	mov    %edx,-0x74(%rbp)
    15ec:	48 8d 55 8c          	lea    -0x74(%rbp),%rdx
    15f0:	48 8d 85 70 ff ff ff 	lea    -0x90(%rbp),%rax
    15f7:	48 89 d6             	mov    %rdx,%rsi
    15fa:	48 89 c7             	mov    %rax,%rdi
    15fd:	e8 7e 0a 00 00       	callq  2080 <_ZNSt6vectorIiSaIiEE9push_backEOi>
    1602:	8b 55 ac             	mov    -0x54(%rbp),%edx
    1605:	8b 45 a8             	mov    -0x58(%rbp),%eax
    1608:	8d 0c 02             	lea    (%rdx,%rax,1),%ecx
    160b:	48 63 c1             	movslq %ecx,%rax
    160e:	48 69 c0 67 66 66 66 	imul   $0x66666667,%rax,%rax
    1615:	48 c1 e8 20          	shr    $0x20,%rax
    1619:	89 c2                	mov    %eax,%edx
    161b:	c1 fa 02             	sar    $0x2,%edx
    161e:	89 c8                	mov    %ecx,%eax
    1620:	c1 f8 1f             	sar    $0x1f,%eax
    1623:	29 c2                	sub    %eax,%edx
    1625:	89 d0                	mov    %edx,%eax
    1627:	c1 e0 02             	shl    $0x2,%eax
    162a:	01 d0                	add    %edx,%eax
    162c:	01 c0                	add    %eax,%eax
    162e:	29 c1                	sub    %eax,%ecx
    1630:	89 ca                	mov    %ecx,%edx
    1632:	8b 45 ec             	mov    -0x14(%rbp),%eax
    1635:	01 d0                	add    %edx,%eax
    1637:	83 f8 09             	cmp    $0x9,%eax
    163a:	0f 8e 84 00 00 00    	jle    16c4 <main+0x272>
    1640:	8b 55 ac             	mov    -0x54(%rbp),%edx
    1643:	8b 45 a8             	mov    -0x58(%rbp),%eax
    1646:	8d 0c 02             	lea    (%rdx,%rax,1),%ecx
    1649:	48 63 c1             	movslq %ecx,%rax
    164c:	48 69 c0 67 66 66 66 	imul   $0x66666667,%rax,%rax
    1653:	48 c1 e8 20          	shr    $0x20,%rax
    1657:	89 c2                	mov    %eax,%edx
    1659:	c1 fa 02             	sar    $0x2,%edx
    165c:	89 c8                	mov    %ecx,%eax
    165e:	c1 f8 1f             	sar    $0x1f,%eax
    1661:	29 c2                	sub    %eax,%edx
    1663:	89 d0                	mov    %edx,%eax
    1665:	c1 e0 02             	shl    $0x2,%eax
    1668:	01 d0                	add    %edx,%eax
    166a:	01 c0                	add    %eax,%eax
    166c:	29 c1                	sub    %eax,%ecx
    166e:	89 ca                	mov    %ecx,%edx
    1670:	8b 45 ec             	mov    -0x14(%rbp),%eax
    1673:	8d 0c 02             	lea    (%rdx,%rax,1),%ecx
    1676:	48 63 c1             	movslq %ecx,%rax
    1679:	48 69 c0 67 66 66 66 	imul   $0x66666667,%rax,%rax
    1680:	48 c1 e8 20          	shr    $0x20,%rax
    1684:	89 c2                	mov    %eax,%edx
    1686:	c1 fa 02             	sar    $0x2,%edx
    1689:	89 c8                	mov    %ecx,%eax
    168b:	c1 f8 1f             	sar    $0x1f,%eax
    168e:	29 c2                	sub    %eax,%edx
    1690:	89 d0                	mov    %edx,%eax
    1692:	c1 e0 02             	shl    $0x2,%eax
    1695:	01 d0                	add    %edx,%eax
    1697:	01 c0                	add    %eax,%eax
    1699:	29 c1                	sub    %eax,%ecx
    169b:	89 ca                	mov    %ecx,%edx
    169d:	8b 4d ac             	mov    -0x54(%rbp),%ecx
    16a0:	8b 45 a8             	mov    -0x58(%rbp),%eax
    16a3:	01 c8                	add    %ecx,%eax
    16a5:	48 63 c8             	movslq %eax,%rcx
    16a8:	48 69 c9 67 66 66 66 	imul   $0x66666667,%rcx,%rcx
    16af:	48 c1 e9 20          	shr    $0x20,%rcx
    16b3:	c1 f9 02             	sar    $0x2,%ecx
    16b6:	c1 f8 1f             	sar    $0x1f,%eax
    16b9:	29 c1                	sub    %eax,%ecx
    16bb:	89 c8                	mov    %ecx,%eax
    16bd:	01 d0                	add    %edx,%eax
    16bf:	89 45 ec             	mov    %eax,-0x14(%rbp)
    16c2:	eb 23                	jmp    16e7 <main+0x295>
    16c4:	8b 55 ac             	mov    -0x54(%rbp),%edx
    16c7:	8b 45 a8             	mov    -0x58(%rbp),%eax
    16ca:	01 d0                	add    %edx,%eax
    16cc:	48 63 d0             	movslq %eax,%rdx
    16cf:	48 69 d2 67 66 66 66 	imul   $0x66666667,%rdx,%rdx
    16d6:	48 c1 ea 20          	shr    $0x20,%rdx
    16da:	c1 fa 02             	sar    $0x2,%edx
    16dd:	c1 f8 1f             	sar    $0x1f,%eax
    16e0:	29 c2                	sub    %eax,%edx
    16e2:	89 d0                	mov    %edx,%eax
    16e4:	89 45 ec             	mov    %eax,-0x14(%rbp)
    16e7:	83 45 e8 01          	addl   $0x1,-0x18(%rbp)
    16eb:	e9 48 fe ff ff       	jmpq   1538 <main+0xe6>
    16f0:	8b 45 c4             	mov    -0x3c(%rbp),%eax
    16f3:	89 45 e4             	mov    %eax,-0x1c(%rbp)
    16f6:	8b 45 e4             	mov    -0x1c(%rbp),%eax
    16f9:	3b 45 c0             	cmp    -0x40(%rbp),%eax
    16fc:	0f 8d 8c 00 00 00    	jge    178e <main+0x33c>
    1702:	8b 45 e4             	mov    -0x1c(%rbp),%eax
    1705:	3b 45 c4             	cmp    -0x3c(%rbp),%eax
    1708:	75 41                	jne    174b <main+0x2f9>
    170a:	8b 45 e4             	mov    -0x1c(%rbp),%eax
    170d:	48 63 d0             	movslq %eax,%rdx
    1710:	48 8d 85 00 ff ff ff 	lea    -0x100(%rbp),%rax
    1717:	48 89 d6             	mov    %rdx,%rsi
    171a:	48 89 c7             	mov    %rax,%rdi
    171d:	e8 5e fa ff ff       	callq  1180 <_ZNSt7__cxx1112basic_stringIcSt11char_traitsIcESaIcEEixEm@plt>
    1722:	0f b6 00             	movzbl (%rax),%eax
    1725:	0f be c0             	movsbl %al,%eax
    1728:	8d 50 d0             	lea    -0x30(%rax),%edx
    172b:	8b 45 ec             	mov    -0x14(%rbp),%eax
    172e:	01 d0                	add    %edx,%eax
    1730:	89 45 90             	mov    %eax,-0x70(%rbp)
    1733:	48 8d 55 90          	lea    -0x70(%rbp),%rdx
    1737:	48 8d 85 70 ff ff ff 	lea    -0x90(%rbp),%rax
    173e:	48 89 d6             	mov    %rdx,%rsi
    1741:	48 89 c7             	mov    %rax,%rdi
    1744:	e8 37 09 00 00       	callq  2080 <_ZNSt6vectorIiSaIiEE9push_backEOi>
    1749:	eb 3a                	jmp    1785 <main+0x333>
    174b:	8b 45 e4             	mov    -0x1c(%rbp),%eax
    174e:	48 63 d0             	movslq %eax,%rdx
    1751:	48 8d 85 00 ff ff ff 	lea    -0x100(%rbp),%rax
    1758:	48 89 d6             	mov    %rdx,%rsi
    175b:	48 89 c7             	mov    %rax,%rdi
    175e:	e8 1d fa ff ff       	callq  1180 <_ZNSt7__cxx1112basic_stringIcSt11char_traitsIcESaIcEEixEm@plt>
    1763:	0f b6 00             	movzbl (%rax),%eax
    1766:	0f be c0             	movsbl %al,%eax
    1769:	83 e8 30             	sub    $0x30,%eax
    176c:	89 45 94             	mov    %eax,-0x6c(%rbp)
    176f:	48 8d 55 94          	lea    -0x6c(%rbp),%rdx
    1773:	48 8d 85 70 ff ff ff 	lea    -0x90(%rbp),%rax
    177a:	48 89 d6             	mov    %rdx,%rsi
    177d:	48 89 c7             	mov    %rax,%rdi
    1780:	e8 fb 08 00 00       	callq  2080 <_ZNSt6vectorIiSaIiEE9push_backEOi>
    1785:	83 45 e4 01          	addl   $0x1,-0x1c(%rbp)
    1789:	e9 68 ff ff ff       	jmpq   16f6 <main+0x2a4>
    178e:	c7 45 e0 00 00 00 00 	movl   $0x0,-0x20(%rbp)
    1795:	8b 45 e0             	mov    -0x20(%rbp),%eax
    1798:	48 63 d8             	movslq %eax,%rbx
    179b:	48 8d 85 70 ff ff ff 	lea    -0x90(%rbp),%rax
    17a2:	48 89 c7             	mov    %rax,%rdi
    17a5:	e8 08 09 00 00       	callq  20b2 <_ZNKSt6vectorIiSaIiEE4sizeEv>
    17aa:	48 39 c3             	cmp    %rax,%rbx
    17ad:	0f 92 c0             	setb   %al
    17b0:	84 c0                	test   %al,%al
    17b2:	74 2e                	je     17e2 <main+0x390>
    17b4:	8b 45 e0             	mov    -0x20(%rbp),%eax
    17b7:	48 63 d0             	movslq %eax,%rdx
    17ba:	48 8d 85 70 ff ff ff 	lea    -0x90(%rbp),%rax
    17c1:	48 89 d6             	mov    %rdx,%rsi
    17c4:	48 89 c7             	mov    %rax,%rdi
    17c7:	e8 0a 09 00 00       	callq  20d6 <_ZNSt6vectorIiSaIiEEixEm>
    17cc:	8b 00                	mov    (%rax),%eax
    17ce:	89 c6                	mov    %eax,%esi
    17d0:	48 8d 3d 29 59 00 00 	lea    0x5929(%rip),%rdi        # 7100 <_ZSt4cout@@GLIBCXX_3.4>
    17d7:	e8 84 f9 ff ff       	callq  1160 <_ZNSolsEi@plt>
    17dc:	83 45 e0 01          	addl   $0x1,-0x20(%rbp)
    17e0:	eb b3                	jmp    1795 <main+0x343>
    17e2:	48 8b 05 e7 57 00 00 	mov    0x57e7(%rip),%rax        # 6fd0 <_ZSt4endlIcSt11char_traitsIcEERSt13basic_ostreamIT_T0_ES6_@GLIBCXX_3.4>
    17e9:	48 89 c6             	mov    %rax,%rsi
    17ec:	48 8d 3d 0d 59 00 00 	lea    0x590d(%rip),%rdi        # 7100 <_ZSt4cout@@GLIBCXX_3.4>
    17f3:	e8 f8 f8 ff ff       	callq  10f0 <_ZNSolsEPFRSoS_E@plt>
    17f8:	48 8d 85 70 ff ff ff 	lea    -0x90(%rbp),%rax
    17ff:	48 89 c7             	mov    %rax,%rdi
    1802:	e8 35 08 00 00       	callq  203c <_ZNSt6vectorIiSaIiEED1Ev>
    1807:	e9 3e 06 00 00       	jmpq   1e4a <main+0x9f8>
    180c:	8b 45 c0             	mov    -0x40(%rbp),%eax
    180f:	3b 45 c4             	cmp    -0x3c(%rbp),%eax
    1812:	0f 8d f1 02 00 00    	jge    1b09 <main+0x6b7>
    1818:	48 8d 85 50 ff ff ff 	lea    -0xb0(%rbp),%rax
    181f:	48 89 c7             	mov    %rax,%rdi
    1822:	e8 67 07 00 00       	callq  1f8e <_ZNSt6vectorIiSaIiEEC1Ev>
    1827:	c7 45 dc 00 00 00 00 	movl   $0x0,-0x24(%rbp)
    182e:	c7 45 d8 00 00 00 00 	movl   $0x0,-0x28(%rbp)
    1835:	8b 45 d8             	mov    -0x28(%rbp),%eax
    1838:	3b 45 c0             	cmp    -0x40(%rbp),%eax
    183b:	0f 8d ac 01 00 00    	jge    19ed <main+0x59b>
    1841:	8b 45 d8             	mov    -0x28(%rbp),%eax
    1844:	48 63 d0             	movslq %eax,%rdx
    1847:	48 8d 85 e0 fe ff ff 	lea    -0x120(%rbp),%rax
    184e:	48 89 d6             	mov    %rdx,%rsi
    1851:	48 89 c7             	mov    %rax,%rdi
    1854:	e8 27 f9 ff ff       	callq  1180 <_ZNSt7__cxx1112basic_stringIcSt11char_traitsIcESaIcEEixEm@plt>
    1859:	0f b6 00             	movzbl (%rax),%eax
    185c:	0f be c0             	movsbl %al,%eax
    185f:	83 e8 30             	sub    $0x30,%eax
    1862:	89 45 b4             	mov    %eax,-0x4c(%rbp)
    1865:	8b 45 d8             	mov    -0x28(%rbp),%eax
    1868:	48 63 d0             	movslq %eax,%rdx
    186b:	48 8d 85 00 ff ff ff 	lea    -0x100(%rbp),%rax
    1872:	48 89 d6             	mov    %rdx,%rsi
    1875:	48 89 c7             	mov    %rax,%rdi
    1878:	e8 03 f9 ff ff       	callq  1180 <_ZNSt7__cxx1112basic_stringIcSt11char_traitsIcESaIcEEixEm@plt>
    187d:	0f b6 00             	movzbl (%rax),%eax
    1880:	0f be c0             	movsbl %al,%eax
    1883:	83 e8 30             	sub    $0x30,%eax
    1886:	89 45 b0             	mov    %eax,-0x50(%rbp)
    1889:	8b 55 b4             	mov    -0x4c(%rbp),%edx
    188c:	8b 45 b0             	mov    -0x50(%rbp),%eax
    188f:	8d 0c 02             	lea    (%rdx,%rax,1),%ecx
    1892:	48 63 c1             	movslq %ecx,%rax
    1895:	48 69 c0 67 66 66 66 	imul   $0x66666667,%rax,%rax
    189c:	48 c1 e8 20          	shr    $0x20,%rax
    18a0:	89 c2                	mov    %eax,%edx
    18a2:	c1 fa 02             	sar    $0x2,%edx
    18a5:	89 c8                	mov    %ecx,%eax
    18a7:	c1 f8 1f             	sar    $0x1f,%eax
    18aa:	29 c2                	sub    %eax,%edx
    18ac:	89 d0                	mov    %edx,%eax
    18ae:	c1 e0 02             	shl    $0x2,%eax
    18b1:	01 d0                	add    %edx,%eax
    18b3:	01 c0                	add    %eax,%eax
    18b5:	29 c1                	sub    %eax,%ecx
    18b7:	89 ca                	mov    %ecx,%edx
    18b9:	8b 45 dc             	mov    -0x24(%rbp),%eax
    18bc:	8d 0c 02             	lea    (%rdx,%rax,1),%ecx
    18bf:	48 63 c1             	movslq %ecx,%rax
    18c2:	48 69 c0 67 66 66 66 	imul   $0x66666667,%rax,%rax
    18c9:	48 c1 e8 20          	shr    $0x20,%rax
    18cd:	89 c2                	mov    %eax,%edx
    18cf:	c1 fa 02             	sar    $0x2,%edx
    18d2:	89 c8                	mov    %ecx,%eax
    18d4:	c1 f8 1f             	sar    $0x1f,%eax
    18d7:	29 c2                	sub    %eax,%edx
    18d9:	89 d0                	mov    %edx,%eax
    18db:	c1 e0 02             	shl    $0x2,%eax
    18de:	01 d0                	add    %edx,%eax
    18e0:	01 c0                	add    %eax,%eax
    18e2:	29 c1                	sub    %eax,%ecx
    18e4:	89 ca                	mov    %ecx,%edx
    18e6:	89 55 98             	mov    %edx,-0x68(%rbp)
    18e9:	48 8d 55 98          	lea    -0x68(%rbp),%rdx
    18ed:	48 8d 85 50 ff ff ff 	lea    -0xb0(%rbp),%rax
    18f4:	48 89 d6             	mov    %rdx,%rsi
    18f7:	48 89 c7             	mov    %rax,%rdi
    18fa:	e8 81 07 00 00       	callq  2080 <_ZNSt6vectorIiSaIiEE9push_backEOi>
    18ff:	8b 55 b4             	mov    -0x4c(%rbp),%edx
    1902:	8b 45 b0             	mov    -0x50(%rbp),%eax
    1905:	8d 0c 02             	lea    (%rdx,%rax,1),%ecx
    1908:	48 63 c1             	movslq %ecx,%rax
    190b:	48 69 c0 67 66 66 66 	imul   $0x66666667,%rax,%rax
    1912:	48 c1 e8 20          	shr    $0x20,%rax
    1916:	89 c2                	mov    %eax,%edx
    1918:	c1 fa 02             	sar    $0x2,%edx
    191b:	89 c8                	mov    %ecx,%eax
    191d:	c1 f8 1f             	sar    $0x1f,%eax
    1920:	29 c2                	sub    %eax,%edx
    1922:	89 d0                	mov    %edx,%eax
    1924:	c1 e0 02             	shl    $0x2,%eax
    1927:	01 d0                	add    %edx,%eax
    1929:	01 c0                	add    %eax,%eax
    192b:	29 c1                	sub    %eax,%ecx
    192d:	89 ca                	mov    %ecx,%edx
    192f:	8b 45 dc             	mov    -0x24(%rbp),%eax
    1932:	01 d0                	add    %edx,%eax
    1934:	83 f8 09             	cmp    $0x9,%eax
    1937:	0f 8e 84 00 00 00    	jle    19c1 <main+0x56f>
    193d:	8b 55 b4             	mov    -0x4c(%rbp),%edx
    1940:	8b 45 b0             	mov    -0x50(%rbp),%eax
    1943:	8d 0c 02             	lea    (%rdx,%rax,1),%ecx
    1946:	48 63 c1             	movslq %ecx,%rax
    1949:	48 69 c0 67 66 66 66 	imul   $0x66666667,%rax,%rax
    1950:	48 c1 e8 20          	shr    $0x20,%rax
    1954:	89 c2                	mov    %eax,%edx
    1956:	c1 fa 02             	sar    $0x2,%edx
    1959:	89 c8                	mov    %ecx,%eax
    195b:	c1 f8 1f             	sar    $0x1f,%eax
    195e:	29 c2                	sub    %eax,%edx
    1960:	89 d0                	mov    %edx,%eax
    1962:	c1 e0 02             	shl    $0x2,%eax
    1965:	01 d0                	add    %edx,%eax
    1967:	01 c0                	add    %eax,%eax
    1969:	29 c1                	sub    %eax,%ecx
    196b:	89 ca                	mov    %ecx,%edx
    196d:	8b 45 dc             	mov    -0x24(%rbp),%eax
    1970:	8d 0c 02             	lea    (%rdx,%rax,1),%ecx
    1973:	48 63 c1             	movslq %ecx,%rax
    1976:	48 69 c0 67 66 66 66 	imul   $0x66666667,%rax,%rax
    197d:	48 c1 e8 20          	shr    $0x20,%rax
    1981:	89 c2                	mov    %eax,%edx
    1983:	c1 fa 02             	sar    $0x2,%edx
    1986:	89 c8                	mov    %ecx,%eax
    1988:	c1 f8 1f             	sar    $0x1f,%eax
    198b:	29 c2                	sub    %eax,%edx
    198d:	89 d0                	mov    %edx,%eax
    198f:	c1 e0 02             	shl    $0x2,%eax
    1992:	01 d0                	add    %edx,%eax
    1994:	01 c0                	add    %eax,%eax
    1996:	29 c1                	sub    %eax,%ecx
    1998:	89 ca                	mov    %ecx,%edx
    199a:	8b 4d b4             	mov    -0x4c(%rbp),%ecx
    199d:	8b 45 b0             	mov    -0x50(%rbp),%eax
    19a0:	01 c8                	add    %ecx,%eax
    19a2:	48 63 c8             	movslq %eax,%rcx
    19a5:	48 69 c9 67 66 66 66 	imul   $0x66666667,%rcx,%rcx
    19ac:	48 c1 e9 20          	shr    $0x20,%rcx
    19b0:	c1 f9 02             	sar    $0x2,%ecx
    19b3:	c1 f8 1f             	sar    $0x1f,%eax
    19b6:	29 c1                	sub    %eax,%ecx
    19b8:	89 c8                	mov    %ecx,%eax
    19ba:	01 d0                	add    %edx,%eax
    19bc:	89 45 dc             	mov    %eax,-0x24(%rbp)
    19bf:	eb 23                	jmp    19e4 <main+0x592>
    19c1:	8b 55 b4             	mov    -0x4c(%rbp),%edx
    19c4:	8b 45 b0             	mov    -0x50(%rbp),%eax
    19c7:	01 d0                	add    %edx,%eax
    19c9:	48 63 d0             	movslq %eax,%rdx
    19cc:	48 69 d2 67 66 66 66 	imul   $0x66666667,%rdx,%rdx
    19d3:	48 c1 ea 20          	shr    $0x20,%rdx
    19d7:	c1 fa 02             	sar    $0x2,%edx
    19da:	c1 f8 1f             	sar    $0x1f,%eax
    19dd:	29 c2                	sub    %eax,%edx
    19df:	89 d0                	mov    %edx,%eax
    19e1:	89 45 dc             	mov    %eax,-0x24(%rbp)
    19e4:	83 45 d8 01          	addl   $0x1,-0x28(%rbp)
    19e8:	e9 48 fe ff ff       	jmpq   1835 <main+0x3e3>
    19ed:	8b 45 c0             	mov    -0x40(%rbp),%eax
    19f0:	89 45 d4             	mov    %eax,-0x2c(%rbp)
    19f3:	8b 45 d4             	mov    -0x2c(%rbp),%eax
    19f6:	3b 45 c4             	cmp    -0x3c(%rbp),%eax
    19f9:	0f 8d 8c 00 00 00    	jge    1a8b <main+0x639>
    19ff:	8b 45 d4             	mov    -0x2c(%rbp),%eax
    1a02:	3b 45 c0             	cmp    -0x40(%rbp),%eax
    1a05:	75 41                	jne    1a48 <main+0x5f6>
    1a07:	8b 45 d4             	mov    -0x2c(%rbp),%eax
    1a0a:	48 63 d0             	movslq %eax,%rdx
    1a0d:	48 8d 85 e0 fe ff ff 	lea    -0x120(%rbp),%rax
    1a14:	48 89 d6             	mov    %rdx,%rsi
    1a17:	48 89 c7             	mov    %rax,%rdi
    1a1a:	e8 61 f7 ff ff       	callq  1180 <_ZNSt7__cxx1112basic_stringIcSt11char_traitsIcESaIcEEixEm@plt>
    1a1f:	0f b6 00             	movzbl (%rax),%eax
    1a22:	0f be c0             	movsbl %al,%eax
    1a25:	8d 50 d0             	lea    -0x30(%rax),%edx
    1a28:	8b 45 dc             	mov    -0x24(%rbp),%eax
    1a2b:	01 d0                	add    %edx,%eax
    1a2d:	89 45 9c             	mov    %eax,-0x64(%rbp)
    1a30:	48 8d 55 9c          	lea    -0x64(%rbp),%rdx
    1a34:	48 8d 85 50 ff ff ff 	lea    -0xb0(%rbp),%rax
    1a3b:	48 89 d6             	mov    %rdx,%rsi
    1a3e:	48 89 c7             	mov    %rax,%rdi
    1a41:	e8 3a 06 00 00       	callq  2080 <_ZNSt6vectorIiSaIiEE9push_backEOi>
    1a46:	eb 3a                	jmp    1a82 <main+0x630>
    1a48:	8b 45 d4             	mov    -0x2c(%rbp),%eax
    1a4b:	48 63 d0             	movslq %eax,%rdx
    1a4e:	48 8d 85 00 ff ff ff 	lea    -0x100(%rbp),%rax
    1a55:	48 89 d6             	mov    %rdx,%rsi
    1a58:	48 89 c7             	mov    %rax,%rdi
    1a5b:	e8 20 f7 ff ff       	callq  1180 <_ZNSt7__cxx1112basic_stringIcSt11char_traitsIcESaIcEEixEm@plt>
    1a60:	0f b6 00             	movzbl (%rax),%eax
    1a63:	0f be c0             	movsbl %al,%eax
    1a66:	83 e8 30             	sub    $0x30,%eax
    1a69:	89 45 a0             	mov    %eax,-0x60(%rbp)
    1a6c:	48 8d 55 a0          	lea    -0x60(%rbp),%rdx
    1a70:	48 8d 85 50 ff ff ff 	lea    -0xb0(%rbp),%rax
    1a77:	48 89 d6             	mov    %rdx,%rsi
    1a7a:	48 89 c7             	mov    %rax,%rdi
    1a7d:	e8 fe 05 00 00       	callq  2080 <_ZNSt6vectorIiSaIiEE9push_backEOi>
    1a82:	83 45 d4 01          	addl   $0x1,-0x2c(%rbp)
    1a86:	e9 68 ff ff ff       	jmpq   19f3 <main+0x5a1>
    1a8b:	c7 45 d0 00 00 00 00 	movl   $0x0,-0x30(%rbp)
    1a92:	8b 45 d0             	mov    -0x30(%rbp),%eax
    1a95:	48 63 d8             	movslq %eax,%rbx
    1a98:	48 8d 85 50 ff ff ff 	lea    -0xb0(%rbp),%rax
    1a9f:	48 89 c7             	mov    %rax,%rdi
    1aa2:	e8 0b 06 00 00       	callq  20b2 <_ZNKSt6vectorIiSaIiEE4sizeEv>
    1aa7:	48 39 c3             	cmp    %rax,%rbx
    1aaa:	0f 92 c0             	setb   %al
    1aad:	84 c0                	test   %al,%al
    1aaf:	74 2e                	je     1adf <main+0x68d>
    1ab1:	8b 45 d0             	mov    -0x30(%rbp),%eax
    1ab4:	48 63 d0             	movslq %eax,%rdx
    1ab7:	48 8d 85 50 ff ff ff 	lea    -0xb0(%rbp),%rax
    1abe:	48 89 d6             	mov    %rdx,%rsi
    1ac1:	48 89 c7             	mov    %rax,%rdi
    1ac4:	e8 0d 06 00 00       	callq  20d6 <_ZNSt6vectorIiSaIiEEixEm>
    1ac9:	8b 00                	mov    (%rax),%eax
    1acb:	89 c6                	mov    %eax,%esi
    1acd:	48 8d 3d 2c 56 00 00 	lea    0x562c(%rip),%rdi        # 7100 <_ZSt4cout@@GLIBCXX_3.4>
    1ad4:	e8 87 f6 ff ff       	callq  1160 <_ZNSolsEi@plt>
    1ad9:	83 45 d0 01          	addl   $0x1,-0x30(%rbp)
    1add:	eb b3                	jmp    1a92 <main+0x640>
    1adf:	48 8b 05 ea 54 00 00 	mov    0x54ea(%rip),%rax        # 6fd0 <_ZSt4endlIcSt11char_traitsIcEERSt13basic_ostreamIT_T0_ES6_@GLIBCXX_3.4>
    1ae6:	48 89 c6             	mov    %rax,%rsi
    1ae9:	48 8d 3d 10 56 00 00 	lea    0x5610(%rip),%rdi        # 7100 <_ZSt4cout@@GLIBCXX_3.4>
    1af0:	e8 fb f5 ff ff       	callq  10f0 <_ZNSolsEPFRSoS_E@plt>
    1af5:	48 8d 85 50 ff ff ff 	lea    -0xb0(%rbp),%rax
    1afc:	48 89 c7             	mov    %rax,%rdi
    1aff:	e8 38 05 00 00       	callq  203c <_ZNSt6vectorIiSaIiEED1Ev>
    1b04:	e9 41 03 00 00       	jmpq   1e4a <main+0x9f8>
    1b09:	48 8d 85 30 ff ff ff 	lea    -0xd0(%rbp),%rax
    1b10:	48 89 c7             	mov    %rax,%rdi
    1b13:	e8 76 04 00 00       	callq  1f8e <_ZNSt6vectorIiSaIiEEC1Ev>
    1b18:	c7 85 2c ff ff ff 00 	movl   $0x0,-0xd4(%rbp)
    1b1f:	00 00 00 
    1b22:	c7 45 cc 00 00 00 00 	movl   $0x0,-0x34(%rbp)
    1b29:	8b 45 cc             	mov    -0x34(%rbp),%eax
    1b2c:	3b 45 c4             	cmp    -0x3c(%rbp),%eax
    1b2f:	0f 8d 79 02 00 00    	jge    1dae <main+0x95c>
    1b35:	8b 45 cc             	mov    -0x34(%rbp),%eax
    1b38:	48 63 d0             	movslq %eax,%rdx
    1b3b:	48 8d 85 e0 fe ff ff 	lea    -0x120(%rbp),%rax
    1b42:	48 89 d6             	mov    %rdx,%rsi
    1b45:	48 89 c7             	mov    %rax,%rdi
    1b48:	e8 33 f6 ff ff       	callq  1180 <_ZNSt7__cxx1112basic_stringIcSt11char_traitsIcESaIcEEixEm@plt>
    1b4d:	0f b6 00             	movzbl (%rax),%eax
    1b50:	0f be c0             	movsbl %al,%eax
    1b53:	83 e8 30             	sub    $0x30,%eax
    1b56:	89 45 bc             	mov    %eax,-0x44(%rbp)
    1b59:	8b 45 cc             	mov    -0x34(%rbp),%eax
    1b5c:	48 63 d0             	movslq %eax,%rdx
    1b5f:	48 8d 85 00 ff ff ff 	lea    -0x100(%rbp),%rax
    1b66:	48 89 d6             	mov    %rdx,%rsi
    1b69:	48 89 c7             	mov    %rax,%rdi
    1b6c:	e8 0f f6 ff ff       	callq  1180 <_ZNSt7__cxx1112basic_stringIcSt11char_traitsIcESaIcEEixEm@plt>
    1b71:	0f b6 00             	movzbl (%rax),%eax
    1b74:	0f be c0             	movsbl %al,%eax
    1b77:	83 e8 30             	sub    $0x30,%eax
    1b7a:	89 45 b8             	mov    %eax,-0x48(%rbp)
    1b7d:	8b 55 bc             	mov    -0x44(%rbp),%edx
    1b80:	8b 45 b8             	mov    -0x48(%rbp),%eax
    1b83:	8d 0c 02             	lea    (%rdx,%rax,1),%ecx
    1b86:	48 63 c1             	movslq %ecx,%rax
    1b89:	48 69 c0 67 66 66 66 	imul   $0x66666667,%rax,%rax
    1b90:	48 c1 e8 20          	shr    $0x20,%rax
    1b94:	89 c2                	mov    %eax,%edx
    1b96:	c1 fa 02             	sar    $0x2,%edx
    1b99:	89 c8                	mov    %ecx,%eax
    1b9b:	c1 f8 1f             	sar    $0x1f,%eax
    1b9e:	29 c2                	sub    %eax,%edx
    1ba0:	89 d0                	mov    %edx,%eax
    1ba2:	c1 e0 02             	shl    $0x2,%eax
    1ba5:	01 d0                	add    %edx,%eax
    1ba7:	01 c0                	add    %eax,%eax
    1ba9:	29 c1                	sub    %eax,%ecx
    1bab:	89 ca                	mov    %ecx,%edx
    1bad:	8b 85 2c ff ff ff    	mov    -0xd4(%rbp),%eax
    1bb3:	8d 0c 02             	lea    (%rdx,%rax,1),%ecx
    1bb6:	48 63 c1             	movslq %ecx,%rax
    1bb9:	48 69 c0 67 66 66 66 	imul   $0x66666667,%rax,%rax
    1bc0:	48 c1 e8 20          	shr    $0x20,%rax
    1bc4:	89 c2                	mov    %eax,%edx
    1bc6:	c1 fa 02             	sar    $0x2,%edx
    1bc9:	89 c8                	mov    %ecx,%eax
    1bcb:	c1 f8 1f             	sar    $0x1f,%eax
    1bce:	29 c2                	sub    %eax,%edx
    1bd0:	89 d0                	mov    %edx,%eax
    1bd2:	c1 e0 02             	shl    $0x2,%eax
    1bd5:	01 d0                	add    %edx,%eax
    1bd7:	01 c0                	add    %eax,%eax
    1bd9:	29 c1                	sub    %eax,%ecx
    1bdb:	89 ca                	mov    %ecx,%edx
    1bdd:	89 55 a4             	mov    %edx,-0x5c(%rbp)
    1be0:	48 8d 55 a4          	lea    -0x5c(%rbp),%rdx
    1be4:	48 8d 85 30 ff ff ff 	lea    -0xd0(%rbp),%rax
    1beb:	48 89 d6             	mov    %rdx,%rsi
    1bee:	48 89 c7             	mov    %rax,%rdi
    1bf1:	e8 8a 04 00 00       	callq  2080 <_ZNSt6vectorIiSaIiEE9push_backEOi>
    1bf6:	8b 55 bc             	mov    -0x44(%rbp),%edx
    1bf9:	8b 45 b8             	mov    -0x48(%rbp),%eax
    1bfc:	8d 0c 02             	lea    (%rdx,%rax,1),%ecx
    1bff:	48 63 c1             	movslq %ecx,%rax
    1c02:	48 69 c0 67 66 66 66 	imul   $0x66666667,%rax,%rax
    1c09:	48 c1 e8 20          	shr    $0x20,%rax
    1c0d:	89 c2                	mov    %eax,%edx
    1c0f:	c1 fa 02             	sar    $0x2,%edx
    1c12:	89 c8                	mov    %ecx,%eax
    1c14:	c1 f8 1f             	sar    $0x1f,%eax
    1c17:	29 c2                	sub    %eax,%edx
    1c19:	89 d0                	mov    %edx,%eax
    1c1b:	c1 e0 02             	shl    $0x2,%eax
    1c1e:	01 d0                	add    %edx,%eax
    1c20:	01 c0                	add    %eax,%eax
    1c22:	29 c1                	sub    %eax,%ecx
    1c24:	89 ca                	mov    %ecx,%edx
    1c26:	8b 85 2c ff ff ff    	mov    -0xd4(%rbp),%eax
    1c2c:	8d 0c 02             	lea    (%rdx,%rax,1),%ecx
    1c2f:	48 63 c1             	movslq %ecx,%rax
    1c32:	48 69 c0 67 66 66 66 	imul   $0x66666667,%rax,%rax
    1c39:	48 c1 e8 20          	shr    $0x20,%rax
    1c3d:	89 c2                	mov    %eax,%edx
    1c3f:	c1 fa 02             	sar    $0x2,%edx
    1c42:	89 c8                	mov    %ecx,%eax
    1c44:	c1 f8 1f             	sar    $0x1f,%eax
    1c47:	29 c2                	sub    %eax,%edx
    1c49:	89 d0                	mov    %edx,%eax
    1c4b:	c1 e0 02             	shl    $0x2,%eax
    1c4e:	01 d0                	add    %edx,%eax
    1c50:	01 c0                	add    %eax,%eax
    1c52:	29 c1                	sub    %eax,%ecx
    1c54:	89 ca                	mov    %ecx,%edx
    1c56:	89 d6                	mov    %edx,%esi
    1c58:	48 8d 3d a1 54 00 00 	lea    0x54a1(%rip),%rdi        # 7100 <_ZSt4cout@@GLIBCXX_3.4>
    1c5f:	e8 fc f4 ff ff       	callq  1160 <_ZNSolsEi@plt>
    1c64:	48 89 c2             	mov    %rax,%rdx
    1c67:	48 8b 05 62 53 00 00 	mov    0x5362(%rip),%rax        # 6fd0 <_ZSt4endlIcSt11char_traitsIcEERSt13basic_ostreamIT_T0_ES6_@GLIBCXX_3.4>
    1c6e:	48 89 c6             	mov    %rax,%rsi
    1c71:	48 89 d7             	mov    %rdx,%rdi
    1c74:	e8 77 f4 ff ff       	callq  10f0 <_ZNSolsEPFRSoS_E@plt>
    1c79:	8b 55 bc             	mov    -0x44(%rbp),%edx
    1c7c:	8b 45 b8             	mov    -0x48(%rbp),%eax
    1c7f:	8d 0c 02             	lea    (%rdx,%rax,1),%ecx
    1c82:	48 63 c1             	movslq %ecx,%rax
    1c85:	48 69 c0 67 66 66 66 	imul   $0x66666667,%rax,%rax
    1c8c:	48 c1 e8 20          	shr    $0x20,%rax
    1c90:	89 c2                	mov    %eax,%edx
    1c92:	c1 fa 02             	sar    $0x2,%edx
    1c95:	89 c8                	mov    %ecx,%eax
    1c97:	c1 f8 1f             	sar    $0x1f,%eax
    1c9a:	29 c2                	sub    %eax,%edx
    1c9c:	89 d0                	mov    %edx,%eax
    1c9e:	c1 e0 02             	shl    $0x2,%eax
    1ca1:	01 d0                	add    %edx,%eax
    1ca3:	01 c0                	add    %eax,%eax
    1ca5:	29 c1                	sub    %eax,%ecx
    1ca7:	89 ca                	mov    %ecx,%edx
    1ca9:	8b 85 2c ff ff ff    	mov    -0xd4(%rbp),%eax
    1caf:	01 d0                	add    %edx,%eax
    1cb1:	83 f8 09             	cmp    $0x9,%eax
    1cb4:	0f 8e 8a 00 00 00    	jle    1d44 <main+0x8f2>
    1cba:	8b 55 bc             	mov    -0x44(%rbp),%edx
    1cbd:	8b 45 b8             	mov    -0x48(%rbp),%eax
    1cc0:	8d 0c 02             	lea    (%rdx,%rax,1),%ecx
    1cc3:	48 63 c1             	movslq %ecx,%rax
    1cc6:	48 69 c0 67 66 66 66 	imul   $0x66666667,%rax,%rax
    1ccd:	48 c1 e8 20          	shr    $0x20,%rax
    1cd1:	89 c2                	mov    %eax,%edx
    1cd3:	c1 fa 02             	sar    $0x2,%edx
    1cd6:	89 c8                	mov    %ecx,%eax
    1cd8:	c1 f8 1f             	sar    $0x1f,%eax
    1cdb:	29 c2                	sub    %eax,%edx
    1cdd:	89 d0                	mov    %edx,%eax
    1cdf:	c1 e0 02             	shl    $0x2,%eax
    1ce2:	01 d0                	add    %edx,%eax
    1ce4:	01 c0                	add    %eax,%eax
    1ce6:	29 c1                	sub    %eax,%ecx
    1ce8:	89 ca                	mov    %ecx,%edx
    1cea:	8b 85 2c ff ff ff    	mov    -0xd4(%rbp),%eax
    1cf0:	8d 0c 02             	lea    (%rdx,%rax,1),%ecx
    1cf3:	48 63 c1             	movslq %ecx,%rax
    1cf6:	48 69 c0 67 66 66 66 	imul   $0x66666667,%rax,%rax
    1cfd:	48 c1 e8 20          	shr    $0x20,%rax
    1d01:	89 c2                	mov    %eax,%edx
    1d03:	c1 fa 02             	sar    $0x2,%edx
    1d06:	89 c8                	mov    %ecx,%eax
    1d08:	c1 f8 1f             	sar    $0x1f,%eax
    1d0b:	29 c2                	sub    %eax,%edx
    1d0d:	89 d0                	mov    %edx,%eax
    1d0f:	c1 e0 02             	shl    $0x2,%eax
    1d12:	01 d0                	add    %edx,%eax
    1d14:	01 c0                	add    %eax,%eax
    1d16:	29 c1                	sub    %eax,%ecx
    1d18:	89 ca                	mov    %ecx,%edx
    1d1a:	8b 4d bc             	mov    -0x44(%rbp),%ecx
    1d1d:	8b 45 b8             	mov    -0x48(%rbp),%eax
    1d20:	01 c8                	add    %ecx,%eax
    1d22:	48 63 c8             	movslq %eax,%rcx
    1d25:	48 69 c9 67 66 66 66 	imul   $0x66666667,%rcx,%rcx
    1d2c:	48 c1 e9 20          	shr    $0x20,%rcx
    1d30:	c1 f9 02             	sar    $0x2,%ecx
    1d33:	c1 f8 1f             	sar    $0x1f,%eax
    1d36:	29 c1                	sub    %eax,%ecx
    1d38:	89 c8                	mov    %ecx,%eax
    1d3a:	01 d0                	add    %edx,%eax
    1d3c:	89 85 2c ff ff ff    	mov    %eax,-0xd4(%rbp)
    1d42:	eb 26                	jmp    1d6a <main+0x918>
    1d44:	8b 55 bc             	mov    -0x44(%rbp),%edx
    1d47:	8b 45 b8             	mov    -0x48(%rbp),%eax
    1d4a:	01 d0                	add    %edx,%eax
    1d4c:	48 63 d0             	movslq %eax,%rdx
    1d4f:	48 69 d2 67 66 66 66 	imul   $0x66666667,%rdx,%rdx
    1d56:	48 c1 ea 20          	shr    $0x20,%rdx
    1d5a:	c1 fa 02             	sar    $0x2,%edx
    1d5d:	c1 f8 1f             	sar    $0x1f,%eax
    1d60:	29 c2                	sub    %eax,%edx
    1d62:	89 d0                	mov    %edx,%eax
    1d64:	89 85 2c ff ff ff    	mov    %eax,-0xd4(%rbp)
    1d6a:	48 8d 35 96 22 00 00 	lea    0x2296(%rip),%rsi        # 4007 <_ZStL6ignore+0x1>
    1d71:	48 8d 3d 88 53 00 00 	lea    0x5388(%rip),%rdi        # 7100 <_ZSt4cout@@GLIBCXX_3.4>
    1d78:	e8 53 f3 ff ff       	callq  10d0 <_ZStlsISt11char_traitsIcEERSt13basic_ostreamIcT_ES5_PKc@plt>
    1d7d:	48 89 c2             	mov    %rax,%rdx
    1d80:	8b 85 2c ff ff ff    	mov    -0xd4(%rbp),%eax
    1d86:	89 c6                	mov    %eax,%esi
    1d88:	48 89 d7             	mov    %rdx,%rdi
    1d8b:	e8 d0 f3 ff ff       	callq  1160 <_ZNSolsEi@plt>
    1d90:	48 89 c2             	mov    %rax,%rdx
    1d93:	48 8b 05 36 52 00 00 	mov    0x5236(%rip),%rax        # 6fd0 <_ZSt4endlIcSt11char_traitsIcEERSt13basic_ostreamIT_T0_ES6_@GLIBCXX_3.4>
    1d9a:	48 89 c6             	mov    %rax,%rsi
    1d9d:	48 89 d7             	mov    %rdx,%rdi
    1da0:	e8 4b f3 ff ff       	callq  10f0 <_ZNSolsEPFRSoS_E@plt>
    1da5:	83 45 cc 01          	addl   $0x1,-0x34(%rbp)
    1da9:	e9 7b fd ff ff       	jmpq   1b29 <main+0x6d7>
    1dae:	8b 85 2c ff ff ff    	mov    -0xd4(%rbp),%eax
    1db4:	85 c0                	test   %eax,%eax
    1db6:	7e 19                	jle    1dd1 <main+0x97f>
    1db8:	48 8d 95 2c ff ff ff 	lea    -0xd4(%rbp),%rdx
    1dbf:	48 8d 85 30 ff ff ff 	lea    -0xd0(%rbp),%rax
    1dc6:	48 89 d6             	mov    %rdx,%rsi
    1dc9:	48 89 c7             	mov    %rax,%rdi
    1dcc:	e8 25 03 00 00       	callq  20f6 <_ZNSt6vectorIiSaIiEE9push_backERKi>
    1dd1:	c7 45 c8 00 00 00 00 	movl   $0x0,-0x38(%rbp)
    1dd8:	8b 45 c8             	mov    -0x38(%rbp),%eax
    1ddb:	48 63 d8             	movslq %eax,%rbx
    1dde:	48 8d 85 30 ff ff ff 	lea    -0xd0(%rbp),%rax
    1de5:	48 89 c7             	mov    %rax,%rdi
    1de8:	e8 c5 02 00 00       	callq  20b2 <_ZNKSt6vectorIiSaIiEE4sizeEv>
    1ded:	48 39 c3             	cmp    %rax,%rbx
    1df0:	0f 92 c0             	setb   %al
    1df3:	84 c0                	test   %al,%al
    1df5:	74 2e                	je     1e25 <main+0x9d3>
    1df7:	8b 45 c8             	mov    -0x38(%rbp),%eax
    1dfa:	48 63 d0             	movslq %eax,%rdx
    1dfd:	48 8d 85 30 ff ff ff 	lea    -0xd0(%rbp),%rax
    1e04:	48 89 d6             	mov    %rdx,%rsi
    1e07:	48 89 c7             	mov    %rax,%rdi
    1e0a:	e8 c7 02 00 00       	callq  20d6 <_ZNSt6vectorIiSaIiEEixEm>
    1e0f:	8b 00                	mov    (%rax),%eax
    1e11:	89 c6                	mov    %eax,%esi
    1e13:	48 8d 3d e6 52 00 00 	lea    0x52e6(%rip),%rdi        # 7100 <_ZSt4cout@@GLIBCXX_3.4>
    1e1a:	e8 41 f3 ff ff       	callq  1160 <_ZNSolsEi@plt>
    1e1f:	83 45 c8 01          	addl   $0x1,-0x38(%rbp)
    1e23:	eb b3                	jmp    1dd8 <main+0x986>
    1e25:	48 8b 05 a4 51 00 00 	mov    0x51a4(%rip),%rax        # 6fd0 <_ZSt4endlIcSt11char_traitsIcEERSt13basic_ostreamIT_T0_ES6_@GLIBCXX_3.4>
    1e2c:	48 89 c6             	mov    %rax,%rsi
    1e2f:	48 8d 3d ca 52 00 00 	lea    0x52ca(%rip),%rdi        # 7100 <_ZSt4cout@@GLIBCXX_3.4>
    1e36:	e8 b5 f2 ff ff       	callq  10f0 <_ZNSolsEPFRSoS_E@plt>
    1e3b:	48 8d 85 30 ff ff ff 	lea    -0xd0(%rbp),%rax
    1e42:	48 89 c7             	mov    %rax,%rdi
    1e45:	e8 f2 01 00 00       	callq  203c <_ZNSt6vectorIiSaIiEED1Ev>
    1e4a:	48 8d 85 00 ff ff ff 	lea    -0x100(%rbp),%rax
    1e51:	48 89 c7             	mov    %rax,%rdi
    1e54:	e8 27 f2 ff ff       	callq  1080 <_ZNSt7__cxx1112basic_stringIcSt11char_traitsIcESaIcEED1Ev@plt>
    1e59:	48 8d 85 e0 fe ff ff 	lea    -0x120(%rbp),%rax
    1e60:	48 89 c7             	mov    %rax,%rdi
    1e63:	e8 18 f2 ff ff       	callq  1080 <_ZNSt7__cxx1112basic_stringIcSt11char_traitsIcESaIcEED1Ev@plt>
    1e68:	e9 1f f6 ff ff       	jmpq   148c <main+0x3a>
    1e6d:	b8 00 00 00 00       	mov    $0x0,%eax
    1e72:	eb 68                	jmp    1edc <main+0xa8a>
    1e74:	48 89 c3             	mov    %rax,%rbx
    1e77:	48 8d 85 70 ff ff ff 	lea    -0x90(%rbp),%rax
    1e7e:	48 89 c7             	mov    %rax,%rdi
    1e81:	e8 b6 01 00 00       	callq  203c <_ZNSt6vectorIiSaIiEED1Ev>
    1e86:	eb 2b                	jmp    1eb3 <main+0xa61>
    1e88:	48 89 c3             	mov    %rax,%rbx
    1e8b:	48 8d 85 50 ff ff ff 	lea    -0xb0(%rbp),%rax
    1e92:	48 89 c7             	mov    %rax,%rdi
    1e95:	e8 a2 01 00 00       	callq  203c <_ZNSt6vectorIiSaIiEED1Ev>
    1e9a:	eb 17                	jmp    1eb3 <main+0xa61>
    1e9c:	48 89 c3             	mov    %rax,%rbx
    1e9f:	48 8d 85 30 ff ff ff 	lea    -0xd0(%rbp),%rax
    1ea6:	48 89 c7             	mov    %rax,%rdi
    1ea9:	e8 8e 01 00 00       	callq  203c <_ZNSt6vectorIiSaIiEED1Ev>
    1eae:	eb 03                	jmp    1eb3 <main+0xa61>
    1eb0:	48 89 c3             	mov    %rax,%rbx
    1eb3:	48 8d 85 00 ff ff ff 	lea    -0x100(%rbp),%rax
    1eba:	48 89 c7             	mov    %rax,%rdi
    1ebd:	e8 be f1 ff ff       	callq  1080 <_ZNSt7__cxx1112basic_stringIcSt11char_traitsIcESaIcEED1Ev@plt>
    1ec2:	48 8d 85 e0 fe ff ff 	lea    -0x120(%rbp),%rax
    1ec9:	48 89 c7             	mov    %rax,%rdi
    1ecc:	e8 af f1 ff ff       	callq  1080 <_ZNSt7__cxx1112basic_stringIcSt11char_traitsIcESaIcEED1Ev@plt>
    1ed1:	48 89 d8             	mov    %rbx,%rax
    1ed4:	48 89 c7             	mov    %rax,%rdi
    1ed7:	e8 94 f2 ff ff       	callq  1170 <_Unwind_Resume@plt>
    1edc:	48 81 c4 18 01 00 00 	add    $0x118,%rsp
    1ee3:	5b                   	pop    %rbx
    1ee4:	5d                   	pop    %rbp
    1ee5:	c3                   	retq   

0000000000001ee6 <_Z41__static_initialization_and_destruction_0ii>:
    1ee6:	55                   	push   %rbp
    1ee7:	48 89 e5             	mov    %rsp,%rbp
    1eea:	48 83 ec 10          	sub    $0x10,%rsp
    1eee:	89 7d fc             	mov    %edi,-0x4(%rbp)
    1ef1:	89 75 f8             	mov    %esi,-0x8(%rbp)
    1ef4:	83 7d fc 01          	cmpl   $0x1,-0x4(%rbp)
    1ef8:	75 32                	jne    1f2c <_Z41__static_initialization_and_destruction_0ii+0x46>
    1efa:	81 7d f8 ff ff 00 00 	cmpl   $0xffff,-0x8(%rbp)
    1f01:	75 29                	jne    1f2c <_Z41__static_initialization_and_destruction_0ii+0x46>
    1f03:	48 8d 3d 2f 54 00 00 	lea    0x542f(%rip),%rdi        # 7339 <_ZStL8__ioinit>
    1f0a:	e8 21 f2 ff ff       	callq  1130 <_ZNSt8ios_base4InitC1Ev@plt>
    1f0f:	48 8d 15 ba 51 00 00 	lea    0x51ba(%rip),%rdx        # 70d0 <__dso_handle>
    1f16:	48 8d 35 1c 54 00 00 	lea    0x541c(%rip),%rsi        # 7339 <_ZStL8__ioinit>
    1f1d:	48 8b 05 d4 50 00 00 	mov    0x50d4(%rip),%rax        # 6ff8 <_ZNSt8ios_base4InitD1Ev@GLIBCXX_3.4>
    1f24:	48 89 c7             	mov    %rax,%rdi
    1f27:	e8 84 f1 ff ff       	callq  10b0 <__cxa_atexit@plt>
    1f2c:	90                   	nop
    1f2d:	c9                   	leaveq 
    1f2e:	c3                   	retq   

0000000000001f2f <_GLOBAL__sub_I__Z7decSortxx>:
    1f2f:	55                   	push   %rbp
    1f30:	48 89 e5             	mov    %rsp,%rbp
    1f33:	be ff ff 00 00       	mov    $0xffff,%esi
    1f38:	bf 01 00 00 00       	mov    $0x1,%edi
    1f3d:	e8 a4 ff ff ff       	callq  1ee6 <_Z41__static_initialization_and_destruction_0ii>
    1f42:	5d                   	pop    %rbp
    1f43:	c3                   	retq   

0000000000001f44 <_ZnwmPv>:
    1f44:	55                   	push   %rbp
    1f45:	48 89 e5             	mov    %rsp,%rbp
    1f48:	48 89 7d f8          	mov    %rdi,-0x8(%rbp)
    1f4c:	48 89 75 f0          	mov    %rsi,-0x10(%rbp)
    1f50:	48 8b 45 f0          	mov    -0x10(%rbp),%rax
    1f54:	5d                   	pop    %rbp
    1f55:	c3                   	retq   

0000000000001f56 <_ZNSt12_Vector_baseIiSaIiEE12_Vector_implD1Ev>:
    1f56:	55                   	push   %rbp
    1f57:	48 89 e5             	mov    %rsp,%rbp
    1f5a:	48 83 ec 10          	sub    $0x10,%rsp
    1f5e:	48 89 7d f8          	mov    %rdi,-0x8(%rbp)
    1f62:	48 8b 45 f8          	mov    -0x8(%rbp),%rax
    1f66:	48 89 c7             	mov    %rax,%rdi
    1f69:	e8 64 00 00 00       	callq  1fd2 <_ZNSaIiED1Ev>
    1f6e:	90                   	nop
    1f6f:	c9                   	leaveq 
    1f70:	c3                   	retq   
    1f71:	90                   	nop

0000000000001f72 <_ZNSt12_Vector_baseIiSaIiEEC1Ev>:
    1f72:	55                   	push   %rbp
    1f73:	48 89 e5             	mov    %rsp,%rbp
    1f76:	48 83 ec 10          	sub    $0x10,%rsp
    1f7a:	48 89 7d f8          	mov    %rdi,-0x8(%rbp)
    1f7e:	48 8b 45 f8          	mov    -0x8(%rbp),%rax
    1f82:	48 89 c7             	mov    %rax,%rdi
    1f85:	e8 20 00 00 00       	callq  1faa <_ZNSt12_Vector_baseIiSaIiEE12_Vector_implC1Ev>
    1f8a:	90                   	nop
    1f8b:	c9                   	leaveq 
    1f8c:	c3                   	retq   
    1f8d:	90                   	nop

0000000000001f8e <_ZNSt6vectorIiSaIiEEC1Ev>:
    1f8e:	55                   	push   %rbp
    1f8f:	48 89 e5             	mov    %rsp,%rbp
    1f92:	48 83 ec 10          	sub    $0x10,%rsp
    1f96:	48 89 7d f8          	mov    %rdi,-0x8(%rbp)
    1f9a:	48 8b 45 f8          	mov    -0x8(%rbp),%rax
    1f9e:	48 89 c7             	mov    %rax,%rdi
    1fa1:	e8 cc ff ff ff       	callq  1f72 <_ZNSt12_Vector_baseIiSaIiEEC1Ev>
    1fa6:	90                   	nop
    1fa7:	c9                   	leaveq 
    1fa8:	c3                   	retq   
    1fa9:	90                   	nop

0000000000001faa <_ZNSt12_Vector_baseIiSaIiEE12_Vector_implC1Ev>:
    1faa:	55                   	push   %rbp
    1fab:	48 89 e5             	mov    %rsp,%rbp
    1fae:	48 83 ec 10          	sub    $0x10,%rsp
    1fb2:	48 89 7d f8          	mov    %rdi,-0x8(%rbp)
    1fb6:	48 8b 45 f8          	mov    -0x8(%rbp),%rax
    1fba:	48 89 c7             	mov    %rax,%rdi
    1fbd:	e8 b0 01 00 00       	callq  2172 <_ZNSaIiEC1Ev>
    1fc2:	48 8b 45 f8          	mov    -0x8(%rbp),%rax
    1fc6:	48 89 c7             	mov    %rax,%rdi
    1fc9:	e8 c0 01 00 00       	callq  218e <_ZNSt12_Vector_baseIiSaIiEE17_Vector_impl_dataC1Ev>
    1fce:	90                   	nop
    1fcf:	c9                   	leaveq 
    1fd0:	c3                   	retq   
    1fd1:	90                   	nop

0000000000001fd2 <_ZNSaIiED1Ev>:
    1fd2:	55                   	push   %rbp
    1fd3:	48 89 e5             	mov    %rsp,%rbp
    1fd6:	48 83 ec 10          	sub    $0x10,%rsp
    1fda:	48 89 7d f8          	mov    %rdi,-0x8(%rbp)
    1fde:	48 8b 45 f8          	mov    -0x8(%rbp),%rax
    1fe2:	48 89 c7             	mov    %rax,%rdi
    1fe5:	e8 d2 01 00 00       	callq  21bc <_ZN9__gnu_cxx13new_allocatorIiED1Ev>
    1fea:	90                   	nop
    1feb:	c9                   	leaveq 
    1fec:	c3                   	retq   
    1fed:	90                   	nop

0000000000001fee <_ZNSt12_Vector_baseIiSaIiEED1Ev>:
    1fee:	55                   	push   %rbp
    1fef:	48 89 e5             	mov    %rsp,%rbp
    1ff2:	48 83 ec 10          	sub    $0x10,%rsp
    1ff6:	48 89 7d f8          	mov    %rdi,-0x8(%rbp)
    1ffa:	48 8b 45 f8          	mov    -0x8(%rbp),%rax
    1ffe:	48 8b 50 10          	mov    0x10(%rax),%rdx
    2002:	48 8b 45 f8          	mov    -0x8(%rbp),%rax
    2006:	48 8b 00             	mov    (%rax),%rax
    2009:	48 29 c2             	sub    %rax,%rdx
    200c:	48 89 d0             	mov    %rdx,%rax
    200f:	48 c1 f8 02          	sar    $0x2,%rax
    2013:	48 89 c2             	mov    %rax,%rdx
    2016:	48 8b 45 f8          	mov    -0x8(%rbp),%rax
    201a:	48 8b 08             	mov    (%rax),%rcx
    201d:	48 8b 45 f8          	mov    -0x8(%rbp),%rax
    2021:	48 89 ce             	mov    %rcx,%rsi
    2024:	48 89 c7             	mov    %rax,%rdi
    2027:	e8 9c 01 00 00       	callq  21c8 <_ZNSt12_Vector_baseIiSaIiEE13_M_deallocateEPim>
    202c:	48 8b 45 f8          	mov    -0x8(%rbp),%rax
    2030:	48 89 c7             	mov    %rax,%rdi
    2033:	e8 1e ff ff ff       	callq  1f56 <_ZNSt12_Vector_baseIiSaIiEE12_Vector_implD1Ev>
    2038:	90                   	nop
    2039:	c9                   	leaveq 
    203a:	c3                   	retq   
    203b:	90                   	nop

000000000000203c <_ZNSt6vectorIiSaIiEED1Ev>:
    203c:	55                   	push   %rbp
    203d:	48 89 e5             	mov    %rsp,%rbp
    2040:	48 83 ec 10          	sub    $0x10,%rsp
    2044:	48 89 7d f8          	mov    %rdi,-0x8(%rbp)
    2048:	48 8b 45 f8          	mov    -0x8(%rbp),%rax
    204c:	48 89 c7             	mov    %rax,%rdi
    204f:	e8 aa 01 00 00       	callq  21fe <_ZNSt12_Vector_baseIiSaIiEE19_M_get_Tp_allocatorEv>
    2054:	48 89 c2             	mov    %rax,%rdx
    2057:	48 8b 45 f8          	mov    -0x8(%rbp),%rax
    205b:	48 8b 48 08          	mov    0x8(%rax),%rcx
    205f:	48 8b 45 f8          	mov    -0x8(%rbp),%rax
    2063:	48 8b 00             	mov    (%rax),%rax
    2066:	48 89 ce             	mov    %rcx,%rsi
    2069:	48 89 c7             	mov    %rax,%rdi
    206c:	e8 9b 01 00 00       	callq  220c <_ZSt8_DestroyIPiiEvT_S1_RSaIT0_E>
    2071:	48 8b 45 f8          	mov    -0x8(%rbp),%rax
    2075:	48 89 c7             	mov    %rax,%rdi
    2078:	e8 71 ff ff ff       	callq  1fee <_ZNSt12_Vector_baseIiSaIiEED1Ev>
    207d:	90                   	nop
    207e:	c9                   	leaveq 
    207f:	c3                   	retq   

0000000000002080 <_ZNSt6vectorIiSaIiEE9push_backEOi>:
    2080:	55                   	push   %rbp
    2081:	48 89 e5             	mov    %rsp,%rbp
    2084:	48 83 ec 10          	sub    $0x10,%rsp
    2088:	48 89 7d f8          	mov    %rdi,-0x8(%rbp)
    208c:	48 89 75 f0          	mov    %rsi,-0x10(%rbp)
    2090:	48 8b 45 f0          	mov    -0x10(%rbp),%rax
    2094:	48 89 c7             	mov    %rax,%rdi
    2097:	e8 9a 01 00 00       	callq  2236 <_ZSt4moveIRiEONSt16remove_referenceIT_E4typeEOS2_>
    209c:	48 89 c2             	mov    %rax,%rdx
    209f:	48 8b 45 f8          	mov    -0x8(%rbp),%rax
    20a3:	48 89 d6             	mov    %rdx,%rsi
    20a6:	48 89 c7             	mov    %rax,%rdi
    20a9:	e8 96 01 00 00       	callq  2244 <_ZNSt6vectorIiSaIiEE12emplace_backIJiEEEvDpOT_>
    20ae:	90                   	nop
    20af:	c9                   	leaveq 
    20b0:	c3                   	retq   
    20b1:	90                   	nop

00000000000020b2 <_ZNKSt6vectorIiSaIiEE4sizeEv>:
    20b2:	55                   	push   %rbp
    20b3:	48 89 e5             	mov    %rsp,%rbp
    20b6:	48 89 7d f8          	mov    %rdi,-0x8(%rbp)
    20ba:	48 8b 45 f8          	mov    -0x8(%rbp),%rax
    20be:	48 8b 50 08          	mov    0x8(%rax),%rdx
    20c2:	48 8b 45 f8          	mov    -0x8(%rbp),%rax
    20c6:	48 8b 00             	mov    (%rax),%rax
    20c9:	48 29 c2             	sub    %rax,%rdx
    20cc:	48 89 d0             	mov    %rdx,%rax
    20cf:	48 c1 f8 02          	sar    $0x2,%rax
    20d3:	5d                   	pop    %rbp
    20d4:	c3                   	retq   
    20d5:	90                   	nop

00000000000020d6 <_ZNSt6vectorIiSaIiEEixEm>:
    20d6:	55                   	push   %rbp
    20d7:	48 89 e5             	mov    %rsp,%rbp
    20da:	48 89 7d f8          	mov    %rdi,-0x8(%rbp)
    20de:	48 89 75 f0          	mov    %rsi,-0x10(%rbp)
    20e2:	48 8b 45 f8          	mov    -0x8(%rbp),%rax
    20e6:	48 8b 00             	mov    (%rax),%rax
    20e9:	48 8b 55 f0          	mov    -0x10(%rbp),%rdx
    20ed:	48 c1 e2 02          	shl    $0x2,%rdx
    20f1:	48 01 d0             	add    %rdx,%rax
    20f4:	5d                   	pop    %rbp
    20f5:	c3                   	retq   

00000000000020f6 <_ZNSt6vectorIiSaIiEE9push_backERKi>:
    20f6:	55                   	push   %rbp
    20f7:	48 89 e5             	mov    %rsp,%rbp
    20fa:	48 83 ec 10          	sub    $0x10,%rsp
    20fe:	48 89 7d f8          	mov    %rdi,-0x8(%rbp)
    2102:	48 89 75 f0          	mov    %rsi,-0x10(%rbp)
    2106:	48 8b 45 f8          	mov    -0x8(%rbp),%rax
    210a:	48 8b 50 08          	mov    0x8(%rax),%rdx
    210e:	48 8b 45 f8          	mov    -0x8(%rbp),%rax
    2112:	48 8b 40 10          	mov    0x10(%rax),%rax
    2116:	48 39 c2             	cmp    %rax,%rdx
    2119:	74 31                	je     214c <_ZNSt6vectorIiSaIiEE9push_backERKi+0x56>
    211b:	48 8b 45 f8          	mov    -0x8(%rbp),%rax
    211f:	48 8b 48 08          	mov    0x8(%rax),%rcx
    2123:	48 8b 45 f8          	mov    -0x8(%rbp),%rax
    2127:	48 8b 55 f0          	mov    -0x10(%rbp),%rdx
    212b:	48 89 ce             	mov    %rcx,%rsi
    212e:	48 89 c7             	mov    %rax,%rdi
    2131:	e8 a8 01 00 00       	callq  22de <_ZNSt16allocator_traitsISaIiEE9constructIiJRKiEEEvRS0_PT_DpOT0_>
    2136:	48 8b 45 f8          	mov    -0x8(%rbp),%rax
    213a:	48 8b 40 08          	mov    0x8(%rax),%rax
    213e:	48 8d 50 04          	lea    0x4(%rax),%rdx
    2142:	48 8b 45 f8          	mov    -0x8(%rbp),%rax
    2146:	48 89 50 08          	mov    %rdx,0x8(%rax)
    214a:	eb 22                	jmp    216e <_ZNSt6vectorIiSaIiEE9push_backERKi+0x78>
    214c:	48 8b 45 f8          	mov    -0x8(%rbp),%rax
    2150:	48 89 c7             	mov    %rax,%rdi
    2153:	e8 c0 01 00 00       	callq  2318 <_ZNSt6vectorIiSaIiEE3endEv>
    2158:	48 89 c1             	mov    %rax,%rcx
    215b:	48 8b 55 f0          	mov    -0x10(%rbp),%rdx
    215f:	48 8b 45 f8          	mov    -0x8(%rbp),%rax
    2163:	48 89 ce             	mov    %rcx,%rsi
    2166:	48 89 c7             	mov    %rax,%rdi
    2169:	e8 ee 01 00 00       	callq  235c <_ZNSt6vectorIiSaIiEE17_M_realloc_insertIJRKiEEEvN9__gnu_cxx17__normal_iteratorIPiS1_EEDpOT_>
    216e:	90                   	nop
    216f:	c9                   	leaveq 
    2170:	c3                   	retq   
    2171:	90                   	nop

0000000000002172 <_ZNSaIiEC1Ev>:
    2172:	55                   	push   %rbp
    2173:	48 89 e5             	mov    %rsp,%rbp
    2176:	48 83 ec 10          	sub    $0x10,%rsp
    217a:	48 89 7d f8          	mov    %rdi,-0x8(%rbp)
    217e:	48 8b 45 f8          	mov    -0x8(%rbp),%rax
    2182:	48 89 c7             	mov    %rax,%rdi
    2185:	e8 96 04 00 00       	callq  2620 <_ZN9__gnu_cxx13new_allocatorIiEC1Ev>
    218a:	90                   	nop
    218b:	c9                   	leaveq 
    218c:	c3                   	retq   
    218d:	90                   	nop

000000000000218e <_ZNSt12_Vector_baseIiSaIiEE17_Vector_impl_dataC1Ev>:
    218e:	55                   	push   %rbp
    218f:	48 89 e5             	mov    %rsp,%rbp
    2192:	48 89 7d f8          	mov    %rdi,-0x8(%rbp)
    2196:	48 8b 45 f8          	mov    -0x8(%rbp),%rax
    219a:	48 c7 00 00 00 00 00 	movq   $0x0,(%rax)
    21a1:	48 8b 45 f8          	mov    -0x8(%rbp),%rax
    21a5:	48 c7 40 08 00 00 00 	movq   $0x0,0x8(%rax)
    21ac:	00 
    21ad:	48 8b 45 f8          	mov    -0x8(%rbp),%rax
    21b1:	48 c7 40 10 00 00 00 	movq   $0x0,0x10(%rax)
    21b8:	00 
    21b9:	90                   	nop
    21ba:	5d                   	pop    %rbp
    21bb:	c3                   	retq   

00000000000021bc <_ZN9__gnu_cxx13new_allocatorIiED1Ev>:
    21bc:	55                   	push   %rbp
    21bd:	48 89 e5             	mov    %rsp,%rbp
    21c0:	48 89 7d f8          	mov    %rdi,-0x8(%rbp)
    21c4:	90                   	nop
    21c5:	5d                   	pop    %rbp
    21c6:	c3                   	retq   
    21c7:	90                   	nop

00000000000021c8 <_ZNSt12_Vector_baseIiSaIiEE13_M_deallocateEPim>:
    21c8:	55                   	push   %rbp
    21c9:	48 89 e5             	mov    %rsp,%rbp
    21cc:	48 83 ec 20          	sub    $0x20,%rsp
    21d0:	48 89 7d f8          	mov    %rdi,-0x8(%rbp)
    21d4:	48 89 75 f0          	mov    %rsi,-0x10(%rbp)
    21d8:	48 89 55 e8          	mov    %rdx,-0x18(%rbp)
    21dc:	48 83 7d f0 00       	cmpq   $0x0,-0x10(%rbp)
    21e1:	74 17                	je     21fa <_ZNSt12_Vector_baseIiSaIiEE13_M_deallocateEPim+0x32>
    21e3:	48 8b 45 f8          	mov    -0x8(%rbp),%rax
    21e7:	48 8b 55 e8          	mov    -0x18(%rbp),%rdx
    21eb:	48 8b 4d f0          	mov    -0x10(%rbp),%rcx
    21ef:	48 89 ce             	mov    %rcx,%rsi
    21f2:	48 89 c7             	mov    %rax,%rdi
    21f5:	e8 31 04 00 00       	callq  262b <_ZNSt16allocator_traitsISaIiEE10deallocateERS0_Pim>
    21fa:	90                   	nop
    21fb:	c9                   	leaveq 
    21fc:	c3                   	retq   
    21fd:	90                   	nop

00000000000021fe <_ZNSt12_Vector_baseIiSaIiEE19_M_get_Tp_allocatorEv>:
    21fe:	55                   	push   %rbp
    21ff:	48 89 e5             	mov    %rsp,%rbp
    2202:	48 89 7d f8          	mov    %rdi,-0x8(%rbp)
    2206:	48 8b 45 f8          	mov    -0x8(%rbp),%rax
    220a:	5d                   	pop    %rbp
    220b:	c3                   	retq   

000000000000220c <_ZSt8_DestroyIPiiEvT_S1_RSaIT0_E>:
    220c:	55                   	push   %rbp
    220d:	48 89 e5             	mov    %rsp,%rbp
    2210:	48 83 ec 20          	sub    $0x20,%rsp
    2214:	48 89 7d f8          	mov    %rdi,-0x8(%rbp)
    2218:	48 89 75 f0          	mov    %rsi,-0x10(%rbp)
    221c:	48 89 55 e8          	mov    %rdx,-0x18(%rbp)
    2220:	48 8b 55 f0          	mov    -0x10(%rbp),%rdx
    2224:	48 8b 45 f8          	mov    -0x8(%rbp),%rax
    2228:	48 89 d6             	mov    %rdx,%rsi
    222b:	48 89 c7             	mov    %rax,%rdi
    222e:	e8 26 04 00 00       	callq  2659 <_ZSt8_DestroyIPiEvT_S1_>
    2233:	90                   	nop
    2234:	c9                   	leaveq 
    2235:	c3                   	retq   

0000000000002236 <_ZSt4moveIRiEONSt16remove_referenceIT_E4typeEOS2_>:
    2236:	55                   	push   %rbp
    2237:	48 89 e5             	mov    %rsp,%rbp
    223a:	48 89 7d f8          	mov    %rdi,-0x8(%rbp)
    223e:	48 8b 45 f8          	mov    -0x8(%rbp),%rax
    2242:	5d                   	pop    %rbp
    2243:	c3                   	retq   

0000000000002244 <_ZNSt6vectorIiSaIiEE12emplace_backIJiEEEvDpOT_>:
    2244:	55                   	push   %rbp
    2245:	48 89 e5             	mov    %rsp,%rbp
    2248:	53                   	push   %rbx
    2249:	48 83 ec 18          	sub    $0x18,%rsp
    224d:	48 89 7d e8          	mov    %rdi,-0x18(%rbp)
    2251:	48 89 75 e0          	mov    %rsi,-0x20(%rbp)
    2255:	48 8b 45 e8          	mov    -0x18(%rbp),%rax
    2259:	48 8b 50 08          	mov    0x8(%rax),%rdx
    225d:	48 8b 45 e8          	mov    -0x18(%rbp),%rax
    2261:	48 8b 40 10          	mov    0x10(%rax),%rax
    2265:	48 39 c2             	cmp    %rax,%rdx
    2268:	74 3c                	je     22a6 <_ZNSt6vectorIiSaIiEE12emplace_backIJiEEEvDpOT_+0x62>
    226a:	48 8b 45 e0          	mov    -0x20(%rbp),%rax
    226e:	48 89 c7             	mov    %rax,%rdi
    2271:	e8 09 04 00 00       	callq  267f <_ZSt7forwardIiEOT_RNSt16remove_referenceIS0_E4typeE>
    2276:	48 89 c2             	mov    %rax,%rdx
    2279:	48 8b 45 e8          	mov    -0x18(%rbp),%rax
    227d:	48 8b 48 08          	mov    0x8(%rax),%rcx
    2281:	48 8b 45 e8          	mov    -0x18(%rbp),%rax
    2285:	48 89 ce             	mov    %rcx,%rsi
    2288:	48 89 c7             	mov    %rax,%rdi
    228b:	e8 fd 03 00 00       	callq  268d <_ZNSt16allocator_traitsISaIiEE9constructIiJiEEEvRS0_PT_DpOT0_>
    2290:	48 8b 45 e8          	mov    -0x18(%rbp),%rax
    2294:	48 8b 40 08          	mov    0x8(%rax),%rax
    2298:	48 8d 50 04          	lea    0x4(%rax),%rdx
    229c:	48 8b 45 e8          	mov    -0x18(%rbp),%rax
    22a0:	48 89 50 08          	mov    %rdx,0x8(%rax)
    22a4:	eb 30                	jmp    22d6 <_ZNSt6vectorIiSaIiEE12emplace_backIJiEEEvDpOT_+0x92>
    22a6:	48 8b 45 e0          	mov    -0x20(%rbp),%rax
    22aa:	48 89 c7             	mov    %rax,%rdi
    22ad:	e8 cd 03 00 00       	callq  267f <_ZSt7forwardIiEOT_RNSt16remove_referenceIS0_E4typeE>
    22b2:	48 89 c3             	mov    %rax,%rbx
    22b5:	48 8b 45 e8          	mov    -0x18(%rbp),%rax
    22b9:	48 89 c7             	mov    %rax,%rdi
    22bc:	e8 57 00 00 00       	callq  2318 <_ZNSt6vectorIiSaIiEE3endEv>
    22c1:	48 89 c1             	mov    %rax,%rcx
    22c4:	48 8b 45 e8          	mov    -0x18(%rbp),%rax
    22c8:	48 89 da             	mov    %rbx,%rdx
    22cb:	48 89 ce             	mov    %rcx,%rsi
    22ce:	48 89 c7             	mov    %rax,%rdi
    22d1:	e8 f0 03 00 00       	callq  26c6 <_ZNSt6vectorIiSaIiEE17_M_realloc_insertIJiEEEvN9__gnu_cxx17__normal_iteratorIPiS1_EEDpOT_>
    22d6:	90                   	nop
    22d7:	48 83 c4 18          	add    $0x18,%rsp
    22db:	5b                   	pop    %rbx
    22dc:	5d                   	pop    %rbp
    22dd:	c3                   	retq   

00000000000022de <_ZNSt16allocator_traitsISaIiEE9constructIiJRKiEEEvRS0_PT_DpOT0_>:
    22de:	55                   	push   %rbp
    22df:	48 89 e5             	mov    %rsp,%rbp
    22e2:	48 83 ec 20          	sub    $0x20,%rsp
    22e6:	48 89 7d f8          	mov    %rdi,-0x8(%rbp)
    22ea:	48 89 75 f0          	mov    %rsi,-0x10(%rbp)
    22ee:	48 89 55 e8          	mov    %rdx,-0x18(%rbp)
    22f2:	48 8b 45 e8          	mov    -0x18(%rbp),%rax
    22f6:	48 89 c7             	mov    %rax,%rdi
    22f9:	e8 8b 06 00 00       	callq  2989 <_ZSt7forwardIRKiEOT_RNSt16remove_referenceIS2_E4typeE>
    22fe:	48 89 c2             	mov    %rax,%rdx
    2301:	48 8b 4d f0          	mov    -0x10(%rbp),%rcx
    2305:	48 8b 45 f8          	mov    -0x8(%rbp),%rax
    2309:	48 89 ce             	mov    %rcx,%rsi
    230c:	48 89 c7             	mov    %rax,%rdi
    230f:	e8 84 06 00 00       	callq  2998 <_ZN9__gnu_cxx13new_allocatorIiE9constructIiJRKiEEEvPT_DpOT0_>
    2314:	90                   	nop
    2315:	c9                   	leaveq 
    2316:	c3                   	retq   
    2317:	90                   	nop

0000000000002318 <_ZNSt6vectorIiSaIiEE3endEv>:
    2318:	55                   	push   %rbp
    2319:	48 89 e5             	mov    %rsp,%rbp
    231c:	48 83 ec 20          	sub    $0x20,%rsp
    2320:	48 89 7d e8          	mov    %rdi,-0x18(%rbp)
    2324:	48 8b 45 e8          	mov    -0x18(%rbp),%rax
    2328:	48 8d 50 08          	lea    0x8(%rax),%rdx
    232c:	48 8d 45 f8          	lea    -0x8(%rbp),%rax
    2330:	48 89 d6             	mov    %rdx,%rsi
    2333:	48 89 c7             	mov    %rax,%rdi
    2336:	e8 9b 06 00 00       	callq  29d6 <_ZN9__gnu_cxx17__normal_iteratorIPiSt6vectorIiSaIiEEEC1ERKS1_>
    233b:	48 8b 45 f8          	mov    -0x8(%rbp),%rax
    233f:	c9                   	leaveq 
    2340:	c3                   	retq   

0000000000002341 <_ZNSt6vectorIiSaIiEE15_S_use_relocateEv>:
    2341:	55                   	push   %rbp
    2342:	48 89 e5             	mov    %rsp,%rbp
    2345:	48 83 ec 10          	sub    $0x10,%rsp
    2349:	e8 02 00 00 00       	callq  2350 <_ZNSt6vectorIiSaIiEE19_S_nothrow_relocateESt17integral_constantIbLb1EE>
    234e:	c9                   	leaveq 
    234f:	c3                   	retq   

0000000000002350 <_ZNSt6vectorIiSaIiEE19_S_nothrow_relocateESt17integral_constantIbLb1EE>:
    2350:	55                   	push   %rbp
    2351:	48 89 e5             	mov    %rsp,%rbp
    2354:	b8 01 00 00 00       	mov    $0x1,%eax
    2359:	5d                   	pop    %rbp
    235a:	c3                   	retq   
    235b:	90                   	nop

000000000000235c <_ZNSt6vectorIiSaIiEE17_M_realloc_insertIJRKiEEEvN9__gnu_cxx17__normal_iteratorIPiS1_EEDpOT_>:
    235c:	55                   	push   %rbp
    235d:	48 89 e5             	mov    %rsp,%rbp
    2360:	53                   	push   %rbx
    2361:	48 83 ec 68          	sub    $0x68,%rsp
    2365:	48 89 7d a8          	mov    %rdi,-0x58(%rbp)
    2369:	48 89 75 a0          	mov    %rsi,-0x60(%rbp)
    236d:	48 89 55 98          	mov    %rdx,-0x68(%rbp)
    2371:	48 8b 45 a8          	mov    -0x58(%rbp),%rax
    2375:	48 8d 15 8f 1c 00 00 	lea    0x1c8f(%rip),%rdx        # 400b <_ZStL6ignore+0x5>
    237c:	be 01 00 00 00       	mov    $0x1,%esi
    2381:	48 89 c7             	mov    %rax,%rdi
    2384:	e8 6b 06 00 00       	callq  29f4 <_ZNKSt6vectorIiSaIiEE12_M_check_lenEmPKc>
    2389:	48 89 45 e0          	mov    %rax,-0x20(%rbp)
    238d:	48 8b 45 a8          	mov    -0x58(%rbp),%rax
    2391:	48 8b 00             	mov    (%rax),%rax
    2394:	48 89 45 d8          	mov    %rax,-0x28(%rbp)
    2398:	48 8b 45 a8          	mov    -0x58(%rbp),%rax
    239c:	48 8b 40 08          	mov    0x8(%rax),%rax
    23a0:	48 89 45 d0          	mov    %rax,-0x30(%rbp)
    23a4:	48 8b 45 a8          	mov    -0x58(%rbp),%rax
    23a8:	48 89 c7             	mov    %rax,%rdi
    23ab:	e8 0e 07 00 00       	callq  2abe <_ZNSt6vectorIiSaIiEE5beginEv>
    23b0:	48 89 45 b8          	mov    %rax,-0x48(%rbp)
    23b4:	48 8d 55 b8          	lea    -0x48(%rbp),%rdx
    23b8:	48 8d 45 a0          	lea    -0x60(%rbp),%rax
    23bc:	48 89 d6             	mov    %rdx,%rsi
    23bf:	48 89 c7             	mov    %rax,%rdi
    23c2:	e8 1c 07 00 00       	callq  2ae3 <_ZN9__gnu_cxxmiIPiSt6vectorIiSaIiEEEENS_17__normal_iteratorIT_T0_E15difference_typeERKS8_SB_>
    23c7:	48 89 45 c8          	mov    %rax,-0x38(%rbp)
    23cb:	48 8b 45 a8          	mov    -0x58(%rbp),%rax
    23cf:	48 8b 55 e0          	mov    -0x20(%rbp),%rdx
    23d3:	48 89 d6             	mov    %rdx,%rsi
    23d6:	48 89 c7             	mov    %rax,%rdi
    23d9:	e8 46 07 00 00       	callq  2b24 <_ZNSt12_Vector_baseIiSaIiEE11_M_allocateEm>
    23de:	48 89 45 c0          	mov    %rax,-0x40(%rbp)
    23e2:	48 8b 45 c0          	mov    -0x40(%rbp),%rax
    23e6:	48 89 45 e8          	mov    %rax,-0x18(%rbp)
    23ea:	48 8b 45 98          	mov    -0x68(%rbp),%rax
    23ee:	48 89 c7             	mov    %rax,%rdi
    23f1:	e8 93 05 00 00       	callq  2989 <_ZSt7forwardIRKiEOT_RNSt16remove_referenceIS2_E4typeE>
    23f6:	48 89 c2             	mov    %rax,%rdx
    23f9:	48 8b 45 c8          	mov    -0x38(%rbp),%rax
    23fd:	48 8d 0c 85 00 00 00 	lea    0x0(,%rax,4),%rcx
    2404:	00 
    2405:	48 8b 45 c0          	mov    -0x40(%rbp),%rax
    2409:	48 01 c1             	add    %rax,%rcx
    240c:	48 8b 45 a8          	mov    -0x58(%rbp),%rax
    2410:	48 89 ce             	mov    %rcx,%rsi
    2413:	48 89 c7             	mov    %rax,%rdi
    2416:	e8 c3 fe ff ff       	callq  22de <_ZNSt16allocator_traitsISaIiEE9constructIiJRKiEEEvRS0_PT_DpOT0_>
    241b:	48 c7 45 e8 00 00 00 	movq   $0x0,-0x18(%rbp)
    2422:	00 
    2423:	e8 19 ff ff ff       	callq  2341 <_ZNSt6vectorIiSaIiEE15_S_use_relocateEv>
    2428:	84 c0                	test   %al,%al
    242a:	74 71                	je     249d <_ZNSt6vectorIiSaIiEE17_M_realloc_insertIJRKiEEEvN9__gnu_cxx17__normal_iteratorIPiS1_EEDpOT_+0x141>
    242c:	48 8b 45 a8          	mov    -0x58(%rbp),%rax
    2430:	48 89 c7             	mov    %rax,%rdi
    2433:	e8 c6 fd ff ff       	callq  21fe <_ZNSt12_Vector_baseIiSaIiEE19_M_get_Tp_allocatorEv>
    2438:	48 89 c3             	mov    %rax,%rbx
    243b:	48 8d 45 a0          	lea    -0x60(%rbp),%rax
    243f:	48 89 c7             	mov    %rax,%rdi
    2442:	e8 43 07 00 00       	callq  2b8a <_ZNK9__gnu_cxx17__normal_iteratorIPiSt6vectorIiSaIiEEE4baseEv>
    2447:	48 8b 30             	mov    (%rax),%rsi
    244a:	48 8b 55 c0          	mov    -0x40(%rbp),%rdx
    244e:	48 8b 45 d8          	mov    -0x28(%rbp),%rax
    2452:	48 89 d9             	mov    %rbx,%rcx
    2455:	48 89 c7             	mov    %rax,%rdi
    2458:	e8 fa 06 00 00       	callq  2b57 <_ZNSt6vectorIiSaIiEE11_S_relocateEPiS2_S2_RS0_>
    245d:	48 89 45 e8          	mov    %rax,-0x18(%rbp)
    2461:	48 83 45 e8 04       	addq   $0x4,-0x18(%rbp)
    2466:	48 8b 45 a8          	mov    -0x58(%rbp),%rax
    246a:	48 89 c7             	mov    %rax,%rdi
    246d:	e8 8c fd ff ff       	callq  21fe <_ZNSt12_Vector_baseIiSaIiEE19_M_get_Tp_allocatorEv>
    2472:	48 89 c3             	mov    %rax,%rbx
    2475:	48 8d 45 a0          	lea    -0x60(%rbp),%rax
    2479:	48 89 c7             	mov    %rax,%rdi
    247c:	e8 09 07 00 00       	callq  2b8a <_ZNK9__gnu_cxx17__normal_iteratorIPiSt6vectorIiSaIiEEE4baseEv>
    2481:	48 8b 00             	mov    (%rax),%rax
    2484:	48 8b 55 e8          	mov    -0x18(%rbp),%rdx
    2488:	48 8b 75 d0          	mov    -0x30(%rbp),%rsi
    248c:	48 89 d9             	mov    %rbx,%rcx
    248f:	48 89 c7             	mov    %rax,%rdi
    2492:	e8 c0 06 00 00       	callq  2b57 <_ZNSt6vectorIiSaIiEE11_S_relocateEPiS2_S2_RS0_>
    2497:	48 89 45 e8          	mov    %rax,-0x18(%rbp)
    249b:	eb 6f                	jmp    250c <_ZNSt6vectorIiSaIiEE17_M_realloc_insertIJRKiEEEvN9__gnu_cxx17__normal_iteratorIPiS1_EEDpOT_+0x1b0>
    249d:	48 8b 45 a8          	mov    -0x58(%rbp),%rax
    24a1:	48 89 c7             	mov    %rax,%rdi
    24a4:	e8 55 fd ff ff       	callq  21fe <_ZNSt12_Vector_baseIiSaIiEE19_M_get_Tp_allocatorEv>
    24a9:	48 89 c3             	mov    %rax,%rbx
    24ac:	48 8d 45 a0          	lea    -0x60(%rbp),%rax
    24b0:	48 89 c7             	mov    %rax,%rdi
    24b3:	e8 d2 06 00 00       	callq  2b8a <_ZNK9__gnu_cxx17__normal_iteratorIPiSt6vectorIiSaIiEEE4baseEv>
    24b8:	48 8b 30             	mov    (%rax),%rsi
    24bb:	48 8b 55 c0          	mov    -0x40(%rbp),%rdx
    24bf:	48 8b 45 d8          	mov    -0x28(%rbp),%rax
    24c3:	48 89 d9             	mov    %rbx,%rcx
    24c6:	48 89 c7             	mov    %rax,%rdi
    24c9:	e8 ca 06 00 00       	callq  2b98 <_ZSt34__uninitialized_move_if_noexcept_aIPiS0_SaIiEET0_T_S3_S2_RT1_>
    24ce:	48 89 45 e8          	mov    %rax,-0x18(%rbp)
    24d2:	48 83 45 e8 04       	addq   $0x4,-0x18(%rbp)
    24d7:	48 8b 45 a8          	mov    -0x58(%rbp),%rax
    24db:	48 89 c7             	mov    %rax,%rdi
    24de:	e8 1b fd ff ff       	callq  21fe <_ZNSt12_Vector_baseIiSaIiEE19_M_get_Tp_allocatorEv>
    24e3:	48 89 c3             	mov    %rax,%rbx
    24e6:	48 8d 45 a0          	lea    -0x60(%rbp),%rax
    24ea:	48 89 c7             	mov    %rax,%rdi
    24ed:	e8 98 06 00 00       	callq  2b8a <_ZNK9__gnu_cxx17__normal_iteratorIPiSt6vectorIiSaIiEEE4baseEv>
    24f2:	48 8b 00             	mov    (%rax),%rax
    24f5:	48 8b 55 e8          	mov    -0x18(%rbp),%rdx
    24f9:	48 8b 75 d0          	mov    -0x30(%rbp),%rsi
    24fd:	48 89 d9             	mov    %rbx,%rcx
    2500:	48 89 c7             	mov    %rax,%rdi
    2503:	e8 90 06 00 00       	callq  2b98 <_ZSt34__uninitialized_move_if_noexcept_aIPiS0_SaIiEET0_T_S3_S2_RT1_>
    2508:	48 89 45 e8          	mov    %rax,-0x18(%rbp)
    250c:	e8 30 fe ff ff       	callq  2341 <_ZNSt6vectorIiSaIiEE15_S_use_relocateEv>
    2511:	83 f0 01             	xor    $0x1,%eax
    2514:	84 c0                	test   %al,%al
    2516:	74 22                	je     253a <_ZNSt6vectorIiSaIiEE17_M_realloc_insertIJRKiEEEvN9__gnu_cxx17__normal_iteratorIPiS1_EEDpOT_+0x1de>
    2518:	48 8b 45 a8          	mov    -0x58(%rbp),%rax
    251c:	48 89 c7             	mov    %rax,%rdi
    251f:	e8 da fc ff ff       	callq  21fe <_ZNSt12_Vector_baseIiSaIiEE19_M_get_Tp_allocatorEv>
    2524:	48 89 c2             	mov    %rax,%rdx
    2527:	48 8b 4d d0          	mov    -0x30(%rbp),%rcx
    252b:	48 8b 45 d8          	mov    -0x28(%rbp),%rax
    252f:	48 89 ce             	mov    %rcx,%rsi
    2532:	48 89 c7             	mov    %rax,%rdi
    2535:	e8 d2 fc ff ff       	callq  220c <_ZSt8_DestroyIPiiEvT_S1_RSaIT0_E>
    253a:	48 8b 45 a8          	mov    -0x58(%rbp),%rax
    253e:	48 8b 55 a8          	mov    -0x58(%rbp),%rdx
    2542:	48 8b 52 10          	mov    0x10(%rdx),%rdx
    2546:	48 2b 55 d8          	sub    -0x28(%rbp),%rdx
    254a:	48 c1 fa 02          	sar    $0x2,%rdx
    254e:	48 8b 4d d8          	mov    -0x28(%rbp),%rcx
    2552:	48 89 ce             	mov    %rcx,%rsi
    2555:	48 89 c7             	mov    %rax,%rdi
    2558:	e8 6b fc ff ff       	callq  21c8 <_ZNSt12_Vector_baseIiSaIiEE13_M_deallocateEPim>
    255d:	48 8b 45 a8          	mov    -0x58(%rbp),%rax
    2561:	48 8b 55 c0          	mov    -0x40(%rbp),%rdx
    2565:	48 89 10             	mov    %rdx,(%rax)
    2568:	48 8b 45 a8          	mov    -0x58(%rbp),%rax
    256c:	48 8b 55 e8          	mov    -0x18(%rbp),%rdx
    2570:	48 89 50 08          	mov    %rdx,0x8(%rax)
    2574:	48 8b 45 e0          	mov    -0x20(%rbp),%rax
    2578:	48 8d 14 85 00 00 00 	lea    0x0(,%rax,4),%rdx
    257f:	00 
    2580:	48 8b 45 c0          	mov    -0x40(%rbp),%rax
    2584:	48 01 c2             	add    %rax,%rdx
    2587:	48 8b 45 a8          	mov    -0x58(%rbp),%rax
    258b:	48 89 50 10          	mov    %rdx,0x10(%rax)
    258f:	e9 84 00 00 00       	jmpq   2618 <_ZNSt6vectorIiSaIiEE17_M_realloc_insertIJRKiEEEvN9__gnu_cxx17__normal_iteratorIPiS1_EEDpOT_+0x2bc>
    2594:	48 89 c7             	mov    %rax,%rdi
    2597:	e8 a4 ea ff ff       	callq  1040 <__cxa_begin_catch@plt>
    259c:	48 83 7d e8 00       	cmpq   $0x0,-0x18(%rbp)
    25a1:	75 24                	jne    25c7 <_ZNSt6vectorIiSaIiEE17_M_realloc_insertIJRKiEEEvN9__gnu_cxx17__normal_iteratorIPiS1_EEDpOT_+0x26b>
    25a3:	48 8b 45 c8          	mov    -0x38(%rbp),%rax
    25a7:	48 8d 14 85 00 00 00 	lea    0x0(,%rax,4),%rdx
    25ae:	00 
    25af:	48 8b 45 c0          	mov    -0x40(%rbp),%rax
    25b3:	48 01 c2             	add    %rax,%rdx
    25b6:	48 8b 45 a8          	mov    -0x58(%rbp),%rax
    25ba:	48 89 d6             	mov    %rdx,%rsi
    25bd:	48 89 c7             	mov    %rax,%rdi
    25c0:	e8 27 06 00 00       	callq  2bec <_ZNSt16allocator_traitsISaIiEE7destroyIiEEvRS0_PT_>
    25c5:	eb 22                	jmp    25e9 <_ZNSt6vectorIiSaIiEE17_M_realloc_insertIJRKiEEEvN9__gnu_cxx17__normal_iteratorIPiS1_EEDpOT_+0x28d>
    25c7:	48 8b 45 a8          	mov    -0x58(%rbp),%rax
    25cb:	48 89 c7             	mov    %rax,%rdi
    25ce:	e8 2b fc ff ff       	callq  21fe <_ZNSt12_Vector_baseIiSaIiEE19_M_get_Tp_allocatorEv>
    25d3:	48 89 c2             	mov    %rax,%rdx
    25d6:	48 8b 4d e8          	mov    -0x18(%rbp),%rcx
    25da:	48 8b 45 c0          	mov    -0x40(%rbp),%rax
    25de:	48 89 ce             	mov    %rcx,%rsi
    25e1:	48 89 c7             	mov    %rax,%rdi
    25e4:	e8 23 fc ff ff       	callq  220c <_ZSt8_DestroyIPiiEvT_S1_RSaIT0_E>
    25e9:	48 8b 45 a8          	mov    -0x58(%rbp),%rax
    25ed:	48 8b 55 e0          	mov    -0x20(%rbp),%rdx
    25f1:	48 8b 4d c0          	mov    -0x40(%rbp),%rcx
    25f5:	48 89 ce             	mov    %rcx,%rsi
    25f8:	48 89 c7             	mov    %rax,%rdi
    25fb:	e8 c8 fb ff ff       	callq  21c8 <_ZNSt12_Vector_baseIiSaIiEE13_M_deallocateEPim>
    2600:	e8 1b eb ff ff       	callq  1120 <__cxa_rethrow@plt>
    2605:	48 89 c3             	mov    %rax,%rbx
    2608:	e8 43 eb ff ff       	callq  1150 <__cxa_end_catch@plt>
    260d:	48 89 d8             	mov    %rbx,%rax
    2610:	48 89 c7             	mov    %rax,%rdi
    2613:	e8 58 eb ff ff       	callq  1170 <_Unwind_Resume@plt>
    2618:	48 83 c4 68          	add    $0x68,%rsp
    261c:	5b                   	pop    %rbx
    261d:	5d                   	pop    %rbp
    261e:	c3                   	retq   
    261f:	90                   	nop

0000000000002620 <_ZN9__gnu_cxx13new_allocatorIiEC1Ev>:
    2620:	55                   	push   %rbp
    2621:	48 89 e5             	mov    %rsp,%rbp
    2624:	48 89 7d f8          	mov    %rdi,-0x8(%rbp)
    2628:	90                   	nop
    2629:	5d                   	pop    %rbp
    262a:	c3                   	retq   

000000000000262b <_ZNSt16allocator_traitsISaIiEE10deallocateERS0_Pim>:
    262b:	55                   	push   %rbp
    262c:	48 89 e5             	mov    %rsp,%rbp
    262f:	48 83 ec 20          	sub    $0x20,%rsp
    2633:	48 89 7d f8          	mov    %rdi,-0x8(%rbp)
    2637:	48 89 75 f0          	mov    %rsi,-0x10(%rbp)
    263b:	48 89 55 e8          	mov    %rdx,-0x18(%rbp)
    263f:	48 8b 55 e8          	mov    -0x18(%rbp),%rdx
    2643:	48 8b 4d f0          	mov    -0x10(%rbp),%rcx
    2647:	48 8b 45 f8          	mov    -0x8(%rbp),%rax
    264b:	48 89 ce             	mov    %rcx,%rsi
    264e:	48 89 c7             	mov    %rax,%rdi
    2651:	e8 bc 05 00 00       	callq  2c12 <_ZN9__gnu_cxx13new_allocatorIiE10deallocateEPim>
    2656:	90                   	nop
    2657:	c9                   	leaveq 
    2658:	c3                   	retq   

0000000000002659 <_ZSt8_DestroyIPiEvT_S1_>:
    2659:	55                   	push   %rbp
    265a:	48 89 e5             	mov    %rsp,%rbp
    265d:	48 83 ec 10          	sub    $0x10,%rsp
    2661:	48 89 7d f8          	mov    %rdi,-0x8(%rbp)
    2665:	48 89 75 f0          	mov    %rsi,-0x10(%rbp)
    2669:	48 8b 55 f0          	mov    -0x10(%rbp),%rdx
    266d:	48 8b 45 f8          	mov    -0x8(%rbp),%rax
    2671:	48 89 d6             	mov    %rdx,%rsi
    2674:	48 89 c7             	mov    %rax,%rdi
    2677:	e8 b9 05 00 00       	callq  2c35 <_ZNSt12_Destroy_auxILb1EE9__destroyIPiEEvT_S3_>
    267c:	90                   	nop
    267d:	c9                   	leaveq 
    267e:	c3                   	retq   

000000000000267f <_ZSt7forwardIiEOT_RNSt16remove_referenceIS0_E4typeE>:
    267f:	55                   	push   %rbp
    2680:	48 89 e5             	mov    %rsp,%rbp
    2683:	48 89 7d f8          	mov    %rdi,-0x8(%rbp)
    2687:	48 8b 45 f8          	mov    -0x8(%rbp),%rax
    268b:	5d                   	pop    %rbp
    268c:	c3                   	retq   

000000000000268d <_ZNSt16allocator_traitsISaIiEE9constructIiJiEEEvRS0_PT_DpOT0_>:
    268d:	55                   	push   %rbp
    268e:	48 89 e5             	mov    %rsp,%rbp
    2691:	48 83 ec 20          	sub    $0x20,%rsp
    2695:	48 89 7d f8          	mov    %rdi,-0x8(%rbp)
    2699:	48 89 75 f0          	mov    %rsi,-0x10(%rbp)
    269d:	48 89 55 e8          	mov    %rdx,-0x18(%rbp)
    26a1:	48 8b 45 e8          	mov    -0x18(%rbp),%rax
    26a5:	48 89 c7             	mov    %rax,%rdi
    26a8:	e8 d2 ff ff ff       	callq  267f <_ZSt7forwardIiEOT_RNSt16remove_referenceIS0_E4typeE>
    26ad:	48 89 c2             	mov    %rax,%rdx
    26b0:	48 8b 4d f0          	mov    -0x10(%rbp),%rcx
    26b4:	48 8b 45 f8          	mov    -0x8(%rbp),%rax
    26b8:	48 89 ce             	mov    %rcx,%rsi
    26bb:	48 89 c7             	mov    %rax,%rdi
    26be:	e8 81 05 00 00       	callq  2c44 <_ZN9__gnu_cxx13new_allocatorIiE9constructIiJiEEEvPT_DpOT0_>
    26c3:	90                   	nop
    26c4:	c9                   	leaveq 
    26c5:	c3                   	retq   

00000000000026c6 <_ZNSt6vectorIiSaIiEE17_M_realloc_insertIJiEEEvN9__gnu_cxx17__normal_iteratorIPiS1_EEDpOT_>:
    26c6:	55                   	push   %rbp
    26c7:	48 89 e5             	mov    %rsp,%rbp
    26ca:	53                   	push   %rbx
    26cb:	48 83 ec 68          	sub    $0x68,%rsp
    26cf:	48 89 7d a8          	mov    %rdi,-0x58(%rbp)
    26d3:	48 89 75 a0          	mov    %rsi,-0x60(%rbp)
    26d7:	48 89 55 98          	mov    %rdx,-0x68(%rbp)
    26db:	48 8b 45 a8          	mov    -0x58(%rbp),%rax
    26df:	48 8d 15 25 19 00 00 	lea    0x1925(%rip),%rdx        # 400b <_ZStL6ignore+0x5>
    26e6:	be 01 00 00 00       	mov    $0x1,%esi
    26eb:	48 89 c7             	mov    %rax,%rdi
    26ee:	e8 01 03 00 00       	callq  29f4 <_ZNKSt6vectorIiSaIiEE12_M_check_lenEmPKc>
    26f3:	48 89 45 e0          	mov    %rax,-0x20(%rbp)
    26f7:	48 8b 45 a8          	mov    -0x58(%rbp),%rax
    26fb:	48 8b 00             	mov    (%rax),%rax
    26fe:	48 89 45 d8          	mov    %rax,-0x28(%rbp)
    2702:	48 8b 45 a8          	mov    -0x58(%rbp),%rax
    2706:	48 8b 40 08          	mov    0x8(%rax),%rax
    270a:	48 89 45 d0          	mov    %rax,-0x30(%rbp)
    270e:	48 8b 45 a8          	mov    -0x58(%rbp),%rax
    2712:	48 89 c7             	mov    %rax,%rdi
    2715:	e8 a4 03 00 00       	callq  2abe <_ZNSt6vectorIiSaIiEE5beginEv>
    271a:	48 89 45 b8          	mov    %rax,-0x48(%rbp)
    271e:	48 8d 55 b8          	lea    -0x48(%rbp),%rdx
    2722:	48 8d 45 a0          	lea    -0x60(%rbp),%rax
    2726:	48 89 d6             	mov    %rdx,%rsi
    2729:	48 89 c7             	mov    %rax,%rdi
    272c:	e8 b2 03 00 00       	callq  2ae3 <_ZN9__gnu_cxxmiIPiSt6vectorIiSaIiEEEENS_17__normal_iteratorIT_T0_E15difference_typeERKS8_SB_>
    2731:	48 89 45 c8          	mov    %rax,-0x38(%rbp)
    2735:	48 8b 45 a8          	mov    -0x58(%rbp),%rax
    2739:	48 8b 55 e0          	mov    -0x20(%rbp),%rdx
    273d:	48 89 d6             	mov    %rdx,%rsi
    2740:	48 89 c7             	mov    %rax,%rdi
    2743:	e8 dc 03 00 00       	callq  2b24 <_ZNSt12_Vector_baseIiSaIiEE11_M_allocateEm>
    2748:	48 89 45 c0          	mov    %rax,-0x40(%rbp)
    274c:	48 8b 45 c0          	mov    -0x40(%rbp),%rax
    2750:	48 89 45 e8          	mov    %rax,-0x18(%rbp)
    2754:	48 8b 45 98          	mov    -0x68(%rbp),%rax
    2758:	48 89 c7             	mov    %rax,%rdi
    275b:	e8 1f ff ff ff       	callq  267f <_ZSt7forwardIiEOT_RNSt16remove_referenceIS0_E4typeE>
    2760:	48 89 c2             	mov    %rax,%rdx
    2763:	48 8b 45 c8          	mov    -0x38(%rbp),%rax
    2767:	48 8d 0c 85 00 00 00 	lea    0x0(,%rax,4),%rcx
    276e:	00 
    276f:	48 8b 45 c0          	mov    -0x40(%rbp),%rax
    2773:	48 01 c1             	add    %rax,%rcx
    2776:	48 8b 45 a8          	mov    -0x58(%rbp),%rax
    277a:	48 89 ce             	mov    %rcx,%rsi
    277d:	48 89 c7             	mov    %rax,%rdi
    2780:	e8 08 ff ff ff       	callq  268d <_ZNSt16allocator_traitsISaIiEE9constructIiJiEEEvRS0_PT_DpOT0_>
    2785:	48 c7 45 e8 00 00 00 	movq   $0x0,-0x18(%rbp)
    278c:	00 
    278d:	e8 af fb ff ff       	callq  2341 <_ZNSt6vectorIiSaIiEE15_S_use_relocateEv>
    2792:	84 c0                	test   %al,%al
    2794:	74 71                	je     2807 <_ZNSt6vectorIiSaIiEE17_M_realloc_insertIJiEEEvN9__gnu_cxx17__normal_iteratorIPiS1_EEDpOT_+0x141>
    2796:	48 8b 45 a8          	mov    -0x58(%rbp),%rax
    279a:	48 89 c7             	mov    %rax,%rdi
    279d:	e8 5c fa ff ff       	callq  21fe <_ZNSt12_Vector_baseIiSaIiEE19_M_get_Tp_allocatorEv>
    27a2:	48 89 c3             	mov    %rax,%rbx
    27a5:	48 8d 45 a0          	lea    -0x60(%rbp),%rax
    27a9:	48 89 c7             	mov    %rax,%rdi
    27ac:	e8 d9 03 00 00       	callq  2b8a <_ZNK9__gnu_cxx17__normal_iteratorIPiSt6vectorIiSaIiEEE4baseEv>
    27b1:	48 8b 30             	mov    (%rax),%rsi
    27b4:	48 8b 55 c0          	mov    -0x40(%rbp),%rdx
    27b8:	48 8b 45 d8          	mov    -0x28(%rbp),%rax
    27bc:	48 89 d9             	mov    %rbx,%rcx
    27bf:	48 89 c7             	mov    %rax,%rdi
    27c2:	e8 90 03 00 00       	callq  2b57 <_ZNSt6vectorIiSaIiEE11_S_relocateEPiS2_S2_RS0_>
    27c7:	48 89 45 e8          	mov    %rax,-0x18(%rbp)
    27cb:	48 83 45 e8 04       	addq   $0x4,-0x18(%rbp)
    27d0:	48 8b 45 a8          	mov    -0x58(%rbp),%rax
    27d4:	48 89 c7             	mov    %rax,%rdi
    27d7:	e8 22 fa ff ff       	callq  21fe <_ZNSt12_Vector_baseIiSaIiEE19_M_get_Tp_allocatorEv>
    27dc:	48 89 c3             	mov    %rax,%rbx
    27df:	48 8d 45 a0          	lea    -0x60(%rbp),%rax
    27e3:	48 89 c7             	mov    %rax,%rdi
    27e6:	e8 9f 03 00 00       	callq  2b8a <_ZNK9__gnu_cxx17__normal_iteratorIPiSt6vectorIiSaIiEEE4baseEv>
    27eb:	48 8b 00             	mov    (%rax),%rax
    27ee:	48 8b 55 e8          	mov    -0x18(%rbp),%rdx
    27f2:	48 8b 75 d0          	mov    -0x30(%rbp),%rsi
    27f6:	48 89 d9             	mov    %rbx,%rcx
    27f9:	48 89 c7             	mov    %rax,%rdi
    27fc:	e8 56 03 00 00       	callq  2b57 <_ZNSt6vectorIiSaIiEE11_S_relocateEPiS2_S2_RS0_>
    2801:	48 89 45 e8          	mov    %rax,-0x18(%rbp)
    2805:	eb 6f                	jmp    2876 <_ZNSt6vectorIiSaIiEE17_M_realloc_insertIJiEEEvN9__gnu_cxx17__normal_iteratorIPiS1_EEDpOT_+0x1b0>
    2807:	48 8b 45 a8          	mov    -0x58(%rbp),%rax
    280b:	48 89 c7             	mov    %rax,%rdi
    280e:	e8 eb f9 ff ff       	callq  21fe <_ZNSt12_Vector_baseIiSaIiEE19_M_get_Tp_allocatorEv>
    2813:	48 89 c3             	mov    %rax,%rbx
    2816:	48 8d 45 a0          	lea    -0x60(%rbp),%rax
    281a:	48 89 c7             	mov    %rax,%rdi
    281d:	e8 68 03 00 00       	callq  2b8a <_ZNK9__gnu_cxx17__normal_iteratorIPiSt6vectorIiSaIiEEE4baseEv>
    2822:	48 8b 30             	mov    (%rax),%rsi
    2825:	48 8b 55 c0          	mov    -0x40(%rbp),%rdx
    2829:	48 8b 45 d8          	mov    -0x28(%rbp),%rax
    282d:	48 89 d9             	mov    %rbx,%rcx
    2830:	48 89 c7             	mov    %rax,%rdi
    2833:	e8 60 03 00 00       	callq  2b98 <_ZSt34__uninitialized_move_if_noexcept_aIPiS0_SaIiEET0_T_S3_S2_RT1_>
    2838:	48 89 45 e8          	mov    %rax,-0x18(%rbp)
    283c:	48 83 45 e8 04       	addq   $0x4,-0x18(%rbp)
    2841:	48 8b 45 a8          	mov    -0x58(%rbp),%rax
    2845:	48 89 c7             	mov    %rax,%rdi
    2848:	e8 b1 f9 ff ff       	callq  21fe <_ZNSt12_Vector_baseIiSaIiEE19_M_get_Tp_allocatorEv>
    284d:	48 89 c3             	mov    %rax,%rbx
    2850:	48 8d 45 a0          	lea    -0x60(%rbp),%rax
    2854:	48 89 c7             	mov    %rax,%rdi
    2857:	e8 2e 03 00 00       	callq  2b8a <_ZNK9__gnu_cxx17__normal_iteratorIPiSt6vectorIiSaIiEEE4baseEv>
    285c:	48 8b 00             	mov    (%rax),%rax
    285f:	48 8b 55 e8          	mov    -0x18(%rbp),%rdx
    2863:	48 8b 75 d0          	mov    -0x30(%rbp),%rsi
    2867:	48 89 d9             	mov    %rbx,%rcx
    286a:	48 89 c7             	mov    %rax,%rdi
    286d:	e8 26 03 00 00       	callq  2b98 <_ZSt34__uninitialized_move_if_noexcept_aIPiS0_SaIiEET0_T_S3_S2_RT1_>
    2872:	48 89 45 e8          	mov    %rax,-0x18(%rbp)
    2876:	e8 c6 fa ff ff       	callq  2341 <_ZNSt6vectorIiSaIiEE15_S_use_relocateEv>
    287b:	83 f0 01             	xor    $0x1,%eax
    287e:	84 c0                	test   %al,%al
    2880:	74 22                	je     28a4 <_ZNSt6vectorIiSaIiEE17_M_realloc_insertIJiEEEvN9__gnu_cxx17__normal_iteratorIPiS1_EEDpOT_+0x1de>
    2882:	48 8b 45 a8          	mov    -0x58(%rbp),%rax
    2886:	48 89 c7             	mov    %rax,%rdi
    2889:	e8 70 f9 ff ff       	callq  21fe <_ZNSt12_Vector_baseIiSaIiEE19_M_get_Tp_allocatorEv>
    288e:	48 89 c2             	mov    %rax,%rdx
    2891:	48 8b 4d d0          	mov    -0x30(%rbp),%rcx
    2895:	48 8b 45 d8          	mov    -0x28(%rbp),%rax
    2899:	48 89 ce             	mov    %rcx,%rsi
    289c:	48 89 c7             	mov    %rax,%rdi
    289f:	e8 68 f9 ff ff       	callq  220c <_ZSt8_DestroyIPiiEvT_S1_RSaIT0_E>
    28a4:	48 8b 45 a8          	mov    -0x58(%rbp),%rax
    28a8:	48 8b 55 a8          	mov    -0x58(%rbp),%rdx
    28ac:	48 8b 52 10          	mov    0x10(%rdx),%rdx
    28b0:	48 2b 55 d8          	sub    -0x28(%rbp),%rdx
    28b4:	48 c1 fa 02          	sar    $0x2,%rdx
    28b8:	48 8b 4d d8          	mov    -0x28(%rbp),%rcx
    28bc:	48 89 ce             	mov    %rcx,%rsi
    28bf:	48 89 c7             	mov    %rax,%rdi
    28c2:	e8 01 f9 ff ff       	callq  21c8 <_ZNSt12_Vector_baseIiSaIiEE13_M_deallocateEPim>
    28c7:	48 8b 45 a8          	mov    -0x58(%rbp),%rax
    28cb:	48 8b 55 c0          	mov    -0x40(%rbp),%rdx
    28cf:	48 89 10             	mov    %rdx,(%rax)
    28d2:	48 8b 45 a8          	mov    -0x58(%rbp),%rax
    28d6:	48 8b 55 e8          	mov    -0x18(%rbp),%rdx
    28da:	48 89 50 08          	mov    %rdx,0x8(%rax)
    28de:	48 8b 45 e0          	mov    -0x20(%rbp),%rax
    28e2:	48 8d 14 85 00 00 00 	lea    0x0(,%rax,4),%rdx
    28e9:	00 
    28ea:	48 8b 45 c0          	mov    -0x40(%rbp),%rax
    28ee:	48 01 c2             	add    %rax,%rdx
    28f1:	48 8b 45 a8          	mov    -0x58(%rbp),%rax
    28f5:	48 89 50 10          	mov    %rdx,0x10(%rax)
    28f9:	e9 84 00 00 00       	jmpq   2982 <_ZNSt6vectorIiSaIiEE17_M_realloc_insertIJiEEEvN9__gnu_cxx17__normal_iteratorIPiS1_EEDpOT_+0x2bc>
    28fe:	48 89 c7             	mov    %rax,%rdi
    2901:	e8 3a e7 ff ff       	callq  1040 <__cxa_begin_catch@plt>
    2906:	48 83 7d e8 00       	cmpq   $0x0,-0x18(%rbp)
    290b:	75 24                	jne    2931 <_ZNSt6vectorIiSaIiEE17_M_realloc_insertIJiEEEvN9__gnu_cxx17__normal_iteratorIPiS1_EEDpOT_+0x26b>
    290d:	48 8b 45 c8          	mov    -0x38(%rbp),%rax
    2911:	48 8d 14 85 00 00 00 	lea    0x0(,%rax,4),%rdx
    2918:	00 
    2919:	48 8b 45 c0          	mov    -0x40(%rbp),%rax
    291d:	48 01 c2             	add    %rax,%rdx
    2920:	48 8b 45 a8          	mov    -0x58(%rbp),%rax
    2924:	48 89 d6             	mov    %rdx,%rsi
    2927:	48 89 c7             	mov    %rax,%rdi
    292a:	e8 bd 02 00 00       	callq  2bec <_ZNSt16allocator_traitsISaIiEE7destroyIiEEvRS0_PT_>
    292f:	eb 22                	jmp    2953 <_ZNSt6vectorIiSaIiEE17_M_realloc_insertIJiEEEvN9__gnu_cxx17__normal_iteratorIPiS1_EEDpOT_+0x28d>
    2931:	48 8b 45 a8          	mov    -0x58(%rbp),%rax
    2935:	48 89 c7             	mov    %rax,%rdi
    2938:	e8 c1 f8 ff ff       	callq  21fe <_ZNSt12_Vector_baseIiSaIiEE19_M_get_Tp_allocatorEv>
    293d:	48 89 c2             	mov    %rax,%rdx
    2940:	48 8b 4d e8          	mov    -0x18(%rbp),%rcx
    2944:	48 8b 45 c0          	mov    -0x40(%rbp),%rax
    2948:	48 89 ce             	mov    %rcx,%rsi
    294b:	48 89 c7             	mov    %rax,%rdi
    294e:	e8 b9 f8 ff ff       	callq  220c <_ZSt8_DestroyIPiiEvT_S1_RSaIT0_E>
    2953:	48 8b 45 a8          	mov    -0x58(%rbp),%rax
    2957:	48 8b 55 e0          	mov    -0x20(%rbp),%rdx
    295b:	48 8b 4d c0          	mov    -0x40(%rbp),%rcx
    295f:	48 89 ce             	mov    %rcx,%rsi
    2962:	48 89 c7             	mov    %rax,%rdi
    2965:	e8 5e f8 ff ff       	callq  21c8 <_ZNSt12_Vector_baseIiSaIiEE13_M_deallocateEPim>
    296a:	e8 b1 e7 ff ff       	callq  1120 <__cxa_rethrow@plt>
    296f:	48 89 c3             	mov    %rax,%rbx
    2972:	e8 d9 e7 ff ff       	callq  1150 <__cxa_end_catch@plt>
    2977:	48 89 d8             	mov    %rbx,%rax
    297a:	48 89 c7             	mov    %rax,%rdi
    297d:	e8 ee e7 ff ff       	callq  1170 <_Unwind_Resume@plt>
    2982:	48 83 c4 68          	add    $0x68,%rsp
    2986:	5b                   	pop    %rbx
    2987:	5d                   	pop    %rbp
    2988:	c3                   	retq   

0000000000002989 <_ZSt7forwardIRKiEOT_RNSt16remove_referenceIS2_E4typeE>:
    2989:	55                   	push   %rbp
    298a:	48 89 e5             	mov    %rsp,%rbp
    298d:	48 89 7d f8          	mov    %rdi,-0x8(%rbp)
    2991:	48 8b 45 f8          	mov    -0x8(%rbp),%rax
    2995:	5d                   	pop    %rbp
    2996:	c3                   	retq   
    2997:	90                   	nop

0000000000002998 <_ZN9__gnu_cxx13new_allocatorIiE9constructIiJRKiEEEvPT_DpOT0_>:
    2998:	55                   	push   %rbp
    2999:	48 89 e5             	mov    %rsp,%rbp
    299c:	53                   	push   %rbx
    299d:	48 83 ec 28          	sub    $0x28,%rsp
    29a1:	48 89 7d e8          	mov    %rdi,-0x18(%rbp)
    29a5:	48 89 75 e0          	mov    %rsi,-0x20(%rbp)
    29a9:	48 89 55 d8          	mov    %rdx,-0x28(%rbp)
    29ad:	48 8b 45 d8          	mov    -0x28(%rbp),%rax
    29b1:	48 89 c7             	mov    %rax,%rdi
    29b4:	e8 d0 ff ff ff       	callq  2989 <_ZSt7forwardIRKiEOT_RNSt16remove_referenceIS2_E4typeE>
    29b9:	8b 18                	mov    (%rax),%ebx
    29bb:	48 8b 45 e0          	mov    -0x20(%rbp),%rax
    29bf:	48 89 c6             	mov    %rax,%rsi
    29c2:	bf 04 00 00 00       	mov    $0x4,%edi
    29c7:	e8 78 f5 ff ff       	callq  1f44 <_ZnwmPv>
    29cc:	89 18                	mov    %ebx,(%rax)
    29ce:	90                   	nop
    29cf:	48 83 c4 28          	add    $0x28,%rsp
    29d3:	5b                   	pop    %rbx
    29d4:	5d                   	pop    %rbp
    29d5:	c3                   	retq   

00000000000029d6 <_ZN9__gnu_cxx17__normal_iteratorIPiSt6vectorIiSaIiEEEC1ERKS1_>:
    29d6:	55                   	push   %rbp
    29d7:	48 89 e5             	mov    %rsp,%rbp
    29da:	48 89 7d f8          	mov    %rdi,-0x8(%rbp)
    29de:	48 89 75 f0          	mov    %rsi,-0x10(%rbp)
    29e2:	48 8b 45 f0          	mov    -0x10(%rbp),%rax
    29e6:	48 8b 10             	mov    (%rax),%rdx
    29e9:	48 8b 45 f8          	mov    -0x8(%rbp),%rax
    29ed:	48 89 10             	mov    %rdx,(%rax)
    29f0:	90                   	nop
    29f1:	5d                   	pop    %rbp
    29f2:	c3                   	retq   
    29f3:	90                   	nop

00000000000029f4 <_ZNKSt6vectorIiSaIiEE12_M_check_lenEmPKc>:
    29f4:	55                   	push   %rbp
    29f5:	48 89 e5             	mov    %rsp,%rbp
    29f8:	53                   	push   %rbx
    29f9:	48 83 ec 38          	sub    $0x38,%rsp
    29fd:	48 89 7d d8          	mov    %rdi,-0x28(%rbp)
    2a01:	48 89 75 d0          	mov    %rsi,-0x30(%rbp)
    2a05:	48 89 55 c8          	mov    %rdx,-0x38(%rbp)
    2a09:	48 8b 45 d8          	mov    -0x28(%rbp),%rax
    2a0d:	48 89 c7             	mov    %rax,%rdi
    2a10:	e8 6d 02 00 00       	callq  2c82 <_ZNKSt6vectorIiSaIiEE8max_sizeEv>
    2a15:	48 89 c3             	mov    %rax,%rbx
    2a18:	48 8b 45 d8          	mov    -0x28(%rbp),%rax
    2a1c:	48 89 c7             	mov    %rax,%rdi
    2a1f:	e8 8e f6 ff ff       	callq  20b2 <_ZNKSt6vectorIiSaIiEE4sizeEv>
    2a24:	48 29 c3             	sub    %rax,%rbx
    2a27:	48 89 da             	mov    %rbx,%rdx
    2a2a:	48 8b 45 d0          	mov    -0x30(%rbp),%rax
    2a2e:	48 39 c2             	cmp    %rax,%rdx
    2a31:	0f 92 c0             	setb   %al
    2a34:	84 c0                	test   %al,%al
    2a36:	74 0c                	je     2a44 <_ZNKSt6vectorIiSaIiEE12_M_check_lenEmPKc+0x50>
    2a38:	48 8b 45 c8          	mov    -0x38(%rbp),%rax
    2a3c:	48 89 c7             	mov    %rax,%rdi
    2a3f:	e8 1c e6 ff ff       	callq  1060 <_ZSt20__throw_length_errorPKc@plt>
    2a44:	48 8b 45 d8          	mov    -0x28(%rbp),%rax
    2a48:	48 89 c7             	mov    %rax,%rdi
    2a4b:	e8 62 f6 ff ff       	callq  20b2 <_ZNKSt6vectorIiSaIiEE4sizeEv>
    2a50:	48 89 c3             	mov    %rax,%rbx
    2a53:	48 8b 45 d8          	mov    -0x28(%rbp),%rax
    2a57:	48 89 c7             	mov    %rax,%rdi
    2a5a:	e8 53 f6 ff ff       	callq  20b2 <_ZNKSt6vectorIiSaIiEE4sizeEv>
    2a5f:	48 89 45 e0          	mov    %rax,-0x20(%rbp)
    2a63:	48 8d 55 d0          	lea    -0x30(%rbp),%rdx
    2a67:	48 8d 45 e0          	lea    -0x20(%rbp),%rax
    2a6b:	48 89 d6             	mov    %rdx,%rsi
    2a6e:	48 89 c7             	mov    %rax,%rdi
    2a71:	e8 2e 02 00 00       	callq  2ca4 <_ZSt3maxImERKT_S2_S2_>
    2a76:	48 8b 00             	mov    (%rax),%rax
    2a79:	48 01 d8             	add    %rbx,%rax
    2a7c:	48 89 45 e8          	mov    %rax,-0x18(%rbp)
    2a80:	48 8b 45 d8          	mov    -0x28(%rbp),%rax
    2a84:	48 89 c7             	mov    %rax,%rdi
    2a87:	e8 26 f6 ff ff       	callq  20b2 <_ZNKSt6vectorIiSaIiEE4sizeEv>
    2a8c:	48 39 45 e8          	cmp    %rax,-0x18(%rbp)
    2a90:	72 12                	jb     2aa4 <_ZNKSt6vectorIiSaIiEE12_M_check_lenEmPKc+0xb0>
    2a92:	48 8b 45 d8          	mov    -0x28(%rbp),%rax
    2a96:	48 89 c7             	mov    %rax,%rdi
    2a99:	e8 e4 01 00 00       	callq  2c82 <_ZNKSt6vectorIiSaIiEE8max_sizeEv>
    2a9e:	48 39 45 e8          	cmp    %rax,-0x18(%rbp)
    2aa2:	76 0e                	jbe    2ab2 <_ZNKSt6vectorIiSaIiEE12_M_check_lenEmPKc+0xbe>
    2aa4:	48 8b 45 d8          	mov    -0x28(%rbp),%rax
    2aa8:	48 89 c7             	mov    %rax,%rdi
    2aab:	e8 d2 01 00 00       	callq  2c82 <_ZNKSt6vectorIiSaIiEE8max_sizeEv>
    2ab0:	eb 04                	jmp    2ab6 <_ZNKSt6vectorIiSaIiEE12_M_check_lenEmPKc+0xc2>
    2ab2:	48 8b 45 e8          	mov    -0x18(%rbp),%rax
    2ab6:	48 83 c4 38          	add    $0x38,%rsp
    2aba:	5b                   	pop    %rbx
    2abb:	5d                   	pop    %rbp
    2abc:	c3                   	retq   
    2abd:	90                   	nop

0000000000002abe <_ZNSt6vectorIiSaIiEE5beginEv>:
    2abe:	55                   	push   %rbp
    2abf:	48 89 e5             	mov    %rsp,%rbp
    2ac2:	48 83 ec 20          	sub    $0x20,%rsp
    2ac6:	48 89 7d e8          	mov    %rdi,-0x18(%rbp)
    2aca:	48 8b 55 e8          	mov    -0x18(%rbp),%rdx
    2ace:	48 8d 45 f8          	lea    -0x8(%rbp),%rax
    2ad2:	48 89 d6             	mov    %rdx,%rsi
    2ad5:	48 89 c7             	mov    %rax,%rdi
    2ad8:	e8 f9 fe ff ff       	callq  29d6 <_ZN9__gnu_cxx17__normal_iteratorIPiSt6vectorIiSaIiEEEC1ERKS1_>
    2add:	48 8b 45 f8          	mov    -0x8(%rbp),%rax
    2ae1:	c9                   	leaveq 
    2ae2:	c3                   	retq   

0000000000002ae3 <_ZN9__gnu_cxxmiIPiSt6vectorIiSaIiEEEENS_17__normal_iteratorIT_T0_E15difference_typeERKS8_SB_>:
    2ae3:	55                   	push   %rbp
    2ae4:	48 89 e5             	mov    %rsp,%rbp
    2ae7:	53                   	push   %rbx
    2ae8:	48 83 ec 18          	sub    $0x18,%rsp
    2aec:	48 89 7d e8          	mov    %rdi,-0x18(%rbp)
    2af0:	48 89 75 e0          	mov    %rsi,-0x20(%rbp)
    2af4:	48 8b 45 e8          	mov    -0x18(%rbp),%rax
    2af8:	48 89 c7             	mov    %rax,%rdi
    2afb:	e8 8a 00 00 00       	callq  2b8a <_ZNK9__gnu_cxx17__normal_iteratorIPiSt6vectorIiSaIiEEE4baseEv>
    2b00:	48 8b 18             	mov    (%rax),%rbx
    2b03:	48 8b 45 e0          	mov    -0x20(%rbp),%rax
    2b07:	48 89 c7             	mov    %rax,%rdi
    2b0a:	e8 7b 00 00 00       	callq  2b8a <_ZNK9__gnu_cxx17__normal_iteratorIPiSt6vectorIiSaIiEEE4baseEv>
    2b0f:	48 8b 00             	mov    (%rax),%rax
    2b12:	48 29 c3             	sub    %rax,%rbx
    2b15:	48 89 d8             	mov    %rbx,%rax
    2b18:	48 c1 f8 02          	sar    $0x2,%rax
    2b1c:	48 83 c4 18          	add    $0x18,%rsp
    2b20:	5b                   	pop    %rbx
    2b21:	5d                   	pop    %rbp
    2b22:	c3                   	retq   
    2b23:	90                   	nop

0000000000002b24 <_ZNSt12_Vector_baseIiSaIiEE11_M_allocateEm>:
    2b24:	55                   	push   %rbp
    2b25:	48 89 e5             	mov    %rsp,%rbp
    2b28:	48 83 ec 10          	sub    $0x10,%rsp
    2b2c:	48 89 7d f8          	mov    %rdi,-0x8(%rbp)
    2b30:	48 89 75 f0          	mov    %rsi,-0x10(%rbp)
    2b34:	48 83 7d f0 00       	cmpq   $0x0,-0x10(%rbp)
    2b39:	74 15                	je     2b50 <_ZNSt12_Vector_baseIiSaIiEE11_M_allocateEm+0x2c>
    2b3b:	48 8b 45 f8          	mov    -0x8(%rbp),%rax
    2b3f:	48 8b 55 f0          	mov    -0x10(%rbp),%rdx
    2b43:	48 89 d6             	mov    %rdx,%rsi
    2b46:	48 89 c7             	mov    %rax,%rdi
    2b49:	e8 81 01 00 00       	callq  2ccf <_ZNSt16allocator_traitsISaIiEE8allocateERS0_m>
    2b4e:	eb 05                	jmp    2b55 <_ZNSt12_Vector_baseIiSaIiEE11_M_allocateEm+0x31>
    2b50:	b8 00 00 00 00       	mov    $0x0,%eax
    2b55:	c9                   	leaveq 
    2b56:	c3                   	retq   

0000000000002b57 <_ZNSt6vectorIiSaIiEE11_S_relocateEPiS2_S2_RS0_>:
    2b57:	55                   	push   %rbp
    2b58:	48 89 e5             	mov    %rsp,%rbp
    2b5b:	48 83 ec 30          	sub    $0x30,%rsp
    2b5f:	48 89 7d e8          	mov    %rdi,-0x18(%rbp)
    2b63:	48 89 75 e0          	mov    %rsi,-0x20(%rbp)
    2b67:	48 89 55 d8          	mov    %rdx,-0x28(%rbp)
    2b6b:	48 89 4d d0          	mov    %rcx,-0x30(%rbp)
    2b6f:	48 8b 4d d0          	mov    -0x30(%rbp),%rcx
    2b73:	48 8b 55 d8          	mov    -0x28(%rbp),%rdx
    2b77:	48 8b 75 e0          	mov    -0x20(%rbp),%rsi
    2b7b:	48 8b 45 e8          	mov    -0x18(%rbp),%rax
    2b7f:	48 89 c7             	mov    %rax,%rdi
    2b82:	e8 72 01 00 00       	callq  2cf9 <_ZNSt6vectorIiSaIiEE14_S_do_relocateEPiS2_S2_RS0_St17integral_constantIbLb1EE>
    2b87:	c9                   	leaveq 
    2b88:	c3                   	retq   
    2b89:	90                   	nop

0000000000002b8a <_ZNK9__gnu_cxx17__normal_iteratorIPiSt6vectorIiSaIiEEE4baseEv>:
    2b8a:	55                   	push   %rbp
    2b8b:	48 89 e5             	mov    %rsp,%rbp
    2b8e:	48 89 7d f8          	mov    %rdi,-0x8(%rbp)
    2b92:	48 8b 45 f8          	mov    -0x8(%rbp),%rax
    2b96:	5d                   	pop    %rbp
    2b97:	c3                   	retq   

0000000000002b98 <_ZSt34__uninitialized_move_if_noexcept_aIPiS0_SaIiEET0_T_S3_S2_RT1_>:
    2b98:	55                   	push   %rbp
    2b99:	48 89 e5             	mov    %rsp,%rbp
    2b9c:	53                   	push   %rbx
    2b9d:	48 83 ec 28          	sub    $0x28,%rsp
    2ba1:	48 89 7d e8          	mov    %rdi,-0x18(%rbp)
    2ba5:	48 89 75 e0          	mov    %rsi,-0x20(%rbp)
    2ba9:	48 89 55 d8          	mov    %rdx,-0x28(%rbp)
    2bad:	48 89 4d d0          	mov    %rcx,-0x30(%rbp)
    2bb1:	48 8b 45 e0          	mov    -0x20(%rbp),%rax
    2bb5:	48 89 c7             	mov    %rax,%rdi
    2bb8:	e8 6e 01 00 00       	callq  2d2b <_ZSt32__make_move_if_noexcept_iteratorIiSt13move_iteratorIPiEET0_PT_>
    2bbd:	48 89 c3             	mov    %rax,%rbx
    2bc0:	48 8b 45 e8          	mov    -0x18(%rbp),%rax
    2bc4:	48 89 c7             	mov    %rax,%rdi
    2bc7:	e8 5f 01 00 00       	callq  2d2b <_ZSt32__make_move_if_noexcept_iteratorIiSt13move_iteratorIPiEET0_PT_>
    2bcc:	48 89 c7             	mov    %rax,%rdi
    2bcf:	48 8b 55 d0          	mov    -0x30(%rbp),%rdx
    2bd3:	48 8b 45 d8          	mov    -0x28(%rbp),%rax
    2bd7:	48 89 d1             	mov    %rdx,%rcx
    2bda:	48 89 c2             	mov    %rax,%rdx
    2bdd:	48 89 de             	mov    %rbx,%rsi
    2be0:	e8 6b 01 00 00       	callq  2d50 <_ZSt22__uninitialized_copy_aISt13move_iteratorIPiES1_iET0_T_S4_S3_RSaIT1_E>
    2be5:	48 83 c4 28          	add    $0x28,%rsp
    2be9:	5b                   	pop    %rbx
    2bea:	5d                   	pop    %rbp
    2beb:	c3                   	retq   

0000000000002bec <_ZNSt16allocator_traitsISaIiEE7destroyIiEEvRS0_PT_>:
    2bec:	55                   	push   %rbp
    2bed:	48 89 e5             	mov    %rsp,%rbp
    2bf0:	48 83 ec 10          	sub    $0x10,%rsp
    2bf4:	48 89 7d f8          	mov    %rdi,-0x8(%rbp)
    2bf8:	48 89 75 f0          	mov    %rsi,-0x10(%rbp)
    2bfc:	48 8b 55 f0          	mov    -0x10(%rbp),%rdx
    2c00:	48 8b 45 f8          	mov    -0x8(%rbp),%rax
    2c04:	48 89 d6             	mov    %rdx,%rsi
    2c07:	48 89 c7             	mov    %rax,%rdi
    2c0a:	e8 73 01 00 00       	callq  2d82 <_ZN9__gnu_cxx13new_allocatorIiE7destroyIiEEvPT_>
    2c0f:	90                   	nop
    2c10:	c9                   	leaveq 
    2c11:	c3                   	retq   

0000000000002c12 <_ZN9__gnu_cxx13new_allocatorIiE10deallocateEPim>:
    2c12:	55                   	push   %rbp
    2c13:	48 89 e5             	mov    %rsp,%rbp
    2c16:	48 83 ec 20          	sub    $0x20,%rsp
    2c1a:	48 89 7d f8          	mov    %rdi,-0x8(%rbp)
    2c1e:	48 89 75 f0          	mov    %rsi,-0x10(%rbp)
    2c22:	48 89 55 e8          	mov    %rdx,-0x18(%rbp)
    2c26:	48 8b 45 f0          	mov    -0x10(%rbp),%rax
    2c2a:	48 89 c7             	mov    %rax,%rdi
    2c2d:	e8 8e e4 ff ff       	callq  10c0 <_ZdlPv@plt>
    2c32:	90                   	nop
    2c33:	c9                   	leaveq 
    2c34:	c3                   	retq   

0000000000002c35 <_ZNSt12_Destroy_auxILb1EE9__destroyIPiEEvT_S3_>:
    2c35:	55                   	push   %rbp
    2c36:	48 89 e5             	mov    %rsp,%rbp
    2c39:	48 89 7d f8          	mov    %rdi,-0x8(%rbp)
    2c3d:	48 89 75 f0          	mov    %rsi,-0x10(%rbp)
    2c41:	90                   	nop
    2c42:	5d                   	pop    %rbp
    2c43:	c3                   	retq   

0000000000002c44 <_ZN9__gnu_cxx13new_allocatorIiE9constructIiJiEEEvPT_DpOT0_>:
    2c44:	55                   	push   %rbp
    2c45:	48 89 e5             	mov    %rsp,%rbp
    2c48:	53                   	push   %rbx
    2c49:	48 83 ec 28          	sub    $0x28,%rsp
    2c4d:	48 89 7d e8          	mov    %rdi,-0x18(%rbp)
    2c51:	48 89 75 e0          	mov    %rsi,-0x20(%rbp)
    2c55:	48 89 55 d8          	mov    %rdx,-0x28(%rbp)
    2c59:	48 8b 45 d8          	mov    -0x28(%rbp),%rax
    2c5d:	48 89 c7             	mov    %rax,%rdi
    2c60:	e8 1a fa ff ff       	callq  267f <_ZSt7forwardIiEOT_RNSt16remove_referenceIS0_E4typeE>
    2c65:	8b 18                	mov    (%rax),%ebx
    2c67:	48 8b 45 e0          	mov    -0x20(%rbp),%rax
    2c6b:	48 89 c6             	mov    %rax,%rsi
    2c6e:	bf 04 00 00 00       	mov    $0x4,%edi
    2c73:	e8 cc f2 ff ff       	callq  1f44 <_ZnwmPv>
    2c78:	89 18                	mov    %ebx,(%rax)
    2c7a:	90                   	nop
    2c7b:	48 83 c4 28          	add    $0x28,%rsp
    2c7f:	5b                   	pop    %rbx
    2c80:	5d                   	pop    %rbp
    2c81:	c3                   	retq   

0000000000002c82 <_ZNKSt6vectorIiSaIiEE8max_sizeEv>:
    2c82:	55                   	push   %rbp
    2c83:	48 89 e5             	mov    %rsp,%rbp
    2c86:	48 83 ec 10          	sub    $0x10,%rsp
    2c8a:	48 89 7d f8          	mov    %rdi,-0x8(%rbp)
    2c8e:	48 8b 45 f8          	mov    -0x8(%rbp),%rax
    2c92:	48 89 c7             	mov    %rax,%rdi
    2c95:	e8 3a 01 00 00       	callq  2dd4 <_ZNKSt12_Vector_baseIiSaIiEE19_M_get_Tp_allocatorEv>
    2c9a:	48 89 c7             	mov    %rax,%rdi
    2c9d:	e8 ef 00 00 00       	callq  2d91 <_ZNSt6vectorIiSaIiEE11_S_max_sizeERKS0_>
    2ca2:	c9                   	leaveq 
    2ca3:	c3                   	retq   

0000000000002ca4 <_ZSt3maxImERKT_S2_S2_>:
    2ca4:	55                   	push   %rbp
    2ca5:	48 89 e5             	mov    %rsp,%rbp
    2ca8:	48 89 7d f8          	mov    %rdi,-0x8(%rbp)
    2cac:	48 89 75 f0          	mov    %rsi,-0x10(%rbp)
    2cb0:	48 8b 45 f8          	mov    -0x8(%rbp),%rax
    2cb4:	48 8b 10             	mov    (%rax),%rdx
    2cb7:	48 8b 45 f0          	mov    -0x10(%rbp),%rax
    2cbb:	48 8b 00             	mov    (%rax),%rax
    2cbe:	48 39 c2             	cmp    %rax,%rdx
    2cc1:	73 06                	jae    2cc9 <_ZSt3maxImERKT_S2_S2_+0x25>
    2cc3:	48 8b 45 f0          	mov    -0x10(%rbp),%rax
    2cc7:	eb 04                	jmp    2ccd <_ZSt3maxImERKT_S2_S2_+0x29>
    2cc9:	48 8b 45 f8          	mov    -0x8(%rbp),%rax
    2ccd:	5d                   	pop    %rbp
    2cce:	c3                   	retq   

0000000000002ccf <_ZNSt16allocator_traitsISaIiEE8allocateERS0_m>:
    2ccf:	55                   	push   %rbp
    2cd0:	48 89 e5             	mov    %rsp,%rbp
    2cd3:	48 83 ec 10          	sub    $0x10,%rsp
    2cd7:	48 89 7d f8          	mov    %rdi,-0x8(%rbp)
    2cdb:	48 89 75 f0          	mov    %rsi,-0x10(%rbp)
    2cdf:	48 8b 4d f0          	mov    -0x10(%rbp),%rcx
    2ce3:	48 8b 45 f8          	mov    -0x8(%rbp),%rax
    2ce7:	ba 00 00 00 00       	mov    $0x0,%edx
    2cec:	48 89 ce             	mov    %rcx,%rsi
    2cef:	48 89 c7             	mov    %rax,%rdi
    2cf2:	e8 eb 00 00 00       	callq  2de2 <_ZN9__gnu_cxx13new_allocatorIiE8allocateEmPKv>
    2cf7:	c9                   	leaveq 
    2cf8:	c3                   	retq   

0000000000002cf9 <_ZNSt6vectorIiSaIiEE14_S_do_relocateEPiS2_S2_RS0_St17integral_constantIbLb1EE>:
    2cf9:	55                   	push   %rbp
    2cfa:	48 89 e5             	mov    %rsp,%rbp
    2cfd:	48 83 ec 20          	sub    $0x20,%rsp
    2d01:	48 89 7d f8          	mov    %rdi,-0x8(%rbp)
    2d05:	48 89 75 f0          	mov    %rsi,-0x10(%rbp)
    2d09:	48 89 55 e8          	mov    %rdx,-0x18(%rbp)
    2d0d:	48 89 4d e0          	mov    %rcx,-0x20(%rbp)
    2d11:	48 8b 4d e0          	mov    -0x20(%rbp),%rcx
    2d15:	48 8b 55 e8          	mov    -0x18(%rbp),%rdx
    2d19:	48 8b 75 f0          	mov    -0x10(%rbp),%rsi
    2d1d:	48 8b 45 f8          	mov    -0x8(%rbp),%rax
    2d21:	48 89 c7             	mov    %rax,%rdi
    2d24:	e8 fb 00 00 00       	callq  2e24 <_ZSt12__relocate_aIPiS0_SaIiEET0_T_S3_S2_RT1_>
    2d29:	c9                   	leaveq 
    2d2a:	c3                   	retq   

0000000000002d2b <_ZSt32__make_move_if_noexcept_iteratorIiSt13move_iteratorIPiEET0_PT_>:
    2d2b:	55                   	push   %rbp
    2d2c:	48 89 e5             	mov    %rsp,%rbp
    2d2f:	48 83 ec 20          	sub    $0x20,%rsp
    2d33:	48 89 7d e8          	mov    %rdi,-0x18(%rbp)
    2d37:	48 8b 55 e8          	mov    -0x18(%rbp),%rdx
    2d3b:	48 8d 45 f8          	lea    -0x8(%rbp),%rax
    2d3f:	48 89 d6             	mov    %rdx,%rsi
    2d42:	48 89 c7             	mov    %rax,%rdi
    2d45:	e8 3e 01 00 00       	callq  2e88 <_ZNSt13move_iteratorIPiEC1ES0_>
    2d4a:	48 8b 45 f8          	mov    -0x8(%rbp),%rax
    2d4e:	c9                   	leaveq 
    2d4f:	c3                   	retq   

0000000000002d50 <_ZSt22__uninitialized_copy_aISt13move_iteratorIPiES1_iET0_T_S4_S3_RSaIT1_E>:
    2d50:	55                   	push   %rbp
    2d51:	48 89 e5             	mov    %rsp,%rbp
    2d54:	48 83 ec 20          	sub    $0x20,%rsp
    2d58:	48 89 7d f8          	mov    %rdi,-0x8(%rbp)
    2d5c:	48 89 75 f0          	mov    %rsi,-0x10(%rbp)
    2d60:	48 89 55 e8          	mov    %rdx,-0x18(%rbp)
    2d64:	48 89 4d e0          	mov    %rcx,-0x20(%rbp)
    2d68:	48 8b 55 e8          	mov    -0x18(%rbp),%rdx
    2d6c:	48 8b 4d f0          	mov    -0x10(%rbp),%rcx
    2d70:	48 8b 45 f8          	mov    -0x8(%rbp),%rax
    2d74:	48 89 ce             	mov    %rcx,%rsi
    2d77:	48 89 c7             	mov    %rax,%rdi
    2d7a:	e8 23 01 00 00       	callq  2ea2 <_ZSt18uninitialized_copyISt13move_iteratorIPiES1_ET0_T_S4_S3_>
    2d7f:	c9                   	leaveq 
    2d80:	c3                   	retq   
    2d81:	90                   	nop

0000000000002d82 <_ZN9__gnu_cxx13new_allocatorIiE7destroyIiEEvPT_>:
    2d82:	55                   	push   %rbp
    2d83:	48 89 e5             	mov    %rsp,%rbp
    2d86:	48 89 7d f8          	mov    %rdi,-0x8(%rbp)
    2d8a:	48 89 75 f0          	mov    %rsi,-0x10(%rbp)
    2d8e:	90                   	nop
    2d8f:	5d                   	pop    %rbp
    2d90:	c3                   	retq   

0000000000002d91 <_ZNSt6vectorIiSaIiEE11_S_max_sizeERKS0_>:
    2d91:	55                   	push   %rbp
    2d92:	48 89 e5             	mov    %rsp,%rbp
    2d95:	48 83 ec 20          	sub    $0x20,%rsp
    2d99:	48 89 7d e8          	mov    %rdi,-0x18(%rbp)
    2d9d:	48 b8 ff ff ff ff ff 	movabs $0x1fffffffffffffff,%rax
    2da4:	ff ff 1f 
    2da7:	48 89 45 f8          	mov    %rax,-0x8(%rbp)
    2dab:	48 8b 45 e8          	mov    -0x18(%rbp),%rax
    2daf:	48 89 c7             	mov    %rax,%rdi
    2db2:	e8 1c 01 00 00       	callq  2ed3 <_ZNSt16allocator_traitsISaIiEE8max_sizeERKS0_>
    2db7:	48 89 45 f0          	mov    %rax,-0x10(%rbp)
    2dbb:	48 8d 55 f0          	lea    -0x10(%rbp),%rdx
    2dbf:	48 8d 45 f8          	lea    -0x8(%rbp),%rax
    2dc3:	48 89 d6             	mov    %rdx,%rsi
    2dc6:	48 89 c7             	mov    %rax,%rdi
    2dc9:	e8 1f 01 00 00       	callq  2eed <_ZSt3minImERKT_S2_S2_>
    2dce:	48 8b 00             	mov    (%rax),%rax
    2dd1:	c9                   	leaveq 
    2dd2:	c3                   	retq   
    2dd3:	90                   	nop

0000000000002dd4 <_ZNKSt12_Vector_baseIiSaIiEE19_M_get_Tp_allocatorEv>:
    2dd4:	55                   	push   %rbp
    2dd5:	48 89 e5             	mov    %rsp,%rbp
    2dd8:	48 89 7d f8          	mov    %rdi,-0x8(%rbp)
    2ddc:	48 8b 45 f8          	mov    -0x8(%rbp),%rax
    2de0:	5d                   	pop    %rbp
    2de1:	c3                   	retq   

0000000000002de2 <_ZN9__gnu_cxx13new_allocatorIiE8allocateEmPKv>:
    2de2:	55                   	push   %rbp
    2de3:	48 89 e5             	mov    %rsp,%rbp
    2de6:	48 83 ec 20          	sub    $0x20,%rsp
    2dea:	48 89 7d f8          	mov    %rdi,-0x8(%rbp)
    2dee:	48 89 75 f0          	mov    %rsi,-0x10(%rbp)
    2df2:	48 89 55 e8          	mov    %rdx,-0x18(%rbp)
    2df6:	48 8b 45 f8          	mov    -0x8(%rbp),%rax
    2dfa:	48 89 c7             	mov    %rax,%rdi
    2dfd:	e8 16 01 00 00       	callq  2f18 <_ZNK9__gnu_cxx13new_allocatorIiE8max_sizeEv>
    2e02:	48 39 45 f0          	cmp    %rax,-0x10(%rbp)
    2e06:	0f 97 c0             	seta   %al
    2e09:	84 c0                	test   %al,%al
    2e0b:	74 05                	je     2e12 <_ZN9__gnu_cxx13new_allocatorIiE8allocateEmPKv+0x30>
    2e0d:	e8 1e e2 ff ff       	callq  1030 <_ZSt17__throw_bad_allocv@plt>
    2e12:	48 8b 45 f0          	mov    -0x10(%rbp),%rax
    2e16:	48 c1 e0 02          	shl    $0x2,%rax
    2e1a:	48 89 c7             	mov    %rax,%rdi
    2e1d:	e8 be e2 ff ff       	callq  10e0 <_Znwm@plt>
    2e22:	c9                   	leaveq 
    2e23:	c3                   	retq   

0000000000002e24 <_ZSt12__relocate_aIPiS0_SaIiEET0_T_S3_S2_RT1_>:
    2e24:	55                   	push   %rbp
    2e25:	48 89 e5             	mov    %rsp,%rbp
    2e28:	41 54                	push   %r12
    2e2a:	53                   	push   %rbx
    2e2b:	48 83 ec 20          	sub    $0x20,%rsp
    2e2f:	48 89 7d e8          	mov    %rdi,-0x18(%rbp)
    2e33:	48 89 75 e0          	mov    %rsi,-0x20(%rbp)
    2e37:	48 89 55 d8          	mov    %rdx,-0x28(%rbp)
    2e3b:	48 89 4d d0          	mov    %rcx,-0x30(%rbp)
    2e3f:	48 8b 45 d8          	mov    -0x28(%rbp),%rax
    2e43:	48 89 c7             	mov    %rax,%rdi
    2e46:	e8 e1 00 00 00       	callq  2f2c <_ZSt12__niter_baseIPiET_S1_>
    2e4b:	49 89 c4             	mov    %rax,%r12
    2e4e:	48 8b 45 e0          	mov    -0x20(%rbp),%rax
    2e52:	48 89 c7             	mov    %rax,%rdi
    2e55:	e8 d2 00 00 00       	callq  2f2c <_ZSt12__niter_baseIPiET_S1_>
    2e5a:	48 89 c3             	mov    %rax,%rbx
    2e5d:	48 8b 45 e8          	mov    -0x18(%rbp),%rax
    2e61:	48 89 c7             	mov    %rax,%rdi
    2e64:	e8 c3 00 00 00       	callq  2f2c <_ZSt12__niter_baseIPiET_S1_>
    2e69:	48 89 c7             	mov    %rax,%rdi
    2e6c:	48 8b 45 d0          	mov    -0x30(%rbp),%rax
    2e70:	48 89 c1             	mov    %rax,%rcx
    2e73:	4c 89 e2             	mov    %r12,%rdx
    2e76:	48 89 de             	mov    %rbx,%rsi
    2e79:	e8 bc 00 00 00       	callq  2f3a <_ZSt14__relocate_a_1IiiENSt9enable_ifIXsrSt24__is_bitwise_relocatableIT_vE5valueEPS2_E4typeES4_S4_S4_RSaIT0_E>
    2e7e:	48 83 c4 20          	add    $0x20,%rsp
    2e82:	5b                   	pop    %rbx
    2e83:	41 5c                	pop    %r12
    2e85:	5d                   	pop    %rbp
    2e86:	c3                   	retq   
    2e87:	90                   	nop

0000000000002e88 <_ZNSt13move_iteratorIPiEC1ES0_>:
    2e88:	55                   	push   %rbp
    2e89:	48 89 e5             	mov    %rsp,%rbp
    2e8c:	48 89 7d f8          	mov    %rdi,-0x8(%rbp)
    2e90:	48 89 75 f0          	mov    %rsi,-0x10(%rbp)
    2e94:	48 8b 45 f8          	mov    -0x8(%rbp),%rax
    2e98:	48 8b 55 f0          	mov    -0x10(%rbp),%rdx
    2e9c:	48 89 10             	mov    %rdx,(%rax)
    2e9f:	90                   	nop
    2ea0:	5d                   	pop    %rbp
    2ea1:	c3                   	retq   

0000000000002ea2 <_ZSt18uninitialized_copyISt13move_iteratorIPiES1_ET0_T_S4_S3_>:
    2ea2:	55                   	push   %rbp
    2ea3:	48 89 e5             	mov    %rsp,%rbp
    2ea6:	48 83 ec 30          	sub    $0x30,%rsp
    2eaa:	48 89 7d e8          	mov    %rdi,-0x18(%rbp)
    2eae:	48 89 75 e0          	mov    %rsi,-0x20(%rbp)
    2eb2:	48 89 55 d8          	mov    %rdx,-0x28(%rbp)
    2eb6:	c6 45 ff 01          	movb   $0x1,-0x1(%rbp)
    2eba:	48 8b 55 d8          	mov    -0x28(%rbp),%rdx
    2ebe:	48 8b 4d e0          	mov    -0x20(%rbp),%rcx
    2ec2:	48 8b 45 e8          	mov    -0x18(%rbp),%rax
    2ec6:	48 89 ce             	mov    %rcx,%rsi
    2ec9:	48 89 c7             	mov    %rax,%rdi
    2ecc:	e8 cc 00 00 00       	callq  2f9d <_ZNSt20__uninitialized_copyILb1EE13__uninit_copyISt13move_iteratorIPiES3_EET0_T_S6_S5_>
    2ed1:	c9                   	leaveq 
    2ed2:	c3                   	retq   

0000000000002ed3 <_ZNSt16allocator_traitsISaIiEE8max_sizeERKS0_>:
    2ed3:	55                   	push   %rbp
    2ed4:	48 89 e5             	mov    %rsp,%rbp
    2ed7:	48 83 ec 10          	sub    $0x10,%rsp
    2edb:	48 89 7d f8          	mov    %rdi,-0x8(%rbp)
    2edf:	48 8b 45 f8          	mov    -0x8(%rbp),%rax
    2ee3:	48 89 c7             	mov    %rax,%rdi
    2ee6:	e8 2d 00 00 00       	callq  2f18 <_ZNK9__gnu_cxx13new_allocatorIiE8max_sizeEv>
    2eeb:	c9                   	leaveq 
    2eec:	c3                   	retq   

0000000000002eed <_ZSt3minImERKT_S2_S2_>:
    2eed:	55                   	push   %rbp
    2eee:	48 89 e5             	mov    %rsp,%rbp
    2ef1:	48 89 7d f8          	mov    %rdi,-0x8(%rbp)
    2ef5:	48 89 75 f0          	mov    %rsi,-0x10(%rbp)
    2ef9:	48 8b 45 f0          	mov    -0x10(%rbp),%rax
    2efd:	48 8b 10             	mov    (%rax),%rdx
    2f00:	48 8b 45 f8          	mov    -0x8(%rbp),%rax
    2f04:	48 8b 00             	mov    (%rax),%rax
    2f07:	48 39 c2             	cmp    %rax,%rdx
    2f0a:	73 06                	jae    2f12 <_ZSt3minImERKT_S2_S2_+0x25>
    2f0c:	48 8b 45 f0          	mov    -0x10(%rbp),%rax
    2f10:	eb 04                	jmp    2f16 <_ZSt3minImERKT_S2_S2_+0x29>
    2f12:	48 8b 45 f8          	mov    -0x8(%rbp),%rax
    2f16:	5d                   	pop    %rbp
    2f17:	c3                   	retq   

0000000000002f18 <_ZNK9__gnu_cxx13new_allocatorIiE8max_sizeEv>:
    2f18:	55                   	push   %rbp
    2f19:	48 89 e5             	mov    %rsp,%rbp
    2f1c:	48 89 7d f8          	mov    %rdi,-0x8(%rbp)
    2f20:	48 b8 ff ff ff ff ff 	movabs $0x1fffffffffffffff,%rax
    2f27:	ff ff 1f 
    2f2a:	5d                   	pop    %rbp
    2f2b:	c3                   	retq   

0000000000002f2c <_ZSt12__niter_baseIPiET_S1_>:
    2f2c:	55                   	push   %rbp
    2f2d:	48 89 e5             	mov    %rsp,%rbp
    2f30:	48 89 7d f8          	mov    %rdi,-0x8(%rbp)
    2f34:	48 8b 45 f8          	mov    -0x8(%rbp),%rax
    2f38:	5d                   	pop    %rbp
    2f39:	c3                   	retq   

0000000000002f3a <_ZSt14__relocate_a_1IiiENSt9enable_ifIXsrSt24__is_bitwise_relocatableIT_vE5valueEPS2_E4typeES4_S4_S4_RSaIT0_E>:
    2f3a:	55                   	push   %rbp
    2f3b:	48 89 e5             	mov    %rsp,%rbp
    2f3e:	48 83 ec 30          	sub    $0x30,%rsp
    2f42:	48 89 7d e8          	mov    %rdi,-0x18(%rbp)
    2f46:	48 89 75 e0          	mov    %rsi,-0x20(%rbp)
    2f4a:	48 89 55 d8          	mov    %rdx,-0x28(%rbp)
    2f4e:	48 89 4d d0          	mov    %rcx,-0x30(%rbp)
    2f52:	48 8b 45 e0          	mov    -0x20(%rbp),%rax
    2f56:	48 2b 45 e8          	sub    -0x18(%rbp),%rax
    2f5a:	48 c1 f8 02          	sar    $0x2,%rax
    2f5e:	48 89 45 f8          	mov    %rax,-0x8(%rbp)
    2f62:	48 83 7d f8 00       	cmpq   $0x0,-0x8(%rbp)
    2f67:	7e 1f                	jle    2f88 <_ZSt14__relocate_a_1IiiENSt9enable_ifIXsrSt24__is_bitwise_relocatableIT_vE5valueEPS2_E4typeES4_S4_S4_RSaIT0_E+0x4e>
    2f69:	48 8b 45 f8          	mov    -0x8(%rbp),%rax
    2f6d:	48 8d 14 85 00 00 00 	lea    0x0(,%rax,4),%rdx
    2f74:	00 
    2f75:	48 8b 4d e8          	mov    -0x18(%rbp),%rcx
    2f79:	48 8b 45 d8          	mov    -0x28(%rbp),%rax
    2f7d:	48 89 ce             	mov    %rcx,%rsi
    2f80:	48 89 c7             	mov    %rax,%rdi
    2f83:	e8 b8 e1 ff ff       	callq  1140 <memmove@plt>
    2f88:	48 8b 45 f8          	mov    -0x8(%rbp),%rax
    2f8c:	48 8d 14 85 00 00 00 	lea    0x0(,%rax,4),%rdx
    2f93:	00 
    2f94:	48 8b 45 d8          	mov    -0x28(%rbp),%rax
    2f98:	48 01 d0             	add    %rdx,%rax
    2f9b:	c9                   	leaveq 
    2f9c:	c3                   	retq   

0000000000002f9d <_ZNSt20__uninitialized_copyILb1EE13__uninit_copyISt13move_iteratorIPiES3_EET0_T_S6_S5_>:
    2f9d:	55                   	push   %rbp
    2f9e:	48 89 e5             	mov    %rsp,%rbp
    2fa1:	48 83 ec 20          	sub    $0x20,%rsp
    2fa5:	48 89 7d f8          	mov    %rdi,-0x8(%rbp)
    2fa9:	48 89 75 f0          	mov    %rsi,-0x10(%rbp)
    2fad:	48 89 55 e8          	mov    %rdx,-0x18(%rbp)
    2fb1:	48 8b 55 e8          	mov    -0x18(%rbp),%rdx
    2fb5:	48 8b 4d f0          	mov    -0x10(%rbp),%rcx
    2fb9:	48 8b 45 f8          	mov    -0x8(%rbp),%rax
    2fbd:	48 89 ce             	mov    %rcx,%rsi
    2fc0:	48 89 c7             	mov    %rax,%rdi
    2fc3:	e8 02 00 00 00       	callq  2fca <_ZSt4copyISt13move_iteratorIPiES1_ET0_T_S4_S3_>
    2fc8:	c9                   	leaveq 
    2fc9:	c3                   	retq   

0000000000002fca <_ZSt4copyISt13move_iteratorIPiES1_ET0_T_S4_S3_>:
    2fca:	55                   	push   %rbp
    2fcb:	48 89 e5             	mov    %rsp,%rbp
    2fce:	53                   	push   %rbx
    2fcf:	48 83 ec 28          	sub    $0x28,%rsp
    2fd3:	48 89 7d e8          	mov    %rdi,-0x18(%rbp)
    2fd7:	48 89 75 e0          	mov    %rsi,-0x20(%rbp)
    2fdb:	48 89 55 d8          	mov    %rdx,-0x28(%rbp)
    2fdf:	48 8b 45 e0          	mov    -0x20(%rbp),%rax
    2fe3:	48 89 c7             	mov    %rax,%rdi
    2fe6:	e8 2b 00 00 00       	callq  3016 <_ZSt12__miter_baseIPiEDTcl12__miter_basecldtfp_4baseEEESt13move_iteratorIT_E>
    2feb:	48 89 c3             	mov    %rax,%rbx
    2fee:	48 8b 45 e8          	mov    -0x18(%rbp),%rax
    2ff2:	48 89 c7             	mov    %rax,%rdi
    2ff5:	e8 1c 00 00 00       	callq  3016 <_ZSt12__miter_baseIPiEDTcl12__miter_basecldtfp_4baseEEESt13move_iteratorIT_E>
    2ffa:	48 89 c1             	mov    %rax,%rcx
    2ffd:	48 8b 45 d8          	mov    -0x28(%rbp),%rax
    3001:	48 89 c2             	mov    %rax,%rdx
    3004:	48 89 de             	mov    %rbx,%rsi
    3007:	48 89 cf             	mov    %rcx,%rdi
    300a:	e8 29 00 00 00       	callq  3038 <_ZSt14__copy_move_a2ILb1EPiS0_ET1_T0_S2_S1_>
    300f:	48 83 c4 28          	add    $0x28,%rsp
    3013:	5b                   	pop    %rbx
    3014:	5d                   	pop    %rbp
    3015:	c3                   	retq   

0000000000003016 <_ZSt12__miter_baseIPiEDTcl12__miter_basecldtfp_4baseEEESt13move_iteratorIT_E>:
    3016:	55                   	push   %rbp
    3017:	48 89 e5             	mov    %rsp,%rbp
    301a:	48 83 ec 10          	sub    $0x10,%rsp
    301e:	48 89 7d f8          	mov    %rdi,-0x8(%rbp)
    3022:	48 8d 45 f8          	lea    -0x8(%rbp),%rax
    3026:	48 89 c7             	mov    %rax,%rdi
    3029:	e8 74 00 00 00       	callq  30a2 <_ZNKSt13move_iteratorIPiE4baseEv>
    302e:	48 89 c7             	mov    %rax,%rdi
    3031:	e8 7d 00 00 00       	callq  30b3 <_ZSt12__miter_baseIPiET_S1_>
    3036:	c9                   	leaveq 
    3037:	c3                   	retq   

0000000000003038 <_ZSt14__copy_move_a2ILb1EPiS0_ET1_T0_S2_S1_>:
    3038:	55                   	push   %rbp
    3039:	48 89 e5             	mov    %rsp,%rbp
    303c:	41 54                	push   %r12
    303e:	53                   	push   %rbx
    303f:	48 83 ec 20          	sub    $0x20,%rsp
    3043:	48 89 7d e8          	mov    %rdi,-0x18(%rbp)
    3047:	48 89 75 e0          	mov    %rsi,-0x20(%rbp)
    304b:	48 89 55 d8          	mov    %rdx,-0x28(%rbp)
    304f:	48 8b 45 d8          	mov    -0x28(%rbp),%rax
    3053:	48 89 c7             	mov    %rax,%rdi
    3056:	e8 d1 fe ff ff       	callq  2f2c <_ZSt12__niter_baseIPiET_S1_>
    305b:	49 89 c4             	mov    %rax,%r12
    305e:	48 8b 45 e0          	mov    -0x20(%rbp),%rax
    3062:	48 89 c7             	mov    %rax,%rdi
    3065:	e8 c2 fe ff ff       	callq  2f2c <_ZSt12__niter_baseIPiET_S1_>
    306a:	48 89 c3             	mov    %rax,%rbx
    306d:	48 8b 45 e8          	mov    -0x18(%rbp),%rax
    3071:	48 89 c7             	mov    %rax,%rdi
    3074:	e8 b3 fe ff ff       	callq  2f2c <_ZSt12__niter_baseIPiET_S1_>
    3079:	4c 89 e2             	mov    %r12,%rdx
    307c:	48 89 de             	mov    %rbx,%rsi
    307f:	48 89 c7             	mov    %rax,%rdi
    3082:	e8 3a 00 00 00       	callq  30c1 <_ZSt13__copy_move_aILb1EPiS0_ET1_T0_S2_S1_>
    3087:	48 89 c2             	mov    %rax,%rdx
    308a:	48 8d 45 d8          	lea    -0x28(%rbp),%rax
    308e:	48 89 d6             	mov    %rdx,%rsi
    3091:	48 89 c7             	mov    %rax,%rdi
    3094:	e8 59 00 00 00       	callq  30f2 <_ZSt12__niter_wrapIPiET_RKS1_S1_>
    3099:	48 83 c4 20          	add    $0x20,%rsp
    309d:	5b                   	pop    %rbx
    309e:	41 5c                	pop    %r12
    30a0:	5d                   	pop    %rbp
    30a1:	c3                   	retq   

00000000000030a2 <_ZNKSt13move_iteratorIPiE4baseEv>:
    30a2:	55                   	push   %rbp
    30a3:	48 89 e5             	mov    %rsp,%rbp
    30a6:	48 89 7d f8          	mov    %rdi,-0x8(%rbp)
    30aa:	48 8b 45 f8          	mov    -0x8(%rbp),%rax
    30ae:	48 8b 00             	mov    (%rax),%rax
    30b1:	5d                   	pop    %rbp
    30b2:	c3                   	retq   

00000000000030b3 <_ZSt12__miter_baseIPiET_S1_>:
    30b3:	55                   	push   %rbp
    30b4:	48 89 e5             	mov    %rsp,%rbp
    30b7:	48 89 7d f8          	mov    %rdi,-0x8(%rbp)
    30bb:	48 8b 45 f8          	mov    -0x8(%rbp),%rax
    30bf:	5d                   	pop    %rbp
    30c0:	c3                   	retq   

00000000000030c1 <_ZSt13__copy_move_aILb1EPiS0_ET1_T0_S2_S1_>:
    30c1:	55                   	push   %rbp
    30c2:	48 89 e5             	mov    %rsp,%rbp
    30c5:	48 83 ec 30          	sub    $0x30,%rsp
    30c9:	48 89 7d e8          	mov    %rdi,-0x18(%rbp)
    30cd:	48 89 75 e0          	mov    %rsi,-0x20(%rbp)
    30d1:	48 89 55 d8          	mov    %rdx,-0x28(%rbp)
    30d5:	c6 45 ff 01          	movb   $0x1,-0x1(%rbp)
    30d9:	48 8b 55 d8          	mov    -0x28(%rbp),%rdx
    30dd:	48 8b 4d e0          	mov    -0x20(%rbp),%rcx
    30e1:	48 8b 45 e8          	mov    -0x18(%rbp),%rax
    30e5:	48 89 ce             	mov    %rcx,%rsi
    30e8:	48 89 c7             	mov    %rax,%rdi
    30eb:	e8 14 00 00 00       	callq  3104 <_ZNSt11__copy_moveILb1ELb1ESt26random_access_iterator_tagE8__copy_mIiEEPT_PKS3_S6_S4_>
    30f0:	c9                   	leaveq 
    30f1:	c3                   	retq   

00000000000030f2 <_ZSt12__niter_wrapIPiET_RKS1_S1_>:
    30f2:	55                   	push   %rbp
    30f3:	48 89 e5             	mov    %rsp,%rbp
    30f6:	48 89 7d f8          	mov    %rdi,-0x8(%rbp)
    30fa:	48 89 75 f0          	mov    %rsi,-0x10(%rbp)
    30fe:	48 8b 45 f0          	mov    -0x10(%rbp),%rax
    3102:	5d                   	pop    %rbp
    3103:	c3                   	retq   

0000000000003104 <_ZNSt11__copy_moveILb1ELb1ESt26random_access_iterator_tagE8__copy_mIiEEPT_PKS3_S6_S4_>:
    3104:	55                   	push   %rbp
    3105:	48 89 e5             	mov    %rsp,%rbp
    3108:	48 83 ec 30          	sub    $0x30,%rsp
    310c:	48 89 7d e8          	mov    %rdi,-0x18(%rbp)
    3110:	48 89 75 e0          	mov    %rsi,-0x20(%rbp)
    3114:	48 89 55 d8          	mov    %rdx,-0x28(%rbp)
    3118:	48 8b 45 e0          	mov    -0x20(%rbp),%rax
    311c:	48 2b 45 e8          	sub    -0x18(%rbp),%rax
    3120:	48 c1 f8 02          	sar    $0x2,%rax
    3124:	48 89 45 f8          	mov    %rax,-0x8(%rbp)
    3128:	48 83 7d f8 00       	cmpq   $0x0,-0x8(%rbp)
    312d:	74 1f                	je     314e <_ZNSt11__copy_moveILb1ELb1ESt26random_access_iterator_tagE8__copy_mIiEEPT_PKS3_S6_S4_+0x4a>
    312f:	48 8b 45 f8          	mov    -0x8(%rbp),%rax
    3133:	48 8d 14 85 00 00 00 	lea    0x0(,%rax,4),%rdx
    313a:	00 
    313b:	48 8b 4d e8          	mov    -0x18(%rbp),%rcx
    313f:	48 8b 45 d8          	mov    -0x28(%rbp),%rax
    3143:	48 89 ce             	mov    %rcx,%rsi
    3146:	48 89 c7             	mov    %rax,%rdi
    3149:	e8 f2 df ff ff       	callq  1140 <memmove@plt>
    314e:	48 8b 45 f8          	mov    -0x8(%rbp),%rax
    3152:	48 8d 14 85 00 00 00 	lea    0x0(,%rax,4),%rdx
    3159:	00 
    315a:	48 8b 45 d8          	mov    -0x28(%rbp),%rax
    315e:	48 01 d0             	add    %rdx,%rax
    3161:	c9                   	leaveq 
    3162:	c3                   	retq   
    3163:	66 2e 0f 1f 84 00 00 	nopw   %cs:0x0(%rax,%rax,1)
    316a:	00 00 00 
    316d:	0f 1f 00             	nopl   (%rax)

0000000000003170 <__libc_csu_init>:
    3170:	41 57                	push   %r15
    3172:	4c 8d 3d 37 3c 00 00 	lea    0x3c37(%rip),%r15        # 6db0 <__frame_dummy_init_array_entry>
    3179:	41 56                	push   %r14
    317b:	49 89 d6             	mov    %rdx,%r14
    317e:	41 55                	push   %r13
    3180:	49 89 f5             	mov    %rsi,%r13
    3183:	41 54                	push   %r12
    3185:	41 89 fc             	mov    %edi,%r12d
    3188:	55                   	push   %rbp
    3189:	48 8d 2d 30 3c 00 00 	lea    0x3c30(%rip),%rbp        # 6dc0 <__do_global_dtors_aux_fini_array_entry>
    3190:	53                   	push   %rbx
    3191:	4c 29 fd             	sub    %r15,%rbp
    3194:	48 83 ec 08          	sub    $0x8,%rsp
    3198:	e8 63 de ff ff       	callq  1000 <_init>
    319d:	48 c1 fd 03          	sar    $0x3,%rbp
    31a1:	74 1b                	je     31be <__libc_csu_init+0x4e>
    31a3:	31 db                	xor    %ebx,%ebx
    31a5:	0f 1f 00             	nopl   (%rax)
    31a8:	4c 89 f2             	mov    %r14,%rdx
    31ab:	4c 89 ee             	mov    %r13,%rsi
    31ae:	44 89 e7             	mov    %r12d,%edi
    31b1:	41 ff 14 df          	callq  *(%r15,%rbx,8)
    31b5:	48 83 c3 01          	add    $0x1,%rbx
    31b9:	48 39 dd             	cmp    %rbx,%rbp
    31bc:	75 ea                	jne    31a8 <__libc_csu_init+0x38>
    31be:	48 83 c4 08          	add    $0x8,%rsp
    31c2:	5b                   	pop    %rbx
    31c3:	5d                   	pop    %rbp
    31c4:	41 5c                	pop    %r12
    31c6:	41 5d                	pop    %r13
    31c8:	41 5e                	pop    %r14
    31ca:	41 5f                	pop    %r15
    31cc:	c3                   	retq   
    31cd:	0f 1f 00             	nopl   (%rax)

00000000000031d0 <__libc_csu_fini>:
    31d0:	c3                   	retq   

Disassembly of section .fini:

00000000000031d4 <_fini>:
    31d4:	48 83 ec 08          	sub    $0x8,%rsp
    31d8:	48 83 c4 08          	add    $0x8,%rsp
    31dc:	c3                   	retq   
