
O - From S To T.out:     file format elf64-x86-64


Disassembly of section .init:

0000000000001000 <_init>:
    1000:	48 83 ec 08          	sub    $0x8,%rsp
    1004:	48 8b 05 dd 2f 00 00 	mov    0x2fdd(%rip),%rax        # 3fe8 <__gmon_start__>
    100b:	48 85 c0             	test   %rax,%rax
    100e:	74 02                	je     1012 <_init+0x12>
    1010:	ff d0                	callq  *%rax
    1012:	48 83 c4 08          	add    $0x8,%rsp
    1016:	c3                   	retq   

Disassembly of section .plt:

0000000000001020 <.plt>:
    1020:	ff 35 e2 2f 00 00    	pushq  0x2fe2(%rip)        # 4008 <_GLOBAL_OFFSET_TABLE_+0x8>
    1026:	ff 25 e4 2f 00 00    	jmpq   *0x2fe4(%rip)        # 4010 <_GLOBAL_OFFSET_TABLE_+0x10>
    102c:	0f 1f 40 00          	nopl   0x0(%rax)

0000000000001030 <_ZNSt8ios_base15sync_with_stdioEb@plt>:
    1030:	ff 25 e2 2f 00 00    	jmpq   *0x2fe2(%rip)        # 4018 <_ZNSt8ios_base15sync_with_stdioEb@GLIBCXX_3.4>
    1036:	68 00 00 00 00       	pushq  $0x0
    103b:	e9 e0 ff ff ff       	jmpq   1020 <.plt>

0000000000001040 <memcmp@plt>:
    1040:	ff 25 da 2f 00 00    	jmpq   *0x2fda(%rip)        # 4020 <memcmp@GLIBC_2.2.5>
    1046:	68 01 00 00 00       	pushq  $0x1
    104b:	e9 d0 ff ff ff       	jmpq   1020 <.plt>

0000000000001050 <_ZNSirsERi@plt>:
    1050:	ff 25 d2 2f 00 00    	jmpq   *0x2fd2(%rip)        # 4028 <_ZNSirsERi@GLIBCXX_3.4>
    1056:	68 02 00 00 00       	pushq  $0x2
    105b:	e9 c0 ff ff ff       	jmpq   1020 <.plt>

0000000000001060 <_ZNSt7__cxx1112basic_stringIcSt11char_traitsIcESaIcEED1Ev@plt>:
    1060:	ff 25 ca 2f 00 00    	jmpq   *0x2fca(%rip)        # 4030 <_ZNSt7__cxx1112basic_stringIcSt11char_traitsIcESaIcEED1Ev@GLIBCXX_3.4.21>
    1066:	68 03 00 00 00       	pushq  $0x3
    106b:	e9 b0 ff ff ff       	jmpq   1020 <.plt>

0000000000001070 <_ZNKSt7__cxx1112basic_stringIcSt11char_traitsIcESaIcEE4sizeEv@plt>:
    1070:	ff 25 c2 2f 00 00    	jmpq   *0x2fc2(%rip)        # 4038 <_ZNKSt7__cxx1112basic_stringIcSt11char_traitsIcESaIcEE4sizeEv@GLIBCXX_3.4.21>
    1076:	68 04 00 00 00       	pushq  $0x4
    107b:	e9 a0 ff ff ff       	jmpq   1020 <.plt>

0000000000001080 <_ZNSt9basic_iosIcSt11char_traitsIcEE3tieEPSo@plt>:
    1080:	ff 25 ba 2f 00 00    	jmpq   *0x2fba(%rip)        # 4040 <_ZNSt9basic_iosIcSt11char_traitsIcEE3tieEPSo@GLIBCXX_3.4>
    1086:	68 05 00 00 00       	pushq  $0x5
    108b:	e9 90 ff ff ff       	jmpq   1020 <.plt>

0000000000001090 <__cxa_atexit@plt>:
    1090:	ff 25 b2 2f 00 00    	jmpq   *0x2fb2(%rip)        # 4048 <__cxa_atexit@GLIBC_2.2.5>
    1096:	68 06 00 00 00       	pushq  $0x6
    109b:	e9 80 ff ff ff       	jmpq   1020 <.plt>

00000000000010a0 <_ZStlsISt11char_traitsIcEERSt13basic_ostreamIcT_ES5_PKc@plt>:
    10a0:	ff 25 aa 2f 00 00    	jmpq   *0x2faa(%rip)        # 4050 <_ZStlsISt11char_traitsIcEERSt13basic_ostreamIcT_ES5_PKc@GLIBCXX_3.4>
    10a6:	68 07 00 00 00       	pushq  $0x7
    10ab:	e9 70 ff ff ff       	jmpq   1020 <.plt>

00000000000010b0 <_ZNSolsEPFRSoS_E@plt>:
    10b0:	ff 25 a2 2f 00 00    	jmpq   *0x2fa2(%rip)        # 4058 <_ZNSolsEPFRSoS_E@GLIBCXX_3.4>
    10b6:	68 08 00 00 00       	pushq  $0x8
    10bb:	e9 60 ff ff ff       	jmpq   1020 <.plt>

00000000000010c0 <_ZStrsIcSt11char_traitsIcESaIcEERSt13basic_istreamIT_T0_ES7_RNSt7__cxx1112basic_stringIS4_S5_T1_EE@plt>:
    10c0:	ff 25 9a 2f 00 00    	jmpq   *0x2f9a(%rip)        # 4060 <_ZStrsIcSt11char_traitsIcESaIcEERSt13basic_istreamIT_T0_ES7_RNSt7__cxx1112basic_stringIS4_S5_T1_EE@GLIBCXX_3.4.21>
    10c6:	68 09 00 00 00       	pushq  $0x9
    10cb:	e9 50 ff ff ff       	jmpq   1020 <.plt>

00000000000010d0 <_ZNKSt7__cxx1112basic_stringIcSt11char_traitsIcESaIcEE4dataEv@plt>:
    10d0:	ff 25 92 2f 00 00    	jmpq   *0x2f92(%rip)        # 4068 <_ZNKSt7__cxx1112basic_stringIcSt11char_traitsIcESaIcEE4dataEv@GLIBCXX_3.4.21>
    10d6:	68 0a 00 00 00       	pushq  $0xa
    10db:	e9 40 ff ff ff       	jmpq   1020 <.plt>

00000000000010e0 <_ZNSt7__cxx1112basic_stringIcSt11char_traitsIcESaIcEEC1Ev@plt>:
    10e0:	ff 25 8a 2f 00 00    	jmpq   *0x2f8a(%rip)        # 4070 <_ZNSt7__cxx1112basic_stringIcSt11char_traitsIcESaIcEEC1Ev@GLIBCXX_3.4.21>
    10e6:	68 0b 00 00 00       	pushq  $0xb
    10eb:	e9 30 ff ff ff       	jmpq   1020 <.plt>

00000000000010f0 <_ZNSt8ios_base4InitC1Ev@plt>:
    10f0:	ff 25 82 2f 00 00    	jmpq   *0x2f82(%rip)        # 4078 <_ZNSt8ios_base4InitC1Ev@GLIBCXX_3.4>
    10f6:	68 0c 00 00 00       	pushq  $0xc
    10fb:	e9 20 ff ff ff       	jmpq   1020 <.plt>

0000000000001100 <_Unwind_Resume@plt>:
    1100:	ff 25 7a 2f 00 00    	jmpq   *0x2f7a(%rip)        # 4080 <_Unwind_Resume@GCC_3.0>
    1106:	68 0d 00 00 00       	pushq  $0xd
    110b:	e9 10 ff ff ff       	jmpq   1020 <.plt>

0000000000001110 <_ZNSt7__cxx1112basic_stringIcSt11char_traitsIcESaIcEEixEm@plt>:
    1110:	ff 25 72 2f 00 00    	jmpq   *0x2f72(%rip)        # 4088 <_ZNSt7__cxx1112basic_stringIcSt11char_traitsIcESaIcEEixEm@GLIBCXX_3.4.21>
    1116:	68 0e 00 00 00       	pushq  $0xe
    111b:	e9 00 ff ff ff       	jmpq   1020 <.plt>

Disassembly of section .plt.got:

0000000000001120 <__cxa_finalize@plt>:
    1120:	ff 25 a2 2e 00 00    	jmpq   *0x2ea2(%rip)        # 3fc8 <__cxa_finalize@GLIBC_2.2.5>
    1126:	66 90                	xchg   %ax,%ax

Disassembly of section .text:

0000000000001130 <_start>:
    1130:	31 ed                	xor    %ebp,%ebp
    1132:	49 89 d1             	mov    %rdx,%r9
    1135:	5e                   	pop    %rsi
    1136:	48 89 e2             	mov    %rsp,%rdx
    1139:	48 83 e4 f0          	and    $0xfffffffffffffff0,%rsp
    113d:	50                   	push   %rax
    113e:	54                   	push   %rsp
    113f:	4c 8d 05 7a 06 00 00 	lea    0x67a(%rip),%r8        # 17c0 <__libc_csu_fini>
    1146:	48 8d 0d 13 06 00 00 	lea    0x613(%rip),%rcx        # 1760 <__libc_csu_init>
    114d:	48 8d 3d b2 01 00 00 	lea    0x1b2(%rip),%rdi        # 1306 <main>
    1154:	ff 15 86 2e 00 00    	callq  *0x2e86(%rip)        # 3fe0 <__libc_start_main@GLIBC_2.2.5>
    115a:	f4                   	hlt    
    115b:	0f 1f 44 00 00       	nopl   0x0(%rax,%rax,1)

0000000000001160 <deregister_tm_clones>:
    1160:	48 8d 3d 41 2f 00 00 	lea    0x2f41(%rip),%rdi        # 40a8 <__TMC_END__>
    1167:	48 8d 05 3a 2f 00 00 	lea    0x2f3a(%rip),%rax        # 40a8 <__TMC_END__>
    116e:	48 39 f8             	cmp    %rdi,%rax
    1171:	74 15                	je     1188 <deregister_tm_clones+0x28>
    1173:	48 8b 05 5e 2e 00 00 	mov    0x2e5e(%rip),%rax        # 3fd8 <_ITM_deregisterTMCloneTable>
    117a:	48 85 c0             	test   %rax,%rax
    117d:	74 09                	je     1188 <deregister_tm_clones+0x28>
    117f:	ff e0                	jmpq   *%rax
    1181:	0f 1f 80 00 00 00 00 	nopl   0x0(%rax)
    1188:	c3                   	retq   
    1189:	0f 1f 80 00 00 00 00 	nopl   0x0(%rax)

0000000000001190 <register_tm_clones>:
    1190:	48 8d 3d 11 2f 00 00 	lea    0x2f11(%rip),%rdi        # 40a8 <__TMC_END__>
    1197:	48 8d 35 0a 2f 00 00 	lea    0x2f0a(%rip),%rsi        # 40a8 <__TMC_END__>
    119e:	48 29 fe             	sub    %rdi,%rsi
    11a1:	48 89 f0             	mov    %rsi,%rax
    11a4:	48 c1 ee 3f          	shr    $0x3f,%rsi
    11a8:	48 c1 f8 03          	sar    $0x3,%rax
    11ac:	48 01 c6             	add    %rax,%rsi
    11af:	48 d1 fe             	sar    %rsi
    11b2:	74 14                	je     11c8 <register_tm_clones+0x38>
    11b4:	48 8b 05 35 2e 00 00 	mov    0x2e35(%rip),%rax        # 3ff0 <_ITM_registerTMCloneTable>
    11bb:	48 85 c0             	test   %rax,%rax
    11be:	74 08                	je     11c8 <register_tm_clones+0x38>
    11c0:	ff e0                	jmpq   *%rax
    11c2:	66 0f 1f 44 00 00    	nopw   0x0(%rax,%rax,1)
    11c8:	c3                   	retq   
    11c9:	0f 1f 80 00 00 00 00 	nopl   0x0(%rax)

00000000000011d0 <__do_global_dtors_aux>:
    11d0:	80 3d 21 31 00 00 00 	cmpb   $0x0,0x3121(%rip)        # 42f8 <completed.7447>
    11d7:	75 2f                	jne    1208 <__do_global_dtors_aux+0x38>
    11d9:	55                   	push   %rbp
    11da:	48 83 3d e6 2d 00 00 	cmpq   $0x0,0x2de6(%rip)        # 3fc8 <__cxa_finalize@GLIBC_2.2.5>
    11e1:	00 
    11e2:	48 89 e5             	mov    %rsp,%rbp
    11e5:	74 0c                	je     11f3 <__do_global_dtors_aux+0x23>
    11e7:	48 8b 3d aa 2e 00 00 	mov    0x2eaa(%rip),%rdi        # 4098 <__dso_handle>
    11ee:	e8 2d ff ff ff       	callq  1120 <__cxa_finalize@plt>
    11f3:	e8 68 ff ff ff       	callq  1160 <deregister_tm_clones>
    11f8:	c6 05 f9 30 00 00 01 	movb   $0x1,0x30f9(%rip)        # 42f8 <completed.7447>
    11ff:	5d                   	pop    %rbp
    1200:	c3                   	retq   
    1201:	0f 1f 80 00 00 00 00 	nopl   0x0(%rax)
    1208:	c3                   	retq   
    1209:	0f 1f 80 00 00 00 00 	nopl   0x0(%rax)

0000000000001210 <frame_dummy>:
    1210:	e9 7b ff ff ff       	jmpq   1190 <register_tm_clones>

0000000000001215 <_Z7decSortxx>:
    1215:	55                   	push   %rbp
    1216:	48 89 e5             	mov    %rsp,%rbp
    1219:	48 89 7d f8          	mov    %rdi,-0x8(%rbp)
    121d:	48 89 75 f0          	mov    %rsi,-0x10(%rbp)
    1221:	48 8b 45 f8          	mov    -0x8(%rbp),%rax
    1225:	48 3b 45 f0          	cmp    -0x10(%rbp),%rax
    1229:	0f 9f c0             	setg   %al
    122c:	5d                   	pop    %rbp
    122d:	c3                   	retq   

000000000000122e <_Z12max_of_arrayPxx>:
    122e:	55                   	push   %rbp
    122f:	48 89 e5             	mov    %rsp,%rbp
    1232:	48 89 7d e8          	mov    %rdi,-0x18(%rbp)
    1236:	48 89 75 e0          	mov    %rsi,-0x20(%rbp)
    123a:	48 8b 45 e8          	mov    -0x18(%rbp),%rax
    123e:	48 8b 00             	mov    (%rax),%rax
    1241:	48 89 45 f8          	mov    %rax,-0x8(%rbp)
    1245:	48 c7 45 f0 00 00 00 	movq   $0x0,-0x10(%rbp)
    124c:	00 
    124d:	48 8b 45 f0          	mov    -0x10(%rbp),%rax
    1251:	48 3b 45 e0          	cmp    -0x20(%rbp),%rax
    1255:	7d 3d                	jge    1294 <_Z12max_of_arrayPxx+0x66>
    1257:	48 8b 45 f0          	mov    -0x10(%rbp),%rax
    125b:	48 8d 14 c5 00 00 00 	lea    0x0(,%rax,8),%rdx
    1262:	00 
    1263:	48 8b 45 e8          	mov    -0x18(%rbp),%rax
    1267:	48 01 d0             	add    %rdx,%rax
    126a:	48 8b 00             	mov    (%rax),%rax
    126d:	48 39 45 f8          	cmp    %rax,-0x8(%rbp)
    1271:	7d 1a                	jge    128d <_Z12max_of_arrayPxx+0x5f>
    1273:	48 8b 45 f0          	mov    -0x10(%rbp),%rax
    1277:	48 8d 14 c5 00 00 00 	lea    0x0(,%rax,8),%rdx
    127e:	00 
    127f:	48 8b 45 e8          	mov    -0x18(%rbp),%rax
    1283:	48 01 d0             	add    %rdx,%rax
    1286:	48 8b 00             	mov    (%rax),%rax
    1289:	48 89 45 f8          	mov    %rax,-0x8(%rbp)
    128d:	48 83 45 f0 01       	addq   $0x1,-0x10(%rbp)
    1292:	eb b9                	jmp    124d <_Z12max_of_arrayPxx+0x1f>
    1294:	48 8b 45 f8          	mov    -0x8(%rbp),%rax
    1298:	5d                   	pop    %rbp
    1299:	c3                   	retq   

000000000000129a <_Z12min_of_arrayPxx>:
    129a:	55                   	push   %rbp
    129b:	48 89 e5             	mov    %rsp,%rbp
    129e:	48 89 7d e8          	mov    %rdi,-0x18(%rbp)
    12a2:	48 89 75 e0          	mov    %rsi,-0x20(%rbp)
    12a6:	48 8b 45 e8          	mov    -0x18(%rbp),%rax
    12aa:	48 8b 00             	mov    (%rax),%rax
    12ad:	48 89 45 f8          	mov    %rax,-0x8(%rbp)
    12b1:	48 c7 45 f0 00 00 00 	movq   $0x0,-0x10(%rbp)
    12b8:	00 
    12b9:	48 8b 45 f0          	mov    -0x10(%rbp),%rax
    12bd:	48 3b 45 e0          	cmp    -0x20(%rbp),%rax
    12c1:	7d 3d                	jge    1300 <_Z12min_of_arrayPxx+0x66>
    12c3:	48 8b 45 f0          	mov    -0x10(%rbp),%rax
    12c7:	48 8d 14 c5 00 00 00 	lea    0x0(,%rax,8),%rdx
    12ce:	00 
    12cf:	48 8b 45 e8          	mov    -0x18(%rbp),%rax
    12d3:	48 01 d0             	add    %rdx,%rax
    12d6:	48 8b 00             	mov    (%rax),%rax
    12d9:	48 39 45 f8          	cmp    %rax,-0x8(%rbp)
    12dd:	7e 1a                	jle    12f9 <_Z12min_of_arrayPxx+0x5f>
    12df:	48 8b 45 f0          	mov    -0x10(%rbp),%rax
    12e3:	48 8d 14 c5 00 00 00 	lea    0x0(,%rax,8),%rdx
    12ea:	00 
    12eb:	48 8b 45 e8          	mov    -0x18(%rbp),%rax
    12ef:	48 01 d0             	add    %rdx,%rax
    12f2:	48 8b 00             	mov    (%rax),%rax
    12f5:	48 89 45 f8          	mov    %rax,-0x8(%rbp)
    12f9:	48 83 45 f0 01       	addq   $0x1,-0x10(%rbp)
    12fe:	eb b9                	jmp    12b9 <_Z12min_of_arrayPxx+0x1f>
    1300:	48 8b 45 f8          	mov    -0x8(%rbp),%rax
    1304:	5d                   	pop    %rbp
    1305:	c3                   	retq   

0000000000001306 <main>:
    1306:	55                   	push   %rbp
    1307:	48 89 e5             	mov    %rsp,%rbp
    130a:	53                   	push   %rbx
    130b:	48 81 ec 88 00 00 00 	sub    $0x88,%rsp
    1312:	bf 00 00 00 00       	mov    $0x0,%edi
    1317:	e8 14 fd ff ff       	callq  1030 <_ZNSt8ios_base15sync_with_stdioEb@plt>
    131c:	be 00 00 00 00       	mov    $0x0,%esi
    1321:	48 8d 3d c8 2e 00 00 	lea    0x2ec8(%rip),%rdi        # 41f0 <_ZSt3cin@@GLIBCXX_3.4+0x10>
    1328:	e8 53 fd ff ff       	callq  1080 <_ZNSt9basic_iosIcSt11char_traitsIcEE3tieEPSo@plt>
    132d:	48 8d 45 d4          	lea    -0x2c(%rbp),%rax
    1331:	48 89 c6             	mov    %rax,%rsi
    1334:	48 8d 3d a5 2e 00 00 	lea    0x2ea5(%rip),%rdi        # 41e0 <_ZSt3cin@@GLIBCXX_3.4>
    133b:	e8 10 fd ff ff       	callq  1050 <_ZNSirsERi@plt>
    1340:	8b 45 d4             	mov    -0x2c(%rbp),%eax
    1343:	8d 50 ff             	lea    -0x1(%rax),%edx
    1346:	89 55 d4             	mov    %edx,-0x2c(%rbp)
    1349:	85 c0                	test   %eax,%eax
    134b:	0f 95 c0             	setne  %al
    134e:	84 c0                	test   %al,%al
    1350:	0f 84 9f 02 00 00    	je     15f5 <main+0x2ef>
    1356:	48 8d 85 70 ff ff ff 	lea    -0x90(%rbp),%rax
    135d:	48 89 c7             	mov    %rax,%rdi
    1360:	e8 7b fd ff ff       	callq  10e0 <_ZNSt7__cxx1112basic_stringIcSt11char_traitsIcESaIcEEC1Ev@plt>
    1365:	48 8d 45 90          	lea    -0x70(%rbp),%rax
    1369:	48 89 c7             	mov    %rax,%rdi
    136c:	e8 6f fd ff ff       	callq  10e0 <_ZNSt7__cxx1112basic_stringIcSt11char_traitsIcESaIcEEC1Ev@plt>
    1371:	48 8d 45 b0          	lea    -0x50(%rbp),%rax
    1375:	48 89 c7             	mov    %rax,%rdi
    1378:	e8 63 fd ff ff       	callq  10e0 <_ZNSt7__cxx1112basic_stringIcSt11char_traitsIcESaIcEEC1Ev@plt>
    137d:	48 8d 85 70 ff ff ff 	lea    -0x90(%rbp),%rax
    1384:	48 89 c6             	mov    %rax,%rsi
    1387:	48 8d 3d 52 2e 00 00 	lea    0x2e52(%rip),%rdi        # 41e0 <_ZSt3cin@@GLIBCXX_3.4>
    138e:	e8 2d fd ff ff       	callq  10c0 <_ZStrsIcSt11char_traitsIcESaIcEERSt13basic_istreamIT_T0_ES7_RNSt7__cxx1112basic_stringIS4_S5_T1_EE@plt>
    1393:	48 89 c2             	mov    %rax,%rdx
    1396:	48 8d 45 90          	lea    -0x70(%rbp),%rax
    139a:	48 89 c6             	mov    %rax,%rsi
    139d:	48 89 d7             	mov    %rdx,%rdi
    13a0:	e8 1b fd ff ff       	callq  10c0 <_ZStrsIcSt11char_traitsIcESaIcEERSt13basic_istreamIT_T0_ES7_RNSt7__cxx1112basic_stringIS4_S5_T1_EE@plt>
    13a5:	48 89 c2             	mov    %rax,%rdx
    13a8:	48 8d 45 b0          	lea    -0x50(%rbp),%rax
    13ac:	48 89 c6             	mov    %rax,%rsi
    13af:	48 89 d7             	mov    %rdx,%rdi
    13b2:	e8 09 fd ff ff       	callq  10c0 <_ZStrsIcSt11char_traitsIcESaIcEERSt13basic_istreamIT_T0_ES7_RNSt7__cxx1112basic_stringIS4_S5_T1_EE@plt>
    13b7:	48 8d 95 70 ff ff ff 	lea    -0x90(%rbp),%rdx
    13be:	48 8d 45 90          	lea    -0x70(%rbp),%rax
    13c2:	48 89 d6             	mov    %rdx,%rsi
    13c5:	48 89 c7             	mov    %rax,%rdi
    13c8:	e8 08 03 00 00       	callq  16d5 <_ZSteqIcEN9__gnu_cxx11__enable_ifIXsrSt9__is_charIT_E7__valueEbE6__typeERKNSt7__cxx1112basic_stringIS3_St11char_traitsIS3_ESaIS3_EEESE_>
    13cd:	84 c0                	test   %al,%al
    13cf:	74 2d                	je     13fe <main+0xf8>
    13d1:	48 8d 35 d8 0c 00 00 	lea    0xcd8(%rip),%rsi        # 20b0 <_ZNSt8__detailL19_S_invalid_state_idE+0x8>
    13d8:	48 8d 3d e1 2c 00 00 	lea    0x2ce1(%rip),%rdi        # 40c0 <_ZSt4cout@@GLIBCXX_3.4>
    13df:	e8 bc fc ff ff       	callq  10a0 <_ZStlsISt11char_traitsIcEERSt13basic_ostreamIcT_ES5_PKc@plt>
    13e4:	48 89 c2             	mov    %rax,%rdx
    13e7:	48 8b 05 e2 2b 00 00 	mov    0x2be2(%rip),%rax        # 3fd0 <_ZSt4endlIcSt11char_traitsIcEERSt13basic_ostreamIT_T0_ES6_@GLIBCXX_3.4>
    13ee:	48 89 c6             	mov    %rax,%rsi
    13f1:	48 89 d7             	mov    %rdx,%rdi
    13f4:	e8 b7 fc ff ff       	callq  10b0 <_ZNSolsEPFRSoS_E@plt>
    13f9:	e9 cb 01 00 00       	jmpq   15c9 <main+0x2c3>
    13fe:	c7 45 ec 00 00 00 00 	movl   $0x0,-0x14(%rbp)
    1405:	c7 45 e8 00 00 00 00 	movl   $0x0,-0x18(%rbp)
    140c:	c7 45 e4 00 00 00 00 	movl   $0x0,-0x1c(%rbp)
    1413:	c7 45 e0 00 00 00 00 	movl   $0x0,-0x20(%rbp)
    141a:	8b 45 e4             	mov    -0x1c(%rbp),%eax
    141d:	48 63 d8             	movslq %eax,%rbx
    1420:	48 8d 45 90          	lea    -0x70(%rbp),%rax
    1424:	48 89 c7             	mov    %rax,%rdi
    1427:	e8 44 fc ff ff       	callq  1070 <_ZNKSt7__cxx1112basic_stringIcSt11char_traitsIcESaIcEE4sizeEv@plt>
    142c:	48 39 c3             	cmp    %rax,%rbx
    142f:	0f 92 c0             	setb   %al
    1432:	84 c0                	test   %al,%al
    1434:	0f 84 ed 00 00 00    	je     1527 <main+0x221>
    143a:	8b 45 e4             	mov    -0x1c(%rbp),%eax
    143d:	48 63 d0             	movslq %eax,%rdx
    1440:	48 8d 45 90          	lea    -0x70(%rbp),%rax
    1444:	48 89 d6             	mov    %rdx,%rsi
    1447:	48 89 c7             	mov    %rax,%rdi
    144a:	e8 c1 fc ff ff       	callq  1110 <_ZNSt7__cxx1112basic_stringIcSt11char_traitsIcESaIcEEixEm@plt>
    144f:	0f b6 18             	movzbl (%rax),%ebx
    1452:	8b 45 e0             	mov    -0x20(%rbp),%eax
    1455:	48 63 d0             	movslq %eax,%rdx
    1458:	48 8d 85 70 ff ff ff 	lea    -0x90(%rbp),%rax
    145f:	48 89 d6             	mov    %rdx,%rsi
    1462:	48 89 c7             	mov    %rax,%rdi
    1465:	e8 a6 fc ff ff       	callq  1110 <_ZNSt7__cxx1112basic_stringIcSt11char_traitsIcESaIcEEixEm@plt>
    146a:	0f b6 00             	movzbl (%rax),%eax
    146d:	38 c3                	cmp    %al,%bl
    146f:	0f 94 c0             	sete   %al
    1472:	84 c0                	test   %al,%al
    1474:	74 0d                	je     1483 <main+0x17d>
    1476:	83 45 ec 01          	addl   $0x1,-0x14(%rbp)
    147a:	83 45 e0 01          	addl   $0x1,-0x20(%rbp)
    147e:	e9 9a 00 00 00       	jmpq   151d <main+0x217>
    1483:	c6 45 df 00          	movb   $0x0,-0x21(%rbp)
    1487:	c7 45 d8 00 00 00 00 	movl   $0x0,-0x28(%rbp)
    148e:	8b 45 d8             	mov    -0x28(%rbp),%eax
    1491:	48 63 d8             	movslq %eax,%rbx
    1494:	48 8d 45 b0          	lea    -0x50(%rbp),%rax
    1498:	48 89 c7             	mov    %rax,%rdi
    149b:	e8 d0 fb ff ff       	callq  1070 <_ZNKSt7__cxx1112basic_stringIcSt11char_traitsIcESaIcEE4sizeEv@plt>
    14a0:	48 39 c3             	cmp    %rax,%rbx
    14a3:	0f 92 c0             	setb   %al
    14a6:	84 c0                	test   %al,%al
    14a8:	74 68                	je     1512 <main+0x20c>
    14aa:	8b 45 e4             	mov    -0x1c(%rbp),%eax
    14ad:	48 63 d0             	movslq %eax,%rdx
    14b0:	48 8d 45 90          	lea    -0x70(%rbp),%rax
    14b4:	48 89 d6             	mov    %rdx,%rsi
    14b7:	48 89 c7             	mov    %rax,%rdi
    14ba:	e8 51 fc ff ff       	callq  1110 <_ZNSt7__cxx1112basic_stringIcSt11char_traitsIcESaIcEEixEm@plt>
    14bf:	0f b6 18             	movzbl (%rax),%ebx
    14c2:	8b 45 d8             	mov    -0x28(%rbp),%eax
    14c5:	48 63 d0             	movslq %eax,%rdx
    14c8:	48 8d 45 b0          	lea    -0x50(%rbp),%rax
    14cc:	48 89 d6             	mov    %rdx,%rsi
    14cf:	48 89 c7             	mov    %rax,%rdi
    14d2:	e8 39 fc ff ff       	callq  1110 <_ZNSt7__cxx1112basic_stringIcSt11char_traitsIcESaIcEEixEm@plt>
    14d7:	0f b6 00             	movzbl (%rax),%eax
    14da:	38 c3                	cmp    %al,%bl
    14dc:	0f 94 c0             	sete   %al
    14df:	84 c0                	test   %al,%al
    14e1:	74 26                	je     1509 <main+0x203>
    14e3:	83 45 ec 01          	addl   $0x1,-0x14(%rbp)
    14e7:	c6 45 df 01          	movb   $0x1,-0x21(%rbp)
    14eb:	8b 45 d8             	mov    -0x28(%rbp),%eax
    14ee:	48 63 d0             	movslq %eax,%rdx
    14f1:	48 8d 45 b0          	lea    -0x50(%rbp),%rax
    14f5:	48 89 d6             	mov    %rdx,%rsi
    14f8:	48 89 c7             	mov    %rax,%rdi
    14fb:	e8 10 fc ff ff       	callq  1110 <_ZNSt7__cxx1112basic_stringIcSt11char_traitsIcESaIcEEixEm@plt>
    1500:	c6 00 31             	movb   $0x31,(%rax)
    1503:	83 45 e8 01          	addl   $0x1,-0x18(%rbp)
    1507:	eb 09                	jmp    1512 <main+0x20c>
    1509:	83 45 d8 01          	addl   $0x1,-0x28(%rbp)
    150d:	e9 7c ff ff ff       	jmpq   148e <main+0x188>
    1512:	0f b6 45 df          	movzbl -0x21(%rbp),%eax
    1516:	83 f0 01             	xor    $0x1,%eax
    1519:	84 c0                	test   %al,%al
    151b:	75 09                	jne    1526 <main+0x220>
    151d:	83 45 e4 01          	addl   $0x1,-0x1c(%rbp)
    1521:	e9 f4 fe ff ff       	jmpq   141a <main+0x114>
    1526:	90                   	nop
    1527:	8b 45 ec             	mov    -0x14(%rbp),%eax
    152a:	48 63 d8             	movslq %eax,%rbx
    152d:	48 8d 45 90          	lea    -0x70(%rbp),%rax
    1531:	48 89 c7             	mov    %rax,%rdi
    1534:	e8 37 fb ff ff       	callq  1070 <_ZNKSt7__cxx1112basic_stringIcSt11char_traitsIcESaIcEE4sizeEv@plt>
    1539:	48 39 c3             	cmp    %rax,%rbx
    153c:	75 30                	jne    156e <main+0x268>
    153e:	8b 45 e8             	mov    -0x18(%rbp),%eax
    1541:	48 63 d8             	movslq %eax,%rbx
    1544:	48 8d 85 70 ff ff ff 	lea    -0x90(%rbp),%rax
    154b:	48 89 c7             	mov    %rax,%rdi
    154e:	e8 1d fb ff ff       	callq  1070 <_ZNKSt7__cxx1112basic_stringIcSt11char_traitsIcESaIcEE4sizeEv@plt>
    1553:	48 01 c3             	add    %rax,%rbx
    1556:	48 8d 45 90          	lea    -0x70(%rbp),%rax
    155a:	48 89 c7             	mov    %rax,%rdi
    155d:	e8 0e fb ff ff       	callq  1070 <_ZNKSt7__cxx1112basic_stringIcSt11char_traitsIcESaIcEE4sizeEv@plt>
    1562:	48 39 c3             	cmp    %rax,%rbx
    1565:	75 07                	jne    156e <main+0x268>
    1567:	b8 01 00 00 00       	mov    $0x1,%eax
    156c:	eb 05                	jmp    1573 <main+0x26d>
    156e:	b8 00 00 00 00       	mov    $0x0,%eax
    1573:	84 c0                	test   %al,%al
    1575:	74 2a                	je     15a1 <main+0x29b>
    1577:	48 8d 35 32 0b 00 00 	lea    0xb32(%rip),%rsi        # 20b0 <_ZNSt8__detailL19_S_invalid_state_idE+0x8>
    157e:	48 8d 3d 3b 2b 00 00 	lea    0x2b3b(%rip),%rdi        # 40c0 <_ZSt4cout@@GLIBCXX_3.4>
    1585:	e8 16 fb ff ff       	callq  10a0 <_ZStlsISt11char_traitsIcEERSt13basic_ostreamIcT_ES5_PKc@plt>
    158a:	48 89 c2             	mov    %rax,%rdx
    158d:	48 8b 05 3c 2a 00 00 	mov    0x2a3c(%rip),%rax        # 3fd0 <_ZSt4endlIcSt11char_traitsIcEERSt13basic_ostreamIT_T0_ES6_@GLIBCXX_3.4>
    1594:	48 89 c6             	mov    %rax,%rsi
    1597:	48 89 d7             	mov    %rdx,%rdi
    159a:	e8 11 fb ff ff       	callq  10b0 <_ZNSolsEPFRSoS_E@plt>
    159f:	eb 28                	jmp    15c9 <main+0x2c3>
    15a1:	48 8d 35 0c 0b 00 00 	lea    0xb0c(%rip),%rsi        # 20b4 <_ZNSt8__detailL19_S_invalid_state_idE+0xc>
    15a8:	48 8d 3d 11 2b 00 00 	lea    0x2b11(%rip),%rdi        # 40c0 <_ZSt4cout@@GLIBCXX_3.4>
    15af:	e8 ec fa ff ff       	callq  10a0 <_ZStlsISt11char_traitsIcEERSt13basic_ostreamIcT_ES5_PKc@plt>
    15b4:	48 89 c2             	mov    %rax,%rdx
    15b7:	48 8b 05 12 2a 00 00 	mov    0x2a12(%rip),%rax        # 3fd0 <_ZSt4endlIcSt11char_traitsIcEERSt13basic_ostreamIT_T0_ES6_@GLIBCXX_3.4>
    15be:	48 89 c6             	mov    %rax,%rsi
    15c1:	48 89 d7             	mov    %rdx,%rdi
    15c4:	e8 e7 fa ff ff       	callq  10b0 <_ZNSolsEPFRSoS_E@plt>
    15c9:	48 8d 45 b0          	lea    -0x50(%rbp),%rax
    15cd:	48 89 c7             	mov    %rax,%rdi
    15d0:	e8 8b fa ff ff       	callq  1060 <_ZNSt7__cxx1112basic_stringIcSt11char_traitsIcESaIcEED1Ev@plt>
    15d5:	48 8d 45 90          	lea    -0x70(%rbp),%rax
    15d9:	48 89 c7             	mov    %rax,%rdi
    15dc:	e8 7f fa ff ff       	callq  1060 <_ZNSt7__cxx1112basic_stringIcSt11char_traitsIcESaIcEED1Ev@plt>
    15e1:	48 8d 85 70 ff ff ff 	lea    -0x90(%rbp),%rax
    15e8:	48 89 c7             	mov    %rax,%rdi
    15eb:	e8 70 fa ff ff       	callq  1060 <_ZNSt7__cxx1112basic_stringIcSt11char_traitsIcESaIcEED1Ev@plt>
    15f0:	e9 4b fd ff ff       	jmpq   1340 <main+0x3a>
    15f5:	b8 00 00 00 00       	mov    $0x0,%eax
    15fa:	eb 35                	jmp    1631 <main+0x32b>
    15fc:	48 89 c3             	mov    %rax,%rbx
    15ff:	48 8d 45 b0          	lea    -0x50(%rbp),%rax
    1603:	48 89 c7             	mov    %rax,%rdi
    1606:	e8 55 fa ff ff       	callq  1060 <_ZNSt7__cxx1112basic_stringIcSt11char_traitsIcESaIcEED1Ev@plt>
    160b:	48 8d 45 90          	lea    -0x70(%rbp),%rax
    160f:	48 89 c7             	mov    %rax,%rdi
    1612:	e8 49 fa ff ff       	callq  1060 <_ZNSt7__cxx1112basic_stringIcSt11char_traitsIcESaIcEED1Ev@plt>
    1617:	48 8d 85 70 ff ff ff 	lea    -0x90(%rbp),%rax
    161e:	48 89 c7             	mov    %rax,%rdi
    1621:	e8 3a fa ff ff       	callq  1060 <_ZNSt7__cxx1112basic_stringIcSt11char_traitsIcESaIcEED1Ev@plt>
    1626:	48 89 d8             	mov    %rbx,%rax
    1629:	48 89 c7             	mov    %rax,%rdi
    162c:	e8 cf fa ff ff       	callq  1100 <_Unwind_Resume@plt>
    1631:	48 81 c4 88 00 00 00 	add    $0x88,%rsp
    1638:	5b                   	pop    %rbx
    1639:	5d                   	pop    %rbp
    163a:	c3                   	retq   

000000000000163b <_Z41__static_initialization_and_destruction_0ii>:
    163b:	55                   	push   %rbp
    163c:	48 89 e5             	mov    %rsp,%rbp
    163f:	48 83 ec 10          	sub    $0x10,%rsp
    1643:	89 7d fc             	mov    %edi,-0x4(%rbp)
    1646:	89 75 f8             	mov    %esi,-0x8(%rbp)
    1649:	83 7d fc 01          	cmpl   $0x1,-0x4(%rbp)
    164d:	75 32                	jne    1681 <_Z41__static_initialization_and_destruction_0ii+0x46>
    164f:	81 7d f8 ff ff 00 00 	cmpl   $0xffff,-0x8(%rbp)
    1656:	75 29                	jne    1681 <_Z41__static_initialization_and_destruction_0ii+0x46>
    1658:	48 8d 3d 9a 2c 00 00 	lea    0x2c9a(%rip),%rdi        # 42f9 <_ZStL8__ioinit>
    165f:	e8 8c fa ff ff       	callq  10f0 <_ZNSt8ios_base4InitC1Ev@plt>
    1664:	48 8d 15 2d 2a 00 00 	lea    0x2a2d(%rip),%rdx        # 4098 <__dso_handle>
    166b:	48 8d 35 87 2c 00 00 	lea    0x2c87(%rip),%rsi        # 42f9 <_ZStL8__ioinit>
    1672:	48 8b 05 7f 29 00 00 	mov    0x297f(%rip),%rax        # 3ff8 <_ZNSt8ios_base4InitD1Ev@GLIBCXX_3.4>
    1679:	48 89 c7             	mov    %rax,%rdi
    167c:	e8 0f fa ff ff       	callq  1090 <__cxa_atexit@plt>
    1681:	90                   	nop
    1682:	c9                   	leaveq 
    1683:	c3                   	retq   

0000000000001684 <_GLOBAL__sub_I__Z7decSortxx>:
    1684:	55                   	push   %rbp
    1685:	48 89 e5             	mov    %rsp,%rbp
    1688:	be ff ff 00 00       	mov    $0xffff,%esi
    168d:	bf 01 00 00 00       	mov    $0x1,%edi
    1692:	e8 a4 ff ff ff       	callq  163b <_Z41__static_initialization_and_destruction_0ii>
    1697:	5d                   	pop    %rbp
    1698:	c3                   	retq   

0000000000001699 <_ZNSt11char_traitsIcE7compareEPKcS2_m>:
    1699:	55                   	push   %rbp
    169a:	48 89 e5             	mov    %rsp,%rbp
    169d:	48 83 ec 20          	sub    $0x20,%rsp
    16a1:	48 89 7d f8          	mov    %rdi,-0x8(%rbp)
    16a5:	48 89 75 f0          	mov    %rsi,-0x10(%rbp)
    16a9:	48 89 55 e8          	mov    %rdx,-0x18(%rbp)
    16ad:	48 83 7d e8 00       	cmpq   $0x0,-0x18(%rbp)
    16b2:	75 07                	jne    16bb <_ZNSt11char_traitsIcE7compareEPKcS2_m+0x22>
    16b4:	b8 00 00 00 00       	mov    $0x0,%eax
    16b9:	eb 18                	jmp    16d3 <_ZNSt11char_traitsIcE7compareEPKcS2_m+0x3a>
    16bb:	48 8b 55 e8          	mov    -0x18(%rbp),%rdx
    16bf:	48 8b 4d f0          	mov    -0x10(%rbp),%rcx
    16c3:	48 8b 45 f8          	mov    -0x8(%rbp),%rax
    16c7:	48 89 ce             	mov    %rcx,%rsi
    16ca:	48 89 c7             	mov    %rax,%rdi
    16cd:	e8 6e f9 ff ff       	callq  1040 <memcmp@plt>
    16d2:	90                   	nop
    16d3:	c9                   	leaveq 
    16d4:	c3                   	retq   

00000000000016d5 <_ZSteqIcEN9__gnu_cxx11__enable_ifIXsrSt9__is_charIT_E7__valueEbE6__typeERKNSt7__cxx1112basic_stringIS3_St11char_traitsIS3_ESaIS3_EEESE_>:
    16d5:	55                   	push   %rbp
    16d6:	48 89 e5             	mov    %rsp,%rbp
    16d9:	41 54                	push   %r12
    16db:	53                   	push   %rbx
    16dc:	48 83 ec 10          	sub    $0x10,%rsp
    16e0:	48 89 7d e8          	mov    %rdi,-0x18(%rbp)
    16e4:	48 89 75 e0          	mov    %rsi,-0x20(%rbp)
    16e8:	48 8b 45 e8          	mov    -0x18(%rbp),%rax
    16ec:	48 89 c7             	mov    %rax,%rdi
    16ef:	e8 7c f9 ff ff       	callq  1070 <_ZNKSt7__cxx1112basic_stringIcSt11char_traitsIcESaIcEE4sizeEv@plt>
    16f4:	48 89 c3             	mov    %rax,%rbx
    16f7:	48 8b 45 e0          	mov    -0x20(%rbp),%rax
    16fb:	48 89 c7             	mov    %rax,%rdi
    16fe:	e8 6d f9 ff ff       	callq  1070 <_ZNKSt7__cxx1112basic_stringIcSt11char_traitsIcESaIcEE4sizeEv@plt>
    1703:	48 39 c3             	cmp    %rax,%rbx
    1706:	75 43                	jne    174b <_ZSteqIcEN9__gnu_cxx11__enable_ifIXsrSt9__is_charIT_E7__valueEbE6__typeERKNSt7__cxx1112basic_stringIS3_St11char_traitsIS3_ESaIS3_EEESE_+0x76>
    1708:	48 8b 45 e8          	mov    -0x18(%rbp),%rax
    170c:	48 89 c7             	mov    %rax,%rdi
    170f:	e8 5c f9 ff ff       	callq  1070 <_ZNKSt7__cxx1112basic_stringIcSt11char_traitsIcESaIcEE4sizeEv@plt>
    1714:	49 89 c4             	mov    %rax,%r12
    1717:	48 8b 45 e0          	mov    -0x20(%rbp),%rax
    171b:	48 89 c7             	mov    %rax,%rdi
    171e:	e8 ad f9 ff ff       	callq  10d0 <_ZNKSt7__cxx1112basic_stringIcSt11char_traitsIcESaIcEE4dataEv@plt>
    1723:	48 89 c3             	mov    %rax,%rbx
    1726:	48 8b 45 e8          	mov    -0x18(%rbp),%rax
    172a:	48 89 c7             	mov    %rax,%rdi
    172d:	e8 9e f9 ff ff       	callq  10d0 <_ZNKSt7__cxx1112basic_stringIcSt11char_traitsIcESaIcEE4dataEv@plt>
    1732:	4c 89 e2             	mov    %r12,%rdx
    1735:	48 89 de             	mov    %rbx,%rsi
    1738:	48 89 c7             	mov    %rax,%rdi
    173b:	e8 59 ff ff ff       	callq  1699 <_ZNSt11char_traitsIcE7compareEPKcS2_m>
    1740:	85 c0                	test   %eax,%eax
    1742:	75 07                	jne    174b <_ZSteqIcEN9__gnu_cxx11__enable_ifIXsrSt9__is_charIT_E7__valueEbE6__typeERKNSt7__cxx1112basic_stringIS3_St11char_traitsIS3_ESaIS3_EEESE_+0x76>
    1744:	b8 01 00 00 00       	mov    $0x1,%eax
    1749:	eb 05                	jmp    1750 <_ZSteqIcEN9__gnu_cxx11__enable_ifIXsrSt9__is_charIT_E7__valueEbE6__typeERKNSt7__cxx1112basic_stringIS3_St11char_traitsIS3_ESaIS3_EEESE_+0x7b>
    174b:	b8 00 00 00 00       	mov    $0x0,%eax
    1750:	48 83 c4 10          	add    $0x10,%rsp
    1754:	5b                   	pop    %rbx
    1755:	41 5c                	pop    %r12
    1757:	5d                   	pop    %rbp
    1758:	c3                   	retq   
    1759:	0f 1f 80 00 00 00 00 	nopl   0x0(%rax)

0000000000001760 <__libc_csu_init>:
    1760:	41 57                	push   %r15
    1762:	4c 8d 3d 47 26 00 00 	lea    0x2647(%rip),%r15        # 3db0 <__frame_dummy_init_array_entry>
    1769:	41 56                	push   %r14
    176b:	49 89 d6             	mov    %rdx,%r14
    176e:	41 55                	push   %r13
    1770:	49 89 f5             	mov    %rsi,%r13
    1773:	41 54                	push   %r12
    1775:	41 89 fc             	mov    %edi,%r12d
    1778:	55                   	push   %rbp
    1779:	48 8d 2d 40 26 00 00 	lea    0x2640(%rip),%rbp        # 3dc0 <__do_global_dtors_aux_fini_array_entry>
    1780:	53                   	push   %rbx
    1781:	4c 29 fd             	sub    %r15,%rbp
    1784:	48 83 ec 08          	sub    $0x8,%rsp
    1788:	e8 73 f8 ff ff       	callq  1000 <_init>
    178d:	48 c1 fd 03          	sar    $0x3,%rbp
    1791:	74 1b                	je     17ae <__libc_csu_init+0x4e>
    1793:	31 db                	xor    %ebx,%ebx
    1795:	0f 1f 00             	nopl   (%rax)
    1798:	4c 89 f2             	mov    %r14,%rdx
    179b:	4c 89 ee             	mov    %r13,%rsi
    179e:	44 89 e7             	mov    %r12d,%edi
    17a1:	41 ff 14 df          	callq  *(%r15,%rbx,8)
    17a5:	48 83 c3 01          	add    $0x1,%rbx
    17a9:	48 39 dd             	cmp    %rbx,%rbp
    17ac:	75 ea                	jne    1798 <__libc_csu_init+0x38>
    17ae:	48 83 c4 08          	add    $0x8,%rsp
    17b2:	5b                   	pop    %rbx
    17b3:	5d                   	pop    %rbp
    17b4:	41 5c                	pop    %r12
    17b6:	41 5d                	pop    %r13
    17b8:	41 5e                	pop    %r14
    17ba:	41 5f                	pop    %r15
    17bc:	c3                   	retq   
    17bd:	0f 1f 00             	nopl   (%rax)

00000000000017c0 <__libc_csu_fini>:
    17c0:	c3                   	retq   

Disassembly of section .fini:

00000000000017c4 <_fini>:
    17c4:	48 83 ec 08          	sub    $0x8,%rsp
    17c8:	48 83 c4 08          	add    $0x8,%rsp
    17cc:	c3                   	retq   
