
B. WeirdSort.out:     file format elf64-x86-64


Disassembly of section .init:

0000000000001000 <_init>:
    1000:	48 83 ec 08          	sub    $0x8,%rsp
    1004:	48 8b 05 dd 5f 00 00 	mov    0x5fdd(%rip),%rax        # 6fe8 <__gmon_start__>
    100b:	48 85 c0             	test   %rax,%rax
    100e:	74 02                	je     1012 <_init+0x12>
    1010:	ff d0                	callq  *%rax
    1012:	48 83 c4 08          	add    $0x8,%rsp
    1016:	c3                   	retq   

Disassembly of section .plt:

0000000000001020 <.plt>:
    1020:	ff 35 e2 5f 00 00    	pushq  0x5fe2(%rip)        # 7008 <_GLOBAL_OFFSET_TABLE_+0x8>
    1026:	ff 25 e4 5f 00 00    	jmpq   *0x5fe4(%rip)        # 7010 <_GLOBAL_OFFSET_TABLE_+0x10>
    102c:	0f 1f 40 00          	nopl   0x0(%rax)

0000000000001030 <_ZSt17__throw_bad_allocv@plt>:
    1030:	ff 25 e2 5f 00 00    	jmpq   *0x5fe2(%rip)        # 7018 <_ZSt17__throw_bad_allocv@GLIBCXX_3.4>
    1036:	68 00 00 00 00       	pushq  $0x0
    103b:	e9 e0 ff ff ff       	jmpq   1020 <.plt>

0000000000001040 <__cxa_begin_catch@plt>:
    1040:	ff 25 da 5f 00 00    	jmpq   *0x5fda(%rip)        # 7020 <__cxa_begin_catch@CXXABI_1.3>
    1046:	68 01 00 00 00       	pushq  $0x1
    104b:	e9 d0 ff ff ff       	jmpq   1020 <.plt>

0000000000001050 <_ZNSt8ios_base15sync_with_stdioEb@plt>:
    1050:	ff 25 d2 5f 00 00    	jmpq   *0x5fd2(%rip)        # 7028 <_ZNSt8ios_base15sync_with_stdioEb@GLIBCXX_3.4>
    1056:	68 02 00 00 00       	pushq  $0x2
    105b:	e9 c0 ff ff ff       	jmpq   1020 <.plt>

0000000000001060 <_ZSt20__throw_length_errorPKc@plt>:
    1060:	ff 25 ca 5f 00 00    	jmpq   *0x5fca(%rip)        # 7030 <_ZSt20__throw_length_errorPKc@GLIBCXX_3.4>
    1066:	68 03 00 00 00       	pushq  $0x3
    106b:	e9 b0 ff ff ff       	jmpq   1020 <.plt>

0000000000001070 <memset@plt>:
    1070:	ff 25 c2 5f 00 00    	jmpq   *0x5fc2(%rip)        # 7038 <memset@GLIBC_2.2.5>
    1076:	68 04 00 00 00       	pushq  $0x4
    107b:	e9 a0 ff ff ff       	jmpq   1020 <.plt>

0000000000001080 <_ZNSirsERi@plt>:
    1080:	ff 25 ba 5f 00 00    	jmpq   *0x5fba(%rip)        # 7040 <_ZNSirsERi@GLIBCXX_3.4>
    1086:	68 05 00 00 00       	pushq  $0x5
    108b:	e9 90 ff ff ff       	jmpq   1020 <.plt>

0000000000001090 <_ZNSt9basic_iosIcSt11char_traitsIcEE3tieEPSo@plt>:
    1090:	ff 25 b2 5f 00 00    	jmpq   *0x5fb2(%rip)        # 7048 <_ZNSt9basic_iosIcSt11char_traitsIcEE3tieEPSo@GLIBCXX_3.4>
    1096:	68 06 00 00 00       	pushq  $0x6
    109b:	e9 80 ff ff ff       	jmpq   1020 <.plt>

00000000000010a0 <__cxa_atexit@plt>:
    10a0:	ff 25 aa 5f 00 00    	jmpq   *0x5faa(%rip)        # 7050 <__cxa_atexit@GLIBC_2.2.5>
    10a6:	68 07 00 00 00       	pushq  $0x7
    10ab:	e9 70 ff ff ff       	jmpq   1020 <.plt>

00000000000010b0 <_ZdlPv@plt>:
    10b0:	ff 25 a2 5f 00 00    	jmpq   *0x5fa2(%rip)        # 7058 <_ZdlPv@GLIBCXX_3.4>
    10b6:	68 08 00 00 00       	pushq  $0x8
    10bb:	e9 60 ff ff ff       	jmpq   1020 <.plt>

00000000000010c0 <_ZStlsISt11char_traitsIcEERSt13basic_ostreamIcT_ES5_PKc@plt>:
    10c0:	ff 25 9a 5f 00 00    	jmpq   *0x5f9a(%rip)        # 7060 <_ZStlsISt11char_traitsIcEERSt13basic_ostreamIcT_ES5_PKc@GLIBCXX_3.4>
    10c6:	68 09 00 00 00       	pushq  $0x9
    10cb:	e9 50 ff ff ff       	jmpq   1020 <.plt>

00000000000010d0 <_Znwm@plt>:
    10d0:	ff 25 92 5f 00 00    	jmpq   *0x5f92(%rip)        # 7068 <_Znwm@GLIBCXX_3.4>
    10d6:	68 0a 00 00 00       	pushq  $0xa
    10db:	e9 40 ff ff ff       	jmpq   1020 <.plt>

00000000000010e0 <_ZNSolsEPFRSoS_E@plt>:
    10e0:	ff 25 8a 5f 00 00    	jmpq   *0x5f8a(%rip)        # 7070 <_ZNSolsEPFRSoS_E@GLIBCXX_3.4>
    10e6:	68 0b 00 00 00       	pushq  $0xb
    10eb:	e9 30 ff ff ff       	jmpq   1020 <.plt>

00000000000010f0 <_ZNSirsERx@plt>:
    10f0:	ff 25 82 5f 00 00    	jmpq   *0x5f82(%rip)        # 7078 <_ZNSirsERx@GLIBCXX_3.4>
    10f6:	68 0c 00 00 00       	pushq  $0xc
    10fb:	e9 20 ff ff ff       	jmpq   1020 <.plt>

0000000000001100 <__cxa_rethrow@plt>:
    1100:	ff 25 7a 5f 00 00    	jmpq   *0x5f7a(%rip)        # 7080 <__cxa_rethrow@CXXABI_1.3>
    1106:	68 0d 00 00 00       	pushq  $0xd
    110b:	e9 10 ff ff ff       	jmpq   1020 <.plt>

0000000000001110 <_ZNSt8ios_base4InitC1Ev@plt>:
    1110:	ff 25 72 5f 00 00    	jmpq   *0x5f72(%rip)        # 7088 <_ZNSt8ios_base4InitC1Ev@GLIBCXX_3.4>
    1116:	68 0e 00 00 00       	pushq  $0xe
    111b:	e9 00 ff ff ff       	jmpq   1020 <.plt>

0000000000001120 <__cxa_end_catch@plt>:
    1120:	ff 25 6a 5f 00 00    	jmpq   *0x5f6a(%rip)        # 7090 <__cxa_end_catch@CXXABI_1.3>
    1126:	68 0f 00 00 00       	pushq  $0xf
    112b:	e9 f0 fe ff ff       	jmpq   1020 <.plt>

0000000000001130 <_Unwind_Resume@plt>:
    1130:	ff 25 62 5f 00 00    	jmpq   *0x5f62(%rip)        # 7098 <_Unwind_Resume@GCC_3.0>
    1136:	68 10 00 00 00       	pushq  $0x10
    113b:	e9 e0 fe ff ff       	jmpq   1020 <.plt>

Disassembly of section .plt.got:

0000000000001140 <__cxa_finalize@plt>:
    1140:	ff 25 82 5e 00 00    	jmpq   *0x5e82(%rip)        # 6fc8 <__cxa_finalize@GLIBC_2.2.5>
    1146:	66 90                	xchg   %ax,%ax

Disassembly of section .text:

0000000000001150 <_start>:
    1150:	31 ed                	xor    %ebp,%ebp
    1152:	49 89 d1             	mov    %rdx,%r9
    1155:	5e                   	pop    %rsi
    1156:	48 89 e2             	mov    %rsp,%rdx
    1159:	48 83 e4 f0          	and    $0xfffffffffffffff0,%rsp
    115d:	50                   	push   %rax
    115e:	54                   	push   %rsp
    115f:	4c 8d 05 7a 2a 00 00 	lea    0x2a7a(%rip),%r8        # 3be0 <__libc_csu_fini>
    1166:	48 8d 0d 13 2a 00 00 	lea    0x2a13(%rip),%rcx        # 3b80 <__libc_csu_init>
    116d:	48 8d 3d b2 01 00 00 	lea    0x1b2(%rip),%rdi        # 1326 <main>
    1174:	ff 15 66 5e 00 00    	callq  *0x5e66(%rip)        # 6fe0 <__libc_start_main@GLIBC_2.2.5>
    117a:	f4                   	hlt    
    117b:	0f 1f 44 00 00       	nopl   0x0(%rax,%rax,1)

0000000000001180 <deregister_tm_clones>:
    1180:	48 8d 3d 31 5f 00 00 	lea    0x5f31(%rip),%rdi        # 70b8 <__TMC_END__>
    1187:	48 8d 05 2a 5f 00 00 	lea    0x5f2a(%rip),%rax        # 70b8 <__TMC_END__>
    118e:	48 39 f8             	cmp    %rdi,%rax
    1191:	74 15                	je     11a8 <deregister_tm_clones+0x28>
    1193:	48 8b 05 3e 5e 00 00 	mov    0x5e3e(%rip),%rax        # 6fd8 <_ITM_deregisterTMCloneTable>
    119a:	48 85 c0             	test   %rax,%rax
    119d:	74 09                	je     11a8 <deregister_tm_clones+0x28>
    119f:	ff e0                	jmpq   *%rax
    11a1:	0f 1f 80 00 00 00 00 	nopl   0x0(%rax)
    11a8:	c3                   	retq   
    11a9:	0f 1f 80 00 00 00 00 	nopl   0x0(%rax)

00000000000011b0 <register_tm_clones>:
    11b0:	48 8d 3d 01 5f 00 00 	lea    0x5f01(%rip),%rdi        # 70b8 <__TMC_END__>
    11b7:	48 8d 35 fa 5e 00 00 	lea    0x5efa(%rip),%rsi        # 70b8 <__TMC_END__>
    11be:	48 29 fe             	sub    %rdi,%rsi
    11c1:	48 89 f0             	mov    %rsi,%rax
    11c4:	48 c1 ee 3f          	shr    $0x3f,%rsi
    11c8:	48 c1 f8 03          	sar    $0x3,%rax
    11cc:	48 01 c6             	add    %rax,%rsi
    11cf:	48 d1 fe             	sar    %rsi
    11d2:	74 14                	je     11e8 <register_tm_clones+0x38>
    11d4:	48 8b 05 15 5e 00 00 	mov    0x5e15(%rip),%rax        # 6ff0 <_ITM_registerTMCloneTable>
    11db:	48 85 c0             	test   %rax,%rax
    11de:	74 08                	je     11e8 <register_tm_clones+0x38>
    11e0:	ff e0                	jmpq   *%rax
    11e2:	66 0f 1f 44 00 00    	nopw   0x0(%rax,%rax,1)
    11e8:	c3                   	retq   
    11e9:	0f 1f 80 00 00 00 00 	nopl   0x0(%rax)

00000000000011f0 <__do_global_dtors_aux>:
    11f0:	80 3d 01 61 00 00 00 	cmpb   $0x0,0x6101(%rip)        # 72f8 <completed.7447>
    11f7:	75 2f                	jne    1228 <__do_global_dtors_aux+0x38>
    11f9:	55                   	push   %rbp
    11fa:	48 83 3d c6 5d 00 00 	cmpq   $0x0,0x5dc6(%rip)        # 6fc8 <__cxa_finalize@GLIBC_2.2.5>
    1201:	00 
    1202:	48 89 e5             	mov    %rsp,%rbp
    1205:	74 0c                	je     1213 <__do_global_dtors_aux+0x23>
    1207:	48 8b 3d 9a 5e 00 00 	mov    0x5e9a(%rip),%rdi        # 70a8 <__dso_handle>
    120e:	e8 2d ff ff ff       	callq  1140 <__cxa_finalize@plt>
    1213:	e8 68 ff ff ff       	callq  1180 <deregister_tm_clones>
    1218:	c6 05 d9 60 00 00 01 	movb   $0x1,0x60d9(%rip)        # 72f8 <completed.7447>
    121f:	5d                   	pop    %rbp
    1220:	c3                   	retq   
    1221:	0f 1f 80 00 00 00 00 	nopl   0x0(%rax)
    1228:	c3                   	retq   
    1229:	0f 1f 80 00 00 00 00 	nopl   0x0(%rax)

0000000000001230 <frame_dummy>:
    1230:	e9 7b ff ff ff       	jmpq   11b0 <register_tm_clones>

0000000000001235 <_Z7decSortxx>:
    1235:	55                   	push   %rbp
    1236:	48 89 e5             	mov    %rsp,%rbp
    1239:	48 89 7d f8          	mov    %rdi,-0x8(%rbp)
    123d:	48 89 75 f0          	mov    %rsi,-0x10(%rbp)
    1241:	48 8b 45 f8          	mov    -0x8(%rbp),%rax
    1245:	48 3b 45 f0          	cmp    -0x10(%rbp),%rax
    1249:	0f 9f c0             	setg   %al
    124c:	5d                   	pop    %rbp
    124d:	c3                   	retq   

000000000000124e <_Z12max_of_arrayPxx>:
    124e:	55                   	push   %rbp
    124f:	48 89 e5             	mov    %rsp,%rbp
    1252:	48 89 7d e8          	mov    %rdi,-0x18(%rbp)
    1256:	48 89 75 e0          	mov    %rsi,-0x20(%rbp)
    125a:	48 8b 45 e8          	mov    -0x18(%rbp),%rax
    125e:	48 8b 00             	mov    (%rax),%rax
    1261:	48 89 45 f8          	mov    %rax,-0x8(%rbp)
    1265:	48 c7 45 f0 00 00 00 	movq   $0x0,-0x10(%rbp)
    126c:	00 
    126d:	48 8b 45 f0          	mov    -0x10(%rbp),%rax
    1271:	48 3b 45 e0          	cmp    -0x20(%rbp),%rax
    1275:	7d 3d                	jge    12b4 <_Z12max_of_arrayPxx+0x66>
    1277:	48 8b 45 f0          	mov    -0x10(%rbp),%rax
    127b:	48 8d 14 c5 00 00 00 	lea    0x0(,%rax,8),%rdx
    1282:	00 
    1283:	48 8b 45 e8          	mov    -0x18(%rbp),%rax
    1287:	48 01 d0             	add    %rdx,%rax
    128a:	48 8b 00             	mov    (%rax),%rax
    128d:	48 39 45 f8          	cmp    %rax,-0x8(%rbp)
    1291:	7d 1a                	jge    12ad <_Z12max_of_arrayPxx+0x5f>
    1293:	48 8b 45 f0          	mov    -0x10(%rbp),%rax
    1297:	48 8d 14 c5 00 00 00 	lea    0x0(,%rax,8),%rdx
    129e:	00 
    129f:	48 8b 45 e8          	mov    -0x18(%rbp),%rax
    12a3:	48 01 d0             	add    %rdx,%rax
    12a6:	48 8b 00             	mov    (%rax),%rax
    12a9:	48 89 45 f8          	mov    %rax,-0x8(%rbp)
    12ad:	48 83 45 f0 01       	addq   $0x1,-0x10(%rbp)
    12b2:	eb b9                	jmp    126d <_Z12max_of_arrayPxx+0x1f>
    12b4:	48 8b 45 f8          	mov    -0x8(%rbp),%rax
    12b8:	5d                   	pop    %rbp
    12b9:	c3                   	retq   

00000000000012ba <_Z12min_of_arrayPxx>:
    12ba:	55                   	push   %rbp
    12bb:	48 89 e5             	mov    %rsp,%rbp
    12be:	48 89 7d e8          	mov    %rdi,-0x18(%rbp)
    12c2:	48 89 75 e0          	mov    %rsi,-0x20(%rbp)
    12c6:	48 8b 45 e8          	mov    -0x18(%rbp),%rax
    12ca:	48 8b 00             	mov    (%rax),%rax
    12cd:	48 89 45 f8          	mov    %rax,-0x8(%rbp)
    12d1:	48 c7 45 f0 00 00 00 	movq   $0x0,-0x10(%rbp)
    12d8:	00 
    12d9:	48 8b 45 f0          	mov    -0x10(%rbp),%rax
    12dd:	48 3b 45 e0          	cmp    -0x20(%rbp),%rax
    12e1:	7d 3d                	jge    1320 <_Z12min_of_arrayPxx+0x66>
    12e3:	48 8b 45 f0          	mov    -0x10(%rbp),%rax
    12e7:	48 8d 14 c5 00 00 00 	lea    0x0(,%rax,8),%rdx
    12ee:	00 
    12ef:	48 8b 45 e8          	mov    -0x18(%rbp),%rax
    12f3:	48 01 d0             	add    %rdx,%rax
    12f6:	48 8b 00             	mov    (%rax),%rax
    12f9:	48 39 45 f8          	cmp    %rax,-0x8(%rbp)
    12fd:	7e 1a                	jle    1319 <_Z12min_of_arrayPxx+0x5f>
    12ff:	48 8b 45 f0          	mov    -0x10(%rbp),%rax
    1303:	48 8d 14 c5 00 00 00 	lea    0x0(,%rax,8),%rdx
    130a:	00 
    130b:	48 8b 45 e8          	mov    -0x18(%rbp),%rax
    130f:	48 01 d0             	add    %rdx,%rax
    1312:	48 8b 00             	mov    (%rax),%rax
    1315:	48 89 45 f8          	mov    %rax,-0x8(%rbp)
    1319:	48 83 45 f0 01       	addq   $0x1,-0x10(%rbp)
    131e:	eb b9                	jmp    12d9 <_Z12min_of_arrayPxx+0x1f>
    1320:	48 8b 45 f8          	mov    -0x8(%rbp),%rax
    1324:	5d                   	pop    %rbp
    1325:	c3                   	retq   

0000000000001326 <main>:
    1326:	55                   	push   %rbp
    1327:	48 89 e5             	mov    %rsp,%rbp
    132a:	41 57                	push   %r15
    132c:	41 56                	push   %r14
    132e:	41 54                	push   %r12
    1330:	53                   	push   %rbx
    1331:	48 81 ec c0 00 00 00 	sub    $0xc0,%rsp
    1338:	bf 00 00 00 00       	mov    $0x0,%edi
    133d:	e8 0e fd ff ff       	callq  1050 <_ZNSt8ios_base15sync_with_stdioEb@plt>
    1342:	be 00 00 00 00       	mov    $0x0,%esi
    1347:	48 8d 3d a2 5e 00 00 	lea    0x5ea2(%rip),%rdi        # 71f0 <_ZSt3cin@@GLIBCXX_3.4+0x10>
    134e:	e8 3d fd ff ff       	callq  1090 <_ZNSt9basic_iosIcSt11char_traitsIcEE3tieEPSo@plt>
    1353:	48 8d 45 90          	lea    -0x70(%rbp),%rax
    1357:	48 89 c6             	mov    %rax,%rsi
    135a:	48 8d 3d 7f 5e 00 00 	lea    0x5e7f(%rip),%rdi        # 71e0 <_ZSt3cin@@GLIBCXX_3.4>
    1361:	e8 8a fd ff ff       	callq  10f0 <_ZNSirsERx@plt>
    1366:	48 8b 45 90          	mov    -0x70(%rbp),%rax
    136a:	48 8d 50 ff          	lea    -0x1(%rax),%rdx
    136e:	48 89 55 90          	mov    %rdx,-0x70(%rbp)
    1372:	48 85 c0             	test   %rax,%rax
    1375:	0f 95 c0             	setne  %al
    1378:	84 c0                	test   %al,%al
    137a:	0f 84 44 03 00 00    	je     16c4 <main+0x39e>
    1380:	48 89 e0             	mov    %rsp,%rax
    1383:	49 89 c4             	mov    %rax,%r12
    1386:	48 8d 45 88          	lea    -0x78(%rbp),%rax
    138a:	48 89 c6             	mov    %rax,%rsi
    138d:	48 8d 3d 4c 5e 00 00 	lea    0x5e4c(%rip),%rdi        # 71e0 <_ZSt3cin@@GLIBCXX_3.4>
    1394:	e8 57 fd ff ff       	callq  10f0 <_ZNSirsERx@plt>
    1399:	48 89 c2             	mov    %rax,%rdx
    139c:	48 8d 45 80          	lea    -0x80(%rbp),%rax
    13a0:	48 89 c6             	mov    %rax,%rsi
    13a3:	48 89 d7             	mov    %rdx,%rdi
    13a6:	e8 45 fd ff ff       	callq  10f0 <_ZNSirsERx@plt>
    13ab:	48 8b 4d 88          	mov    -0x78(%rbp),%rcx
    13af:	48 89 4d c0          	mov    %rcx,-0x40(%rbp)
    13b3:	48 89 c8             	mov    %rcx,%rax
    13b6:	48 83 c0 01          	add    $0x1,%rax
    13ba:	49 89 c6             	mov    %rax,%r14
    13bd:	41 bf 00 00 00 00    	mov    $0x0,%r15d
    13c3:	48 89 c8             	mov    %rcx,%rax
    13c6:	48 83 c0 01          	add    $0x1,%rax
    13ca:	48 89 85 20 ff ff ff 	mov    %rax,-0xe0(%rbp)
    13d1:	48 c7 85 28 ff ff ff 	movq   $0x0,-0xd8(%rbp)
    13d8:	00 00 00 00 
    13dc:	48 89 c8             	mov    %rcx,%rax
    13df:	48 8d 50 01          	lea    0x1(%rax),%rdx
    13e3:	b8 10 00 00 00       	mov    $0x10,%eax
    13e8:	48 83 e8 01          	sub    $0x1,%rax
    13ec:	48 01 d0             	add    %rdx,%rax
    13ef:	bb 10 00 00 00       	mov    $0x10,%ebx
    13f4:	ba 00 00 00 00       	mov    $0x0,%edx
    13f9:	48 f7 f3             	div    %rbx
    13fc:	48 6b c0 10          	imul   $0x10,%rax,%rax
    1400:	48 29 c4             	sub    %rax,%rsp
    1403:	48 89 e0             	mov    %rsp,%rax
    1406:	48 83 c0 00          	add    $0x0,%rax
    140a:	48 89 45 b8          	mov    %rax,-0x48(%rbp)
    140e:	48 89 c8             	mov    %rcx,%rax
    1411:	48 8d 50 01          	lea    0x1(%rax),%rdx
    1415:	48 8b 45 b8          	mov    -0x48(%rbp),%rax
    1419:	be 00 00 00 00       	mov    $0x0,%esi
    141e:	48 89 c7             	mov    %rax,%rdi
    1421:	e8 4a fc ff ff       	callq  1070 <memset@plt>
    1426:	48 8d 85 60 ff ff ff 	lea    -0xa0(%rbp),%rax
    142d:	48 89 c7             	mov    %rax,%rdi
    1430:	e8 db 03 00 00       	callq  1810 <_ZNSt6vectorISt4pairIiiESaIS1_EEC1Ev>
    1435:	48 8d 85 40 ff ff ff 	lea    -0xc0(%rbp),%rax
    143c:	48 89 c7             	mov    %rax,%rdi
    143f:	e8 20 04 00 00       	callq  1864 <_ZNSt6vectorIiSaIiEEC1Ev>
    1444:	c7 45 cc 00 00 00 00 	movl   $0x0,-0x34(%rbp)
    144b:	8b 45 cc             	mov    -0x34(%rbp),%eax
    144e:	48 63 d0             	movslq %eax,%rdx
    1451:	48 8b 45 88          	mov    -0x78(%rbp),%rax
    1455:	48 39 c2             	cmp    %rax,%rdx
    1458:	7d 55                	jge    14af <main+0x189>
    145a:	48 8d 85 3c ff ff ff 	lea    -0xc4(%rbp),%rax
    1461:	48 89 c6             	mov    %rax,%rsi
    1464:	48 8d 3d 75 5d 00 00 	lea    0x5d75(%rip),%rdi        # 71e0 <_ZSt3cin@@GLIBCXX_3.4>
    146b:	e8 10 fc ff ff       	callq  1080 <_ZNSirsERi@plt>
    1470:	8b 45 cc             	mov    -0x34(%rbp),%eax
    1473:	83 c0 01             	add    $0x1,%eax
    1476:	89 45 a0             	mov    %eax,-0x60(%rbp)
    1479:	48 8d 55 a0          	lea    -0x60(%rbp),%rdx
    147d:	48 8d 85 3c ff ff ff 	lea    -0xc4(%rbp),%rax
    1484:	48 89 d6             	mov    %rdx,%rsi
    1487:	48 89 c7             	mov    %rax,%rdi
    148a:	e8 d5 05 00 00       	callq  1a64 <_ZSt9make_pairIRiiESt4pairINSt17__decay_and_stripIT_E6__typeENS2_IT0_E6__typeEEOS3_OS6_>
    148f:	48 89 45 98          	mov    %rax,-0x68(%rbp)
    1493:	48 8d 55 98          	lea    -0x68(%rbp),%rdx
    1497:	48 8d 85 60 ff ff ff 	lea    -0xa0(%rbp),%rax
    149e:	48 89 d6             	mov    %rdx,%rsi
    14a1:	48 89 c7             	mov    %rax,%rdi
    14a4:	e8 07 06 00 00       	callq  1ab0 <_ZNSt6vectorISt4pairIiiESaIS1_EE9push_backEOS1_>
    14a9:	83 45 cc 01          	addl   $0x1,-0x34(%rbp)
    14ad:	eb 9c                	jmp    144b <main+0x125>
    14af:	c7 45 d0 00 00 00 00 	movl   $0x0,-0x30(%rbp)
    14b6:	8b 45 d0             	mov    -0x30(%rbp),%eax
    14b9:	48 63 d0             	movslq %eax,%rdx
    14bc:	48 8b 45 80          	mov    -0x80(%rbp),%rax
    14c0:	48 39 c2             	cmp    %rax,%rdx
    14c3:	7d 2f                	jge    14f4 <main+0x1ce>
    14c5:	48 8d 85 38 ff ff ff 	lea    -0xc8(%rbp),%rax
    14cc:	48 89 c6             	mov    %rax,%rsi
    14cf:	48 8d 3d 0a 5d 00 00 	lea    0x5d0a(%rip),%rdi        # 71e0 <_ZSt3cin@@GLIBCXX_3.4>
    14d6:	e8 a5 fb ff ff       	callq  1080 <_ZNSirsERi@plt>
    14db:	8b 85 38 ff ff ff    	mov    -0xc8(%rbp),%eax
    14e1:	83 c0 01             	add    $0x1,%eax
    14e4:	48 8b 55 b8          	mov    -0x48(%rbp),%rdx
    14e8:	48 98                	cltq   
    14ea:	c6 04 02 01          	movb   $0x1,(%rdx,%rax,1)
    14ee:	83 45 d0 01          	addl   $0x1,-0x30(%rbp)
    14f2:	eb c2                	jmp    14b6 <main+0x190>
    14f4:	48 8d 85 60 ff ff ff 	lea    -0xa0(%rbp),%rax
    14fb:	48 89 c7             	mov    %rax,%rdi
    14fe:	e8 05 06 00 00       	callq  1b08 <_ZNSt6vectorISt4pairIiiESaIS1_EE3endEv>
    1503:	48 89 c3             	mov    %rax,%rbx
    1506:	48 8d 85 60 ff ff ff 	lea    -0xa0(%rbp),%rax
    150d:	48 89 c7             	mov    %rax,%rdi
    1510:	e8 cd 05 00 00       	callq  1ae2 <_ZNSt6vectorISt4pairIiiESaIS1_EE5beginEv>
    1515:	48 89 de             	mov    %rbx,%rsi
    1518:	48 89 c7             	mov    %rax,%rdi
    151b:	e8 11 06 00 00       	callq  1b31 <_ZSt4sortIN9__gnu_cxx17__normal_iteratorIPSt4pairIiiESt6vectorIS3_SaIS3_EEEEEvT_S9_>
    1520:	c7 45 d4 00 00 00 00 	movl   $0x0,-0x2c(%rbp)
    1527:	c7 45 d8 00 00 00 00 	movl   $0x0,-0x28(%rbp)
    152e:	8b 45 d8             	mov    -0x28(%rbp),%eax
    1531:	48 63 d8             	movslq %eax,%rbx
    1534:	48 8d 85 60 ff ff ff 	lea    -0xa0(%rbp),%rax
    153b:	48 89 c7             	mov    %rax,%rdi
    153e:	e8 19 06 00 00       	callq  1b5c <_ZNKSt6vectorISt4pairIiiESaIS1_EE4sizeEv>
    1543:	48 39 c3             	cmp    %rax,%rbx
    1546:	0f 92 c0             	setb   %al
    1549:	84 c0                	test   %al,%al
    154b:	0f 84 f5 00 00 00    	je     1646 <main+0x320>
    1551:	8b 45 d8             	mov    -0x28(%rbp),%eax
    1554:	48 63 d0             	movslq %eax,%rdx
    1557:	48 8d 85 60 ff ff ff 	lea    -0xa0(%rbp),%rax
    155e:	48 89 d6             	mov    %rdx,%rsi
    1561:	48 89 c7             	mov    %rax,%rdi
    1564:	e8 17 06 00 00       	callq  1b80 <_ZNSt6vectorISt4pairIiiESaIS1_EEixEm>
    1569:	8b 40 04             	mov    0x4(%rax),%eax
    156c:	8b 55 d8             	mov    -0x28(%rbp),%edx
    156f:	83 c2 01             	add    $0x1,%edx
    1572:	29 d0                	sub    %edx,%eax
    1574:	89 45 b4             	mov    %eax,-0x4c(%rbp)
    1577:	83 7d b4 00          	cmpl   $0x0,-0x4c(%rbp)
    157b:	0f 84 bc 00 00 00    	je     163d <main+0x317>
    1581:	8b 45 d8             	mov    -0x28(%rbp),%eax
    1584:	83 c0 01             	add    $0x1,%eax
    1587:	89 45 a4             	mov    %eax,-0x5c(%rbp)
    158a:	8b 45 d8             	mov    -0x28(%rbp),%eax
    158d:	48 63 d0             	movslq %eax,%rdx
    1590:	48 8d 85 60 ff ff ff 	lea    -0xa0(%rbp),%rax
    1597:	48 89 d6             	mov    %rdx,%rsi
    159a:	48 89 c7             	mov    %rax,%rdi
    159d:	e8 de 05 00 00       	callq  1b80 <_ZNSt6vectorISt4pairIiiESaIS1_EEixEm>
    15a2:	48 8d 50 04          	lea    0x4(%rax),%rdx
    15a6:	48 8d 45 a4          	lea    -0x5c(%rbp),%rax
    15aa:	48 89 c6             	mov    %rax,%rsi
    15ad:	48 89 d7             	mov    %rdx,%rdi
    15b0:	e8 eb 05 00 00       	callq  1ba0 <_ZSt3minIiERKT_S2_S2_>
    15b5:	8b 00                	mov    (%rax),%eax
    15b7:	89 45 b0             	mov    %eax,-0x50(%rbp)
    15ba:	8b 45 d8             	mov    -0x28(%rbp),%eax
    15bd:	83 c0 01             	add    $0x1,%eax
    15c0:	89 45 a8             	mov    %eax,-0x58(%rbp)
    15c3:	8b 45 d8             	mov    -0x28(%rbp),%eax
    15c6:	48 63 d0             	movslq %eax,%rdx
    15c9:	48 8d 85 60 ff ff ff 	lea    -0xa0(%rbp),%rax
    15d0:	48 89 d6             	mov    %rdx,%rsi
    15d3:	48 89 c7             	mov    %rax,%rdi
    15d6:	e8 a5 05 00 00       	callq  1b80 <_ZNSt6vectorISt4pairIiiESaIS1_EEixEm>
    15db:	48 8d 50 04          	lea    0x4(%rax),%rdx
    15df:	48 8d 45 a8          	lea    -0x58(%rbp),%rax
    15e3:	48 89 c6             	mov    %rax,%rsi
    15e6:	48 89 d7             	mov    %rdx,%rdi
    15e9:	e8 da 05 00 00       	callq  1bc8 <_ZSt3maxIiERKT_S2_S2_>
    15ee:	8b 00                	mov    (%rax),%eax
    15f0:	89 45 ac             	mov    %eax,-0x54(%rbp)
    15f3:	c7 45 dc 00 00 00 00 	movl   $0x0,-0x24(%rbp)
    15fa:	8b 45 b0             	mov    -0x50(%rbp),%eax
    15fd:	83 c0 01             	add    $0x1,%eax
    1600:	89 45 c8             	mov    %eax,-0x38(%rbp)
    1603:	8b 45 c8             	mov    -0x38(%rbp),%eax
    1606:	3b 45 ac             	cmp    -0x54(%rbp),%eax
    1609:	7f 23                	jg     162e <main+0x308>
    160b:	48 8b 55 b8          	mov    -0x48(%rbp),%rdx
    160f:	8b 45 c8             	mov    -0x38(%rbp),%eax
    1612:	48 98                	cltq   
    1614:	0f b6 04 02          	movzbl (%rdx,%rax,1),%eax
    1618:	0f b6 c0             	movzbl %al,%eax
    161b:	85 c0                	test   %eax,%eax
    161d:	75 09                	jne    1628 <main+0x302>
    161f:	c7 45 dc 01 00 00 00 	movl   $0x1,-0x24(%rbp)
    1626:	eb 06                	jmp    162e <main+0x308>
    1628:	83 45 c8 01          	addl   $0x1,-0x38(%rbp)
    162c:	eb d5                	jmp    1603 <main+0x2dd>
    162e:	83 7d dc 01          	cmpl   $0x1,-0x24(%rbp)
    1632:	75 09                	jne    163d <main+0x317>
    1634:	c7 45 d4 01 00 00 00 	movl   $0x1,-0x2c(%rbp)
    163b:	eb 09                	jmp    1646 <main+0x320>
    163d:	83 45 d8 01          	addl   $0x1,-0x28(%rbp)
    1641:	e9 e8 fe ff ff       	jmpq   152e <main+0x208>
    1646:	83 7d d4 00          	cmpl   $0x0,-0x2c(%rbp)
    164a:	74 2a                	je     1676 <main+0x350>
    164c:	48 8d 35 5d 2a 00 00 	lea    0x2a5d(%rip),%rsi        # 40b0 <_ZNSt8__detailL19_S_invalid_state_idE+0x8>
    1653:	48 8d 3d 66 5a 00 00 	lea    0x5a66(%rip),%rdi        # 70c0 <_ZSt4cout@@GLIBCXX_3.4>
    165a:	e8 61 fa ff ff       	callq  10c0 <_ZStlsISt11char_traitsIcEERSt13basic_ostreamIcT_ES5_PKc@plt>
    165f:	48 89 c2             	mov    %rax,%rdx
    1662:	48 8b 05 67 59 00 00 	mov    0x5967(%rip),%rax        # 6fd0 <_ZSt4endlIcSt11char_traitsIcEERSt13basic_ostreamIT_T0_ES6_@GLIBCXX_3.4>
    1669:	48 89 c6             	mov    %rax,%rsi
    166c:	48 89 d7             	mov    %rdx,%rdi
    166f:	e8 6c fa ff ff       	callq  10e0 <_ZNSolsEPFRSoS_E@plt>
    1674:	eb 28                	jmp    169e <main+0x378>
    1676:	48 8d 35 36 2a 00 00 	lea    0x2a36(%rip),%rsi        # 40b3 <_ZNSt8__detailL19_S_invalid_state_idE+0xb>
    167d:	48 8d 3d 3c 5a 00 00 	lea    0x5a3c(%rip),%rdi        # 70c0 <_ZSt4cout@@GLIBCXX_3.4>
    1684:	e8 37 fa ff ff       	callq  10c0 <_ZStlsISt11char_traitsIcEERSt13basic_ostreamIcT_ES5_PKc@plt>
    1689:	48 89 c2             	mov    %rax,%rdx
    168c:	48 8b 05 3d 59 00 00 	mov    0x593d(%rip),%rax        # 6fd0 <_ZSt4endlIcSt11char_traitsIcEERSt13basic_ostreamIT_T0_ES6_@GLIBCXX_3.4>
    1693:	48 89 c6             	mov    %rax,%rsi
    1696:	48 89 d7             	mov    %rdx,%rdi
    1699:	e8 42 fa ff ff       	callq  10e0 <_ZNSolsEPFRSoS_E@plt>
    169e:	48 8d 85 40 ff ff ff 	lea    -0xc0(%rbp),%rax
    16a5:	48 89 c7             	mov    %rax,%rdi
    16a8:	e8 73 03 00 00       	callq  1a20 <_ZNSt6vectorIiSaIiEED1Ev>
    16ad:	48 8d 85 60 ff ff ff 	lea    -0xa0(%rbp),%rax
    16b4:	48 89 c7             	mov    %rax,%rdi
    16b7:	e8 8e 02 00 00       	callq  194a <_ZNSt6vectorISt4pairIiiESaIS1_EED1Ev>
    16bc:	4c 89 e4             	mov    %r12,%rsp
    16bf:	e9 a2 fc ff ff       	jmpq   1366 <main+0x40>
    16c4:	b8 00 00 00 00       	mov    $0x0,%eax
    16c9:	eb 2c                	jmp    16f7 <main+0x3d1>
    16cb:	48 89 c3             	mov    %rax,%rbx
    16ce:	48 8d 85 40 ff ff ff 	lea    -0xc0(%rbp),%rax
    16d5:	48 89 c7             	mov    %rax,%rdi
    16d8:	e8 43 03 00 00       	callq  1a20 <_ZNSt6vectorIiSaIiEED1Ev>
    16dd:	48 8d 85 60 ff ff ff 	lea    -0xa0(%rbp),%rax
    16e4:	48 89 c7             	mov    %rax,%rdi
    16e7:	e8 5e 02 00 00       	callq  194a <_ZNSt6vectorISt4pairIiiESaIS1_EED1Ev>
    16ec:	48 89 d8             	mov    %rbx,%rax
    16ef:	48 89 c7             	mov    %rax,%rdi
    16f2:	e8 39 fa ff ff       	callq  1130 <_Unwind_Resume@plt>
    16f7:	48 8d 65 e0          	lea    -0x20(%rbp),%rsp
    16fb:	5b                   	pop    %rbx
    16fc:	41 5c                	pop    %r12
    16fe:	41 5e                	pop    %r14
    1700:	41 5f                	pop    %r15
    1702:	5d                   	pop    %rbp
    1703:	c3                   	retq   

0000000000001704 <_Z41__static_initialization_and_destruction_0ii>:
    1704:	55                   	push   %rbp
    1705:	48 89 e5             	mov    %rsp,%rbp
    1708:	48 83 ec 10          	sub    $0x10,%rsp
    170c:	89 7d fc             	mov    %edi,-0x4(%rbp)
    170f:	89 75 f8             	mov    %esi,-0x8(%rbp)
    1712:	83 7d fc 01          	cmpl   $0x1,-0x4(%rbp)
    1716:	75 32                	jne    174a <_Z41__static_initialization_and_destruction_0ii+0x46>
    1718:	81 7d f8 ff ff 00 00 	cmpl   $0xffff,-0x8(%rbp)
    171f:	75 29                	jne    174a <_Z41__static_initialization_and_destruction_0ii+0x46>
    1721:	48 8d 3d d1 5b 00 00 	lea    0x5bd1(%rip),%rdi        # 72f9 <_ZStL8__ioinit>
    1728:	e8 e3 f9 ff ff       	callq  1110 <_ZNSt8ios_base4InitC1Ev@plt>
    172d:	48 8d 15 74 59 00 00 	lea    0x5974(%rip),%rdx        # 70a8 <__dso_handle>
    1734:	48 8d 35 be 5b 00 00 	lea    0x5bbe(%rip),%rsi        # 72f9 <_ZStL8__ioinit>
    173b:	48 8b 05 b6 58 00 00 	mov    0x58b6(%rip),%rax        # 6ff8 <_ZNSt8ios_base4InitD1Ev@GLIBCXX_3.4>
    1742:	48 89 c7             	mov    %rax,%rdi
    1745:	e8 56 f9 ff ff       	callq  10a0 <__cxa_atexit@plt>
    174a:	90                   	nop
    174b:	c9                   	leaveq 
    174c:	c3                   	retq   

000000000000174d <_GLOBAL__sub_I__Z7decSortxx>:
    174d:	55                   	push   %rbp
    174e:	48 89 e5             	mov    %rsp,%rbp
    1751:	be ff ff 00 00       	mov    $0xffff,%esi
    1756:	bf 01 00 00 00       	mov    $0x1,%edi
    175b:	e8 a4 ff ff ff       	callq  1704 <_Z41__static_initialization_and_destruction_0ii>
    1760:	5d                   	pop    %rbp
    1761:	c3                   	retq   

0000000000001762 <_ZnwmPv>:
    1762:	55                   	push   %rbp
    1763:	48 89 e5             	mov    %rsp,%rbp
    1766:	48 89 7d f8          	mov    %rdi,-0x8(%rbp)
    176a:	48 89 75 f0          	mov    %rsi,-0x10(%rbp)
    176e:	48 8b 45 f0          	mov    -0x10(%rbp),%rax
    1772:	5d                   	pop    %rbp
    1773:	c3                   	retq   

0000000000001774 <_ZN9__gnu_cxx5__ops16__iter_less_iterEv>:
    1774:	55                   	push   %rbp
    1775:	48 89 e5             	mov    %rsp,%rbp
    1778:	5d                   	pop    %rbp
    1779:	c3                   	retq   

000000000000177a <_ZN9__gnu_cxx5__ops14_Iter_less_valC1ENS0_15_Iter_less_iterE>:
    177a:	55                   	push   %rbp
    177b:	48 89 e5             	mov    %rsp,%rbp
    177e:	48 89 7d f8          	mov    %rdi,-0x8(%rbp)
    1782:	90                   	nop
    1783:	5d                   	pop    %rbp
    1784:	c3                   	retq   

0000000000001785 <_ZN9__gnu_cxx5__ops15__val_comp_iterENS0_15_Iter_less_iterE>:
    1785:	55                   	push   %rbp
    1786:	48 89 e5             	mov    %rsp,%rbp
    1789:	5d                   	pop    %rbp
    178a:	c3                   	retq   

000000000000178b <_ZSt4__lgl>:
    178b:	55                   	push   %rbp
    178c:	48 89 e5             	mov    %rsp,%rbp
    178f:	48 89 7d f8          	mov    %rdi,-0x8(%rbp)
    1793:	48 8b 45 f8          	mov    -0x8(%rbp),%rax
    1797:	48 0f bd c0          	bsr    %rax,%rax
    179b:	48 83 f0 3f          	xor    $0x3f,%rax
    179f:	ba 3f 00 00 00       	mov    $0x3f,%edx
    17a4:	29 c2                	sub    %eax,%edx
    17a6:	89 d0                	mov    %edx,%eax
    17a8:	48 98                	cltq   
    17aa:	5d                   	pop    %rbp
    17ab:	c3                   	retq   

00000000000017ac <_ZSt3minImERKT_S2_S2_>:
    17ac:	55                   	push   %rbp
    17ad:	48 89 e5             	mov    %rsp,%rbp
    17b0:	48 89 7d f8          	mov    %rdi,-0x8(%rbp)
    17b4:	48 89 75 f0          	mov    %rsi,-0x10(%rbp)
    17b8:	48 8b 45 f0          	mov    -0x10(%rbp),%rax
    17bc:	48 8b 10             	mov    (%rax),%rdx
    17bf:	48 8b 45 f8          	mov    -0x8(%rbp),%rax
    17c3:	48 8b 00             	mov    (%rax),%rax
    17c6:	48 39 c2             	cmp    %rax,%rdx
    17c9:	73 06                	jae    17d1 <_ZSt3minImERKT_S2_S2_+0x25>
    17cb:	48 8b 45 f0          	mov    -0x10(%rbp),%rax
    17cf:	eb 04                	jmp    17d5 <_ZSt3minImERKT_S2_S2_+0x29>
    17d1:	48 8b 45 f8          	mov    -0x8(%rbp),%rax
    17d5:	5d                   	pop    %rbp
    17d6:	c3                   	retq   
    17d7:	90                   	nop

00000000000017d8 <_ZNSt12_Vector_baseISt4pairIiiESaIS1_EE12_Vector_implD1Ev>:
    17d8:	55                   	push   %rbp
    17d9:	48 89 e5             	mov    %rsp,%rbp
    17dc:	48 83 ec 10          	sub    $0x10,%rsp
    17e0:	48 89 7d f8          	mov    %rdi,-0x8(%rbp)
    17e4:	48 8b 45 f8          	mov    -0x8(%rbp),%rax
    17e8:	48 89 c7             	mov    %rax,%rdi
    17eb:	e8 f0 00 00 00       	callq  18e0 <_ZNSaISt4pairIiiEED1Ev>
    17f0:	90                   	nop
    17f1:	c9                   	leaveq 
    17f2:	c3                   	retq   
    17f3:	90                   	nop

00000000000017f4 <_ZNSt12_Vector_baseISt4pairIiiESaIS1_EEC1Ev>:
    17f4:	55                   	push   %rbp
    17f5:	48 89 e5             	mov    %rsp,%rbp
    17f8:	48 83 ec 10          	sub    $0x10,%rsp
    17fc:	48 89 7d f8          	mov    %rdi,-0x8(%rbp)
    1800:	48 8b 45 f8          	mov    -0x8(%rbp),%rax
    1804:	48 89 c7             	mov    %rax,%rdi
    1807:	e8 ac 00 00 00       	callq  18b8 <_ZNSt12_Vector_baseISt4pairIiiESaIS1_EE12_Vector_implC1Ev>
    180c:	90                   	nop
    180d:	c9                   	leaveq 
    180e:	c3                   	retq   
    180f:	90                   	nop

0000000000001810 <_ZNSt6vectorISt4pairIiiESaIS1_EEC1Ev>:
    1810:	55                   	push   %rbp
    1811:	48 89 e5             	mov    %rsp,%rbp
    1814:	48 83 ec 10          	sub    $0x10,%rsp
    1818:	48 89 7d f8          	mov    %rdi,-0x8(%rbp)
    181c:	48 8b 45 f8          	mov    -0x8(%rbp),%rax
    1820:	48 89 c7             	mov    %rax,%rdi
    1823:	e8 cc ff ff ff       	callq  17f4 <_ZNSt12_Vector_baseISt4pairIiiESaIS1_EEC1Ev>
    1828:	90                   	nop
    1829:	c9                   	leaveq 
    182a:	c3                   	retq   
    182b:	90                   	nop

000000000000182c <_ZNSt12_Vector_baseIiSaIiEE12_Vector_implD1Ev>:
    182c:	55                   	push   %rbp
    182d:	48 89 e5             	mov    %rsp,%rbp
    1830:	48 83 ec 10          	sub    $0x10,%rsp
    1834:	48 89 7d f8          	mov    %rdi,-0x8(%rbp)
    1838:	48 8b 45 f8          	mov    -0x8(%rbp),%rax
    183c:	48 89 c7             	mov    %rax,%rdi
    183f:	e8 72 01 00 00       	callq  19b6 <_ZNSaIiED1Ev>
    1844:	90                   	nop
    1845:	c9                   	leaveq 
    1846:	c3                   	retq   
    1847:	90                   	nop

0000000000001848 <_ZNSt12_Vector_baseIiSaIiEEC1Ev>:
    1848:	55                   	push   %rbp
    1849:	48 89 e5             	mov    %rsp,%rbp
    184c:	48 83 ec 10          	sub    $0x10,%rsp
    1850:	48 89 7d f8          	mov    %rdi,-0x8(%rbp)
    1854:	48 8b 45 f8          	mov    -0x8(%rbp),%rax
    1858:	48 89 c7             	mov    %rax,%rdi
    185b:	e8 2e 01 00 00       	callq  198e <_ZNSt12_Vector_baseIiSaIiEE12_Vector_implC1Ev>
    1860:	90                   	nop
    1861:	c9                   	leaveq 
    1862:	c3                   	retq   
    1863:	90                   	nop

0000000000001864 <_ZNSt6vectorIiSaIiEEC1Ev>:
    1864:	55                   	push   %rbp
    1865:	48 89 e5             	mov    %rsp,%rbp
    1868:	48 83 ec 10          	sub    $0x10,%rsp
    186c:	48 89 7d f8          	mov    %rdi,-0x8(%rbp)
    1870:	48 8b 45 f8          	mov    -0x8(%rbp),%rax
    1874:	48 89 c7             	mov    %rax,%rdi
    1877:	e8 cc ff ff ff       	callq  1848 <_ZNSt12_Vector_baseIiSaIiEEC1Ev>
    187c:	90                   	nop
    187d:	c9                   	leaveq 
    187e:	c3                   	retq   

000000000000187f <_ZSt3maxImERKT_S2_S2_>:
    187f:	55                   	push   %rbp
    1880:	48 89 e5             	mov    %rsp,%rbp
    1883:	48 89 7d f8          	mov    %rdi,-0x8(%rbp)
    1887:	48 89 75 f0          	mov    %rsi,-0x10(%rbp)
    188b:	48 8b 45 f8          	mov    -0x8(%rbp),%rax
    188f:	48 8b 10             	mov    (%rax),%rdx
    1892:	48 8b 45 f0          	mov    -0x10(%rbp),%rax
    1896:	48 8b 00             	mov    (%rax),%rax
    1899:	48 39 c2             	cmp    %rax,%rdx
    189c:	73 06                	jae    18a4 <_ZSt3maxImERKT_S2_S2_+0x25>
    189e:	48 8b 45 f0          	mov    -0x10(%rbp),%rax
    18a2:	eb 04                	jmp    18a8 <_ZSt3maxImERKT_S2_S2_+0x29>
    18a4:	48 8b 45 f8          	mov    -0x8(%rbp),%rax
    18a8:	5d                   	pop    %rbp
    18a9:	c3                   	retq   

00000000000018aa <_ZSt7forwardIiEOT_RNSt16remove_referenceIS0_E4typeE>:
    18aa:	55                   	push   %rbp
    18ab:	48 89 e5             	mov    %rsp,%rbp
    18ae:	48 89 7d f8          	mov    %rdi,-0x8(%rbp)
    18b2:	48 8b 45 f8          	mov    -0x8(%rbp),%rax
    18b6:	5d                   	pop    %rbp
    18b7:	c3                   	retq   

00000000000018b8 <_ZNSt12_Vector_baseISt4pairIiiESaIS1_EE12_Vector_implC1Ev>:
    18b8:	55                   	push   %rbp
    18b9:	48 89 e5             	mov    %rsp,%rbp
    18bc:	48 83 ec 10          	sub    $0x10,%rsp
    18c0:	48 89 7d f8          	mov    %rdi,-0x8(%rbp)
    18c4:	48 8b 45 f8          	mov    -0x8(%rbp),%rax
    18c8:	48 89 c7             	mov    %rax,%rdi
    18cb:	e8 20 03 00 00       	callq  1bf0 <_ZNSaISt4pairIiiEEC1Ev>
    18d0:	48 8b 45 f8          	mov    -0x8(%rbp),%rax
    18d4:	48 89 c7             	mov    %rax,%rdi
    18d7:	e8 30 03 00 00       	callq  1c0c <_ZNSt12_Vector_baseISt4pairIiiESaIS1_EE17_Vector_impl_dataC1Ev>
    18dc:	90                   	nop
    18dd:	c9                   	leaveq 
    18de:	c3                   	retq   
    18df:	90                   	nop

00000000000018e0 <_ZNSaISt4pairIiiEED1Ev>:
    18e0:	55                   	push   %rbp
    18e1:	48 89 e5             	mov    %rsp,%rbp
    18e4:	48 83 ec 10          	sub    $0x10,%rsp
    18e8:	48 89 7d f8          	mov    %rdi,-0x8(%rbp)
    18ec:	48 8b 45 f8          	mov    -0x8(%rbp),%rax
    18f0:	48 89 c7             	mov    %rax,%rdi
    18f3:	e8 42 03 00 00       	callq  1c3a <_ZN9__gnu_cxx13new_allocatorISt4pairIiiEED1Ev>
    18f8:	90                   	nop
    18f9:	c9                   	leaveq 
    18fa:	c3                   	retq   
    18fb:	90                   	nop

00000000000018fc <_ZNSt12_Vector_baseISt4pairIiiESaIS1_EED1Ev>:
    18fc:	55                   	push   %rbp
    18fd:	48 89 e5             	mov    %rsp,%rbp
    1900:	48 83 ec 10          	sub    $0x10,%rsp
    1904:	48 89 7d f8          	mov    %rdi,-0x8(%rbp)
    1908:	48 8b 45 f8          	mov    -0x8(%rbp),%rax
    190c:	48 8b 50 10          	mov    0x10(%rax),%rdx
    1910:	48 8b 45 f8          	mov    -0x8(%rbp),%rax
    1914:	48 8b 00             	mov    (%rax),%rax
    1917:	48 29 c2             	sub    %rax,%rdx
    191a:	48 89 d0             	mov    %rdx,%rax
    191d:	48 c1 f8 03          	sar    $0x3,%rax
    1921:	48 89 c2             	mov    %rax,%rdx
    1924:	48 8b 45 f8          	mov    -0x8(%rbp),%rax
    1928:	48 8b 08             	mov    (%rax),%rcx
    192b:	48 8b 45 f8          	mov    -0x8(%rbp),%rax
    192f:	48 89 ce             	mov    %rcx,%rsi
    1932:	48 89 c7             	mov    %rax,%rdi
    1935:	e8 0c 03 00 00       	callq  1c46 <_ZNSt12_Vector_baseISt4pairIiiESaIS1_EE13_M_deallocateEPS1_m>
    193a:	48 8b 45 f8          	mov    -0x8(%rbp),%rax
    193e:	48 89 c7             	mov    %rax,%rdi
    1941:	e8 92 fe ff ff       	callq  17d8 <_ZNSt12_Vector_baseISt4pairIiiESaIS1_EE12_Vector_implD1Ev>
    1946:	90                   	nop
    1947:	c9                   	leaveq 
    1948:	c3                   	retq   
    1949:	90                   	nop

000000000000194a <_ZNSt6vectorISt4pairIiiESaIS1_EED1Ev>:
    194a:	55                   	push   %rbp
    194b:	48 89 e5             	mov    %rsp,%rbp
    194e:	48 83 ec 10          	sub    $0x10,%rsp
    1952:	48 89 7d f8          	mov    %rdi,-0x8(%rbp)
    1956:	48 8b 45 f8          	mov    -0x8(%rbp),%rax
    195a:	48 89 c7             	mov    %rax,%rdi
    195d:	e8 1a 03 00 00       	callq  1c7c <_ZNSt12_Vector_baseISt4pairIiiESaIS1_EE19_M_get_Tp_allocatorEv>
    1962:	48 89 c2             	mov    %rax,%rdx
    1965:	48 8b 45 f8          	mov    -0x8(%rbp),%rax
    1969:	48 8b 48 08          	mov    0x8(%rax),%rcx
    196d:	48 8b 45 f8          	mov    -0x8(%rbp),%rax
    1971:	48 8b 00             	mov    (%rax),%rax
    1974:	48 89 ce             	mov    %rcx,%rsi
    1977:	48 89 c7             	mov    %rax,%rdi
    197a:	e8 0b 03 00 00       	callq  1c8a <_ZSt8_DestroyIPSt4pairIiiES1_EvT_S3_RSaIT0_E>
    197f:	48 8b 45 f8          	mov    -0x8(%rbp),%rax
    1983:	48 89 c7             	mov    %rax,%rdi
    1986:	e8 71 ff ff ff       	callq  18fc <_ZNSt12_Vector_baseISt4pairIiiESaIS1_EED1Ev>
    198b:	90                   	nop
    198c:	c9                   	leaveq 
    198d:	c3                   	retq   

000000000000198e <_ZNSt12_Vector_baseIiSaIiEE12_Vector_implC1Ev>:
    198e:	55                   	push   %rbp
    198f:	48 89 e5             	mov    %rsp,%rbp
    1992:	48 83 ec 10          	sub    $0x10,%rsp
    1996:	48 89 7d f8          	mov    %rdi,-0x8(%rbp)
    199a:	48 8b 45 f8          	mov    -0x8(%rbp),%rax
    199e:	48 89 c7             	mov    %rax,%rdi
    19a1:	e8 0e 03 00 00       	callq  1cb4 <_ZNSaIiEC1Ev>
    19a6:	48 8b 45 f8          	mov    -0x8(%rbp),%rax
    19aa:	48 89 c7             	mov    %rax,%rdi
    19ad:	e8 1e 03 00 00       	callq  1cd0 <_ZNSt12_Vector_baseIiSaIiEE17_Vector_impl_dataC1Ev>
    19b2:	90                   	nop
    19b3:	c9                   	leaveq 
    19b4:	c3                   	retq   
    19b5:	90                   	nop

00000000000019b6 <_ZNSaIiED1Ev>:
    19b6:	55                   	push   %rbp
    19b7:	48 89 e5             	mov    %rsp,%rbp
    19ba:	48 83 ec 10          	sub    $0x10,%rsp
    19be:	48 89 7d f8          	mov    %rdi,-0x8(%rbp)
    19c2:	48 8b 45 f8          	mov    -0x8(%rbp),%rax
    19c6:	48 89 c7             	mov    %rax,%rdi
    19c9:	e8 30 03 00 00       	callq  1cfe <_ZN9__gnu_cxx13new_allocatorIiED1Ev>
    19ce:	90                   	nop
    19cf:	c9                   	leaveq 
    19d0:	c3                   	retq   
    19d1:	90                   	nop

00000000000019d2 <_ZNSt12_Vector_baseIiSaIiEED1Ev>:
    19d2:	55                   	push   %rbp
    19d3:	48 89 e5             	mov    %rsp,%rbp
    19d6:	48 83 ec 10          	sub    $0x10,%rsp
    19da:	48 89 7d f8          	mov    %rdi,-0x8(%rbp)
    19de:	48 8b 45 f8          	mov    -0x8(%rbp),%rax
    19e2:	48 8b 50 10          	mov    0x10(%rax),%rdx
    19e6:	48 8b 45 f8          	mov    -0x8(%rbp),%rax
    19ea:	48 8b 00             	mov    (%rax),%rax
    19ed:	48 29 c2             	sub    %rax,%rdx
    19f0:	48 89 d0             	mov    %rdx,%rax
    19f3:	48 c1 f8 02          	sar    $0x2,%rax
    19f7:	48 89 c2             	mov    %rax,%rdx
    19fa:	48 8b 45 f8          	mov    -0x8(%rbp),%rax
    19fe:	48 8b 08             	mov    (%rax),%rcx
    1a01:	48 8b 45 f8          	mov    -0x8(%rbp),%rax
    1a05:	48 89 ce             	mov    %rcx,%rsi
    1a08:	48 89 c7             	mov    %rax,%rdi
    1a0b:	e8 fa 02 00 00       	callq  1d0a <_ZNSt12_Vector_baseIiSaIiEE13_M_deallocateEPim>
    1a10:	48 8b 45 f8          	mov    -0x8(%rbp),%rax
    1a14:	48 89 c7             	mov    %rax,%rdi
    1a17:	e8 10 fe ff ff       	callq  182c <_ZNSt12_Vector_baseIiSaIiEE12_Vector_implD1Ev>
    1a1c:	90                   	nop
    1a1d:	c9                   	leaveq 
    1a1e:	c3                   	retq   
    1a1f:	90                   	nop

0000000000001a20 <_ZNSt6vectorIiSaIiEED1Ev>:
    1a20:	55                   	push   %rbp
    1a21:	48 89 e5             	mov    %rsp,%rbp
    1a24:	48 83 ec 10          	sub    $0x10,%rsp
    1a28:	48 89 7d f8          	mov    %rdi,-0x8(%rbp)
    1a2c:	48 8b 45 f8          	mov    -0x8(%rbp),%rax
    1a30:	48 89 c7             	mov    %rax,%rdi
    1a33:	e8 08 03 00 00       	callq  1d40 <_ZNSt12_Vector_baseIiSaIiEE19_M_get_Tp_allocatorEv>
    1a38:	48 89 c2             	mov    %rax,%rdx
    1a3b:	48 8b 45 f8          	mov    -0x8(%rbp),%rax
    1a3f:	48 8b 48 08          	mov    0x8(%rax),%rcx
    1a43:	48 8b 45 f8          	mov    -0x8(%rbp),%rax
    1a47:	48 8b 00             	mov    (%rax),%rax
    1a4a:	48 89 ce             	mov    %rcx,%rsi
    1a4d:	48 89 c7             	mov    %rax,%rdi
    1a50:	e8 f9 02 00 00       	callq  1d4e <_ZSt8_DestroyIPiiEvT_S1_RSaIT0_E>
    1a55:	48 8b 45 f8          	mov    -0x8(%rbp),%rax
    1a59:	48 89 c7             	mov    %rax,%rdi
    1a5c:	e8 71 ff ff ff       	callq  19d2 <_ZNSt12_Vector_baseIiSaIiEED1Ev>
    1a61:	90                   	nop
    1a62:	c9                   	leaveq 
    1a63:	c3                   	retq   

0000000000001a64 <_ZSt9make_pairIRiiESt4pairINSt17__decay_and_stripIT_E6__typeENS2_IT0_E6__typeEEOS3_OS6_>:
    1a64:	55                   	push   %rbp
    1a65:	48 89 e5             	mov    %rsp,%rbp
    1a68:	53                   	push   %rbx
    1a69:	48 83 ec 28          	sub    $0x28,%rsp
    1a6d:	48 89 7d d8          	mov    %rdi,-0x28(%rbp)
    1a71:	48 89 75 d0          	mov    %rsi,-0x30(%rbp)
    1a75:	48 8b 45 d0          	mov    -0x30(%rbp),%rax
    1a79:	48 89 c7             	mov    %rax,%rdi
    1a7c:	e8 29 fe ff ff       	callq  18aa <_ZSt7forwardIiEOT_RNSt16remove_referenceIS0_E4typeE>
    1a81:	48 89 c3             	mov    %rax,%rbx
    1a84:	48 8b 45 d8          	mov    -0x28(%rbp),%rax
    1a88:	48 89 c7             	mov    %rax,%rdi
    1a8b:	e8 e8 02 00 00       	callq  1d78 <_ZSt7forwardIRiEOT_RNSt16remove_referenceIS1_E4typeE>
    1a90:	48 89 c1             	mov    %rax,%rcx
    1a93:	48 8d 45 e8          	lea    -0x18(%rbp),%rax
    1a97:	48 89 da             	mov    %rbx,%rdx
    1a9a:	48 89 ce             	mov    %rcx,%rsi
    1a9d:	48 89 c7             	mov    %rax,%rdi
    1aa0:	e8 e1 02 00 00       	callq  1d86 <_ZNSt4pairIiiEC1IRiiLb1EEEOT_OT0_>
    1aa5:	48 8b 45 e8          	mov    -0x18(%rbp),%rax
    1aa9:	48 83 c4 28          	add    $0x28,%rsp
    1aad:	5b                   	pop    %rbx
    1aae:	5d                   	pop    %rbp
    1aaf:	c3                   	retq   

0000000000001ab0 <_ZNSt6vectorISt4pairIiiESaIS1_EE9push_backEOS1_>:
    1ab0:	55                   	push   %rbp
    1ab1:	48 89 e5             	mov    %rsp,%rbp
    1ab4:	48 83 ec 10          	sub    $0x10,%rsp
    1ab8:	48 89 7d f8          	mov    %rdi,-0x8(%rbp)
    1abc:	48 89 75 f0          	mov    %rsi,-0x10(%rbp)
    1ac0:	48 8b 45 f0          	mov    -0x10(%rbp),%rax
    1ac4:	48 89 c7             	mov    %rax,%rdi
    1ac7:	e8 fa 02 00 00       	callq  1dc6 <_ZSt4moveIRSt4pairIiiEEONSt16remove_referenceIT_E4typeEOS4_>
    1acc:	48 89 c2             	mov    %rax,%rdx
    1acf:	48 8b 45 f8          	mov    -0x8(%rbp),%rax
    1ad3:	48 89 d6             	mov    %rdx,%rsi
    1ad6:	48 89 c7             	mov    %rax,%rdi
    1ad9:	e8 f6 02 00 00       	callq  1dd4 <_ZNSt6vectorISt4pairIiiESaIS1_EE12emplace_backIJS1_EEEvDpOT_>
    1ade:	90                   	nop
    1adf:	c9                   	leaveq 
    1ae0:	c3                   	retq   
    1ae1:	90                   	nop

0000000000001ae2 <_ZNSt6vectorISt4pairIiiESaIS1_EE5beginEv>:
    1ae2:	55                   	push   %rbp
    1ae3:	48 89 e5             	mov    %rsp,%rbp
    1ae6:	48 83 ec 20          	sub    $0x20,%rsp
    1aea:	48 89 7d e8          	mov    %rdi,-0x18(%rbp)
    1aee:	48 8b 55 e8          	mov    -0x18(%rbp),%rdx
    1af2:	48 8d 45 f8          	lea    -0x8(%rbp),%rax
    1af6:	48 89 d6             	mov    %rdx,%rsi
    1af9:	48 89 c7             	mov    %rax,%rdi
    1afc:	e8 6d 03 00 00       	callq  1e6e <_ZN9__gnu_cxx17__normal_iteratorIPSt4pairIiiESt6vectorIS2_SaIS2_EEEC1ERKS3_>
    1b01:	48 8b 45 f8          	mov    -0x8(%rbp),%rax
    1b05:	c9                   	leaveq 
    1b06:	c3                   	retq   
    1b07:	90                   	nop

0000000000001b08 <_ZNSt6vectorISt4pairIiiESaIS1_EE3endEv>:
    1b08:	55                   	push   %rbp
    1b09:	48 89 e5             	mov    %rsp,%rbp
    1b0c:	48 83 ec 20          	sub    $0x20,%rsp
    1b10:	48 89 7d e8          	mov    %rdi,-0x18(%rbp)
    1b14:	48 8b 45 e8          	mov    -0x18(%rbp),%rax
    1b18:	48 8d 50 08          	lea    0x8(%rax),%rdx
    1b1c:	48 8d 45 f8          	lea    -0x8(%rbp),%rax
    1b20:	48 89 d6             	mov    %rdx,%rsi
    1b23:	48 89 c7             	mov    %rax,%rdi
    1b26:	e8 43 03 00 00       	callq  1e6e <_ZN9__gnu_cxx17__normal_iteratorIPSt4pairIiiESt6vectorIS2_SaIS2_EEEC1ERKS3_>
    1b2b:	48 8b 45 f8          	mov    -0x8(%rbp),%rax
    1b2f:	c9                   	leaveq 
    1b30:	c3                   	retq   

0000000000001b31 <_ZSt4sortIN9__gnu_cxx17__normal_iteratorIPSt4pairIiiESt6vectorIS3_SaIS3_EEEEEvT_S9_>:
    1b31:	55                   	push   %rbp
    1b32:	48 89 e5             	mov    %rsp,%rbp
    1b35:	48 83 ec 20          	sub    $0x20,%rsp
    1b39:	48 89 7d e8          	mov    %rdi,-0x18(%rbp)
    1b3d:	48 89 75 e0          	mov    %rsi,-0x20(%rbp)
    1b41:	e8 2e fc ff ff       	callq  1774 <_ZN9__gnu_cxx5__ops16__iter_less_iterEv>
    1b46:	48 8b 55 e0          	mov    -0x20(%rbp),%rdx
    1b4a:	48 8b 45 e8          	mov    -0x18(%rbp),%rax
    1b4e:	48 89 d6             	mov    %rdx,%rsi
    1b51:	48 89 c7             	mov    %rax,%rdi
    1b54:	e8 32 03 00 00       	callq  1e8b <_ZSt6__sortIN9__gnu_cxx17__normal_iteratorIPSt4pairIiiESt6vectorIS3_SaIS3_EEEENS0_5__ops15_Iter_less_iterEEvT_SB_T0_>
    1b59:	90                   	nop
    1b5a:	c9                   	leaveq 
    1b5b:	c3                   	retq   

0000000000001b5c <_ZNKSt6vectorISt4pairIiiESaIS1_EE4sizeEv>:
    1b5c:	55                   	push   %rbp
    1b5d:	48 89 e5             	mov    %rsp,%rbp
    1b60:	48 89 7d f8          	mov    %rdi,-0x8(%rbp)
    1b64:	48 8b 45 f8          	mov    -0x8(%rbp),%rax
    1b68:	48 8b 50 08          	mov    0x8(%rax),%rdx
    1b6c:	48 8b 45 f8          	mov    -0x8(%rbp),%rax
    1b70:	48 8b 00             	mov    (%rax),%rax
    1b73:	48 29 c2             	sub    %rax,%rdx
    1b76:	48 89 d0             	mov    %rdx,%rax
    1b79:	48 c1 f8 03          	sar    $0x3,%rax
    1b7d:	5d                   	pop    %rbp
    1b7e:	c3                   	retq   
    1b7f:	90                   	nop

0000000000001b80 <_ZNSt6vectorISt4pairIiiESaIS1_EEixEm>:
    1b80:	55                   	push   %rbp
    1b81:	48 89 e5             	mov    %rsp,%rbp
    1b84:	48 89 7d f8          	mov    %rdi,-0x8(%rbp)
    1b88:	48 89 75 f0          	mov    %rsi,-0x10(%rbp)
    1b8c:	48 8b 45 f8          	mov    -0x8(%rbp),%rax
    1b90:	48 8b 00             	mov    (%rax),%rax
    1b93:	48 8b 55 f0          	mov    -0x10(%rbp),%rdx
    1b97:	48 c1 e2 03          	shl    $0x3,%rdx
    1b9b:	48 01 d0             	add    %rdx,%rax
    1b9e:	5d                   	pop    %rbp
    1b9f:	c3                   	retq   

0000000000001ba0 <_ZSt3minIiERKT_S2_S2_>:
    1ba0:	55                   	push   %rbp
    1ba1:	48 89 e5             	mov    %rsp,%rbp
    1ba4:	48 89 7d f8          	mov    %rdi,-0x8(%rbp)
    1ba8:	48 89 75 f0          	mov    %rsi,-0x10(%rbp)
    1bac:	48 8b 45 f0          	mov    -0x10(%rbp),%rax
    1bb0:	8b 10                	mov    (%rax),%edx
    1bb2:	48 8b 45 f8          	mov    -0x8(%rbp),%rax
    1bb6:	8b 00                	mov    (%rax),%eax
    1bb8:	39 c2                	cmp    %eax,%edx
    1bba:	7d 06                	jge    1bc2 <_ZSt3minIiERKT_S2_S2_+0x22>
    1bbc:	48 8b 45 f0          	mov    -0x10(%rbp),%rax
    1bc0:	eb 04                	jmp    1bc6 <_ZSt3minIiERKT_S2_S2_+0x26>
    1bc2:	48 8b 45 f8          	mov    -0x8(%rbp),%rax
    1bc6:	5d                   	pop    %rbp
    1bc7:	c3                   	retq   

0000000000001bc8 <_ZSt3maxIiERKT_S2_S2_>:
    1bc8:	55                   	push   %rbp
    1bc9:	48 89 e5             	mov    %rsp,%rbp
    1bcc:	48 89 7d f8          	mov    %rdi,-0x8(%rbp)
    1bd0:	48 89 75 f0          	mov    %rsi,-0x10(%rbp)
    1bd4:	48 8b 45 f8          	mov    -0x8(%rbp),%rax
    1bd8:	8b 10                	mov    (%rax),%edx
    1bda:	48 8b 45 f0          	mov    -0x10(%rbp),%rax
    1bde:	8b 00                	mov    (%rax),%eax
    1be0:	39 c2                	cmp    %eax,%edx
    1be2:	7d 06                	jge    1bea <_ZSt3maxIiERKT_S2_S2_+0x22>
    1be4:	48 8b 45 f0          	mov    -0x10(%rbp),%rax
    1be8:	eb 04                	jmp    1bee <_ZSt3maxIiERKT_S2_S2_+0x26>
    1bea:	48 8b 45 f8          	mov    -0x8(%rbp),%rax
    1bee:	5d                   	pop    %rbp
    1bef:	c3                   	retq   

0000000000001bf0 <_ZNSaISt4pairIiiEEC1Ev>:
    1bf0:	55                   	push   %rbp
    1bf1:	48 89 e5             	mov    %rsp,%rbp
    1bf4:	48 83 ec 10          	sub    $0x10,%rsp
    1bf8:	48 89 7d f8          	mov    %rdi,-0x8(%rbp)
    1bfc:	48 8b 45 f8          	mov    -0x8(%rbp),%rax
    1c00:	48 89 c7             	mov    %rax,%rdi
    1c03:	e8 f2 02 00 00       	callq  1efa <_ZN9__gnu_cxx13new_allocatorISt4pairIiiEEC1Ev>
    1c08:	90                   	nop
    1c09:	c9                   	leaveq 
    1c0a:	c3                   	retq   
    1c0b:	90                   	nop

0000000000001c0c <_ZNSt12_Vector_baseISt4pairIiiESaIS1_EE17_Vector_impl_dataC1Ev>:
    1c0c:	55                   	push   %rbp
    1c0d:	48 89 e5             	mov    %rsp,%rbp
    1c10:	48 89 7d f8          	mov    %rdi,-0x8(%rbp)
    1c14:	48 8b 45 f8          	mov    -0x8(%rbp),%rax
    1c18:	48 c7 00 00 00 00 00 	movq   $0x0,(%rax)
    1c1f:	48 8b 45 f8          	mov    -0x8(%rbp),%rax
    1c23:	48 c7 40 08 00 00 00 	movq   $0x0,0x8(%rax)
    1c2a:	00 
    1c2b:	48 8b 45 f8          	mov    -0x8(%rbp),%rax
    1c2f:	48 c7 40 10 00 00 00 	movq   $0x0,0x10(%rax)
    1c36:	00 
    1c37:	90                   	nop
    1c38:	5d                   	pop    %rbp
    1c39:	c3                   	retq   

0000000000001c3a <_ZN9__gnu_cxx13new_allocatorISt4pairIiiEED1Ev>:
    1c3a:	55                   	push   %rbp
    1c3b:	48 89 e5             	mov    %rsp,%rbp
    1c3e:	48 89 7d f8          	mov    %rdi,-0x8(%rbp)
    1c42:	90                   	nop
    1c43:	5d                   	pop    %rbp
    1c44:	c3                   	retq   
    1c45:	90                   	nop

0000000000001c46 <_ZNSt12_Vector_baseISt4pairIiiESaIS1_EE13_M_deallocateEPS1_m>:
    1c46:	55                   	push   %rbp
    1c47:	48 89 e5             	mov    %rsp,%rbp
    1c4a:	48 83 ec 20          	sub    $0x20,%rsp
    1c4e:	48 89 7d f8          	mov    %rdi,-0x8(%rbp)
    1c52:	48 89 75 f0          	mov    %rsi,-0x10(%rbp)
    1c56:	48 89 55 e8          	mov    %rdx,-0x18(%rbp)
    1c5a:	48 83 7d f0 00       	cmpq   $0x0,-0x10(%rbp)
    1c5f:	74 17                	je     1c78 <_ZNSt12_Vector_baseISt4pairIiiESaIS1_EE13_M_deallocateEPS1_m+0x32>
    1c61:	48 8b 45 f8          	mov    -0x8(%rbp),%rax
    1c65:	48 8b 55 e8          	mov    -0x18(%rbp),%rdx
    1c69:	48 8b 4d f0          	mov    -0x10(%rbp),%rcx
    1c6d:	48 89 ce             	mov    %rcx,%rsi
    1c70:	48 89 c7             	mov    %rax,%rdi
    1c73:	e8 8d 02 00 00       	callq  1f05 <_ZNSt16allocator_traitsISaISt4pairIiiEEE10deallocateERS2_PS1_m>
    1c78:	90                   	nop
    1c79:	c9                   	leaveq 
    1c7a:	c3                   	retq   
    1c7b:	90                   	nop

0000000000001c7c <_ZNSt12_Vector_baseISt4pairIiiESaIS1_EE19_M_get_Tp_allocatorEv>:
    1c7c:	55                   	push   %rbp
    1c7d:	48 89 e5             	mov    %rsp,%rbp
    1c80:	48 89 7d f8          	mov    %rdi,-0x8(%rbp)
    1c84:	48 8b 45 f8          	mov    -0x8(%rbp),%rax
    1c88:	5d                   	pop    %rbp
    1c89:	c3                   	retq   

0000000000001c8a <_ZSt8_DestroyIPSt4pairIiiES1_EvT_S3_RSaIT0_E>:
    1c8a:	55                   	push   %rbp
    1c8b:	48 89 e5             	mov    %rsp,%rbp
    1c8e:	48 83 ec 20          	sub    $0x20,%rsp
    1c92:	48 89 7d f8          	mov    %rdi,-0x8(%rbp)
    1c96:	48 89 75 f0          	mov    %rsi,-0x10(%rbp)
    1c9a:	48 89 55 e8          	mov    %rdx,-0x18(%rbp)
    1c9e:	48 8b 55 f0          	mov    -0x10(%rbp),%rdx
    1ca2:	48 8b 45 f8          	mov    -0x8(%rbp),%rax
    1ca6:	48 89 d6             	mov    %rdx,%rsi
    1ca9:	48 89 c7             	mov    %rax,%rdi
    1cac:	e8 82 02 00 00       	callq  1f33 <_ZSt8_DestroyIPSt4pairIiiEEvT_S3_>
    1cb1:	90                   	nop
    1cb2:	c9                   	leaveq 
    1cb3:	c3                   	retq   

0000000000001cb4 <_ZNSaIiEC1Ev>:
    1cb4:	55                   	push   %rbp
    1cb5:	48 89 e5             	mov    %rsp,%rbp
    1cb8:	48 83 ec 10          	sub    $0x10,%rsp
    1cbc:	48 89 7d f8          	mov    %rdi,-0x8(%rbp)
    1cc0:	48 8b 45 f8          	mov    -0x8(%rbp),%rax
    1cc4:	48 89 c7             	mov    %rax,%rdi
    1cc7:	e8 8e 02 00 00       	callq  1f5a <_ZN9__gnu_cxx13new_allocatorIiEC1Ev>
    1ccc:	90                   	nop
    1ccd:	c9                   	leaveq 
    1cce:	c3                   	retq   
    1ccf:	90                   	nop

0000000000001cd0 <_ZNSt12_Vector_baseIiSaIiEE17_Vector_impl_dataC1Ev>:
    1cd0:	55                   	push   %rbp
    1cd1:	48 89 e5             	mov    %rsp,%rbp
    1cd4:	48 89 7d f8          	mov    %rdi,-0x8(%rbp)
    1cd8:	48 8b 45 f8          	mov    -0x8(%rbp),%rax
    1cdc:	48 c7 00 00 00 00 00 	movq   $0x0,(%rax)
    1ce3:	48 8b 45 f8          	mov    -0x8(%rbp),%rax
    1ce7:	48 c7 40 08 00 00 00 	movq   $0x0,0x8(%rax)
    1cee:	00 
    1cef:	48 8b 45 f8          	mov    -0x8(%rbp),%rax
    1cf3:	48 c7 40 10 00 00 00 	movq   $0x0,0x10(%rax)
    1cfa:	00 
    1cfb:	90                   	nop
    1cfc:	5d                   	pop    %rbp
    1cfd:	c3                   	retq   

0000000000001cfe <_ZN9__gnu_cxx13new_allocatorIiED1Ev>:
    1cfe:	55                   	push   %rbp
    1cff:	48 89 e5             	mov    %rsp,%rbp
    1d02:	48 89 7d f8          	mov    %rdi,-0x8(%rbp)
    1d06:	90                   	nop
    1d07:	5d                   	pop    %rbp
    1d08:	c3                   	retq   
    1d09:	90                   	nop

0000000000001d0a <_ZNSt12_Vector_baseIiSaIiEE13_M_deallocateEPim>:
    1d0a:	55                   	push   %rbp
    1d0b:	48 89 e5             	mov    %rsp,%rbp
    1d0e:	48 83 ec 20          	sub    $0x20,%rsp
    1d12:	48 89 7d f8          	mov    %rdi,-0x8(%rbp)
    1d16:	48 89 75 f0          	mov    %rsi,-0x10(%rbp)
    1d1a:	48 89 55 e8          	mov    %rdx,-0x18(%rbp)
    1d1e:	48 83 7d f0 00       	cmpq   $0x0,-0x10(%rbp)
    1d23:	74 17                	je     1d3c <_ZNSt12_Vector_baseIiSaIiEE13_M_deallocateEPim+0x32>
    1d25:	48 8b 45 f8          	mov    -0x8(%rbp),%rax
    1d29:	48 8b 55 e8          	mov    -0x18(%rbp),%rdx
    1d2d:	48 8b 4d f0          	mov    -0x10(%rbp),%rcx
    1d31:	48 89 ce             	mov    %rcx,%rsi
    1d34:	48 89 c7             	mov    %rax,%rdi
    1d37:	e8 29 02 00 00       	callq  1f65 <_ZNSt16allocator_traitsISaIiEE10deallocateERS0_Pim>
    1d3c:	90                   	nop
    1d3d:	c9                   	leaveq 
    1d3e:	c3                   	retq   
    1d3f:	90                   	nop

0000000000001d40 <_ZNSt12_Vector_baseIiSaIiEE19_M_get_Tp_allocatorEv>:
    1d40:	55                   	push   %rbp
    1d41:	48 89 e5             	mov    %rsp,%rbp
    1d44:	48 89 7d f8          	mov    %rdi,-0x8(%rbp)
    1d48:	48 8b 45 f8          	mov    -0x8(%rbp),%rax
    1d4c:	5d                   	pop    %rbp
    1d4d:	c3                   	retq   

0000000000001d4e <_ZSt8_DestroyIPiiEvT_S1_RSaIT0_E>:
    1d4e:	55                   	push   %rbp
    1d4f:	48 89 e5             	mov    %rsp,%rbp
    1d52:	48 83 ec 20          	sub    $0x20,%rsp
    1d56:	48 89 7d f8          	mov    %rdi,-0x8(%rbp)
    1d5a:	48 89 75 f0          	mov    %rsi,-0x10(%rbp)
    1d5e:	48 89 55 e8          	mov    %rdx,-0x18(%rbp)
    1d62:	48 8b 55 f0          	mov    -0x10(%rbp),%rdx
    1d66:	48 8b 45 f8          	mov    -0x8(%rbp),%rax
    1d6a:	48 89 d6             	mov    %rdx,%rsi
    1d6d:	48 89 c7             	mov    %rax,%rdi
    1d70:	e8 1e 02 00 00       	callq  1f93 <_ZSt8_DestroyIPiEvT_S1_>
    1d75:	90                   	nop
    1d76:	c9                   	leaveq 
    1d77:	c3                   	retq   

0000000000001d78 <_ZSt7forwardIRiEOT_RNSt16remove_referenceIS1_E4typeE>:
    1d78:	55                   	push   %rbp
    1d79:	48 89 e5             	mov    %rsp,%rbp
    1d7c:	48 89 7d f8          	mov    %rdi,-0x8(%rbp)
    1d80:	48 8b 45 f8          	mov    -0x8(%rbp),%rax
    1d84:	5d                   	pop    %rbp
    1d85:	c3                   	retq   

0000000000001d86 <_ZNSt4pairIiiEC1IRiiLb1EEEOT_OT0_>:
    1d86:	55                   	push   %rbp
    1d87:	48 89 e5             	mov    %rsp,%rbp
    1d8a:	48 83 ec 20          	sub    $0x20,%rsp
    1d8e:	48 89 7d f8          	mov    %rdi,-0x8(%rbp)
    1d92:	48 89 75 f0          	mov    %rsi,-0x10(%rbp)
    1d96:	48 89 55 e8          	mov    %rdx,-0x18(%rbp)
    1d9a:	48 8b 45 f0          	mov    -0x10(%rbp),%rax
    1d9e:	48 89 c7             	mov    %rax,%rdi
    1da1:	e8 d2 ff ff ff       	callq  1d78 <_ZSt7forwardIRiEOT_RNSt16remove_referenceIS1_E4typeE>
    1da6:	8b 10                	mov    (%rax),%edx
    1da8:	48 8b 45 f8          	mov    -0x8(%rbp),%rax
    1dac:	89 10                	mov    %edx,(%rax)
    1dae:	48 8b 45 e8          	mov    -0x18(%rbp),%rax
    1db2:	48 89 c7             	mov    %rax,%rdi
    1db5:	e8 f0 fa ff ff       	callq  18aa <_ZSt7forwardIiEOT_RNSt16remove_referenceIS0_E4typeE>
    1dba:	8b 10                	mov    (%rax),%edx
    1dbc:	48 8b 45 f8          	mov    -0x8(%rbp),%rax
    1dc0:	89 50 04             	mov    %edx,0x4(%rax)
    1dc3:	90                   	nop
    1dc4:	c9                   	leaveq 
    1dc5:	c3                   	retq   

0000000000001dc6 <_ZSt4moveIRSt4pairIiiEEONSt16remove_referenceIT_E4typeEOS4_>:
    1dc6:	55                   	push   %rbp
    1dc7:	48 89 e5             	mov    %rsp,%rbp
    1dca:	48 89 7d f8          	mov    %rdi,-0x8(%rbp)
    1dce:	48 8b 45 f8          	mov    -0x8(%rbp),%rax
    1dd2:	5d                   	pop    %rbp
    1dd3:	c3                   	retq   

0000000000001dd4 <_ZNSt6vectorISt4pairIiiESaIS1_EE12emplace_backIJS1_EEEvDpOT_>:
    1dd4:	55                   	push   %rbp
    1dd5:	48 89 e5             	mov    %rsp,%rbp
    1dd8:	53                   	push   %rbx
    1dd9:	48 83 ec 18          	sub    $0x18,%rsp
    1ddd:	48 89 7d e8          	mov    %rdi,-0x18(%rbp)
    1de1:	48 89 75 e0          	mov    %rsi,-0x20(%rbp)
    1de5:	48 8b 45 e8          	mov    -0x18(%rbp),%rax
    1de9:	48 8b 50 08          	mov    0x8(%rax),%rdx
    1ded:	48 8b 45 e8          	mov    -0x18(%rbp),%rax
    1df1:	48 8b 40 10          	mov    0x10(%rax),%rax
    1df5:	48 39 c2             	cmp    %rax,%rdx
    1df8:	74 3c                	je     1e36 <_ZNSt6vectorISt4pairIiiESaIS1_EE12emplace_backIJS1_EEEvDpOT_+0x62>
    1dfa:	48 8b 45 e0          	mov    -0x20(%rbp),%rax
    1dfe:	48 89 c7             	mov    %rax,%rdi
    1e01:	e8 b3 01 00 00       	callq  1fb9 <_ZSt7forwardISt4pairIiiEEOT_RNSt16remove_referenceIS2_E4typeE>
    1e06:	48 89 c2             	mov    %rax,%rdx
    1e09:	48 8b 45 e8          	mov    -0x18(%rbp),%rax
    1e0d:	48 8b 48 08          	mov    0x8(%rax),%rcx
    1e11:	48 8b 45 e8          	mov    -0x18(%rbp),%rax
    1e15:	48 89 ce             	mov    %rcx,%rsi
    1e18:	48 89 c7             	mov    %rax,%rdi
    1e1b:	e8 a7 01 00 00       	callq  1fc7 <_ZNSt16allocator_traitsISaISt4pairIiiEEE9constructIS1_JS1_EEEvRS2_PT_DpOT0_>
    1e20:	48 8b 45 e8          	mov    -0x18(%rbp),%rax
    1e24:	48 8b 40 08          	mov    0x8(%rax),%rax
    1e28:	48 8d 50 08          	lea    0x8(%rax),%rdx
    1e2c:	48 8b 45 e8          	mov    -0x18(%rbp),%rax
    1e30:	48 89 50 08          	mov    %rdx,0x8(%rax)
    1e34:	eb 30                	jmp    1e66 <_ZNSt6vectorISt4pairIiiESaIS1_EE12emplace_backIJS1_EEEvDpOT_+0x92>
    1e36:	48 8b 45 e0          	mov    -0x20(%rbp),%rax
    1e3a:	48 89 c7             	mov    %rax,%rdi
    1e3d:	e8 77 01 00 00       	callq  1fb9 <_ZSt7forwardISt4pairIiiEEOT_RNSt16remove_referenceIS2_E4typeE>
    1e42:	48 89 c3             	mov    %rax,%rbx
    1e45:	48 8b 45 e8          	mov    -0x18(%rbp),%rax
    1e49:	48 89 c7             	mov    %rax,%rdi
    1e4c:	e8 b7 fc ff ff       	callq  1b08 <_ZNSt6vectorISt4pairIiiESaIS1_EE3endEv>
    1e51:	48 89 c1             	mov    %rax,%rcx
    1e54:	48 8b 45 e8          	mov    -0x18(%rbp),%rax
    1e58:	48 89 da             	mov    %rbx,%rdx
    1e5b:	48 89 ce             	mov    %rcx,%rsi
    1e5e:	48 89 c7             	mov    %rax,%rdi
    1e61:	e8 b4 01 00 00       	callq  201a <_ZNSt6vectorISt4pairIiiESaIS1_EE17_M_realloc_insertIJS1_EEEvN9__gnu_cxx17__normal_iteratorIPS1_S3_EEDpOT_>
    1e66:	90                   	nop
    1e67:	48 83 c4 18          	add    $0x18,%rsp
    1e6b:	5b                   	pop    %rbx
    1e6c:	5d                   	pop    %rbp
    1e6d:	c3                   	retq   

0000000000001e6e <_ZN9__gnu_cxx17__normal_iteratorIPSt4pairIiiESt6vectorIS2_SaIS2_EEEC1ERKS3_>:
    1e6e:	55                   	push   %rbp
    1e6f:	48 89 e5             	mov    %rsp,%rbp
    1e72:	48 89 7d f8          	mov    %rdi,-0x8(%rbp)
    1e76:	48 89 75 f0          	mov    %rsi,-0x10(%rbp)
    1e7a:	48 8b 45 f0          	mov    -0x10(%rbp),%rax
    1e7e:	48 8b 10             	mov    (%rax),%rdx
    1e81:	48 8b 45 f8          	mov    -0x8(%rbp),%rax
    1e85:	48 89 10             	mov    %rdx,(%rax)
    1e88:	90                   	nop
    1e89:	5d                   	pop    %rbp
    1e8a:	c3                   	retq   

0000000000001e8b <_ZSt6__sortIN9__gnu_cxx17__normal_iteratorIPSt4pairIiiESt6vectorIS3_SaIS3_EEEENS0_5__ops15_Iter_less_iterEEvT_SB_T0_>:
    1e8b:	55                   	push   %rbp
    1e8c:	48 89 e5             	mov    %rsp,%rbp
    1e8f:	48 83 ec 20          	sub    $0x20,%rsp
    1e93:	48 89 7d f8          	mov    %rdi,-0x8(%rbp)
    1e97:	48 89 75 f0          	mov    %rsi,-0x10(%rbp)
    1e9b:	48 8d 55 f0          	lea    -0x10(%rbp),%rdx
    1e9f:	48 8d 45 f8          	lea    -0x8(%rbp),%rax
    1ea3:	48 89 d6             	mov    %rdx,%rsi
    1ea6:	48 89 c7             	mov    %rax,%rdi
    1ea9:	e8 2f 04 00 00       	callq  22dd <_ZN9__gnu_cxxneIPSt4pairIiiESt6vectorIS2_SaIS2_EEEEbRKNS_17__normal_iteratorIT_T0_EESC_>
    1eae:	84 c0                	test   %al,%al
    1eb0:	74 45                	je     1ef7 <_ZSt6__sortIN9__gnu_cxx17__normal_iteratorIPSt4pairIiiESt6vectorIS3_SaIS3_EEEENS0_5__ops15_Iter_less_iterEEvT_SB_T0_+0x6c>
    1eb2:	48 8d 55 f8          	lea    -0x8(%rbp),%rdx
    1eb6:	48 8d 45 f0          	lea    -0x10(%rbp),%rax
    1eba:	48 89 d6             	mov    %rdx,%rsi
    1ebd:	48 89 c7             	mov    %rax,%rdi
    1ec0:	e8 54 04 00 00       	callq  2319 <_ZN9__gnu_cxxmiIPSt4pairIiiESt6vectorIS2_SaIS2_EEEENS_17__normal_iteratorIT_T0_E15difference_typeERKSA_SD_>
    1ec5:	48 89 c7             	mov    %rax,%rdi
    1ec8:	e8 be f8 ff ff       	callq  178b <_ZSt4__lgl>
    1ecd:	48 8d 14 00          	lea    (%rax,%rax,1),%rdx
    1ed1:	48 8b 4d f0          	mov    -0x10(%rbp),%rcx
    1ed5:	48 8b 45 f8          	mov    -0x8(%rbp),%rax
    1ed9:	48 89 ce             	mov    %rcx,%rsi
    1edc:	48 89 c7             	mov    %rax,%rdi
    1edf:	e8 75 04 00 00       	callq  2359 <_ZSt16__introsort_loopIN9__gnu_cxx17__normal_iteratorIPSt4pairIiiESt6vectorIS3_SaIS3_EEEElNS0_5__ops15_Iter_less_iterEEvT_SB_T0_T1_>
    1ee4:	48 8b 55 f0          	mov    -0x10(%rbp),%rdx
    1ee8:	48 8b 45 f8          	mov    -0x8(%rbp),%rax
    1eec:	48 89 d6             	mov    %rdx,%rsi
    1eef:	48 89 c7             	mov    %rax,%rdi
    1ef2:	e8 f3 04 00 00       	callq  23ea <_ZSt22__final_insertion_sortIN9__gnu_cxx17__normal_iteratorIPSt4pairIiiESt6vectorIS3_SaIS3_EEEENS0_5__ops15_Iter_less_iterEEvT_SB_T0_>
    1ef7:	90                   	nop
    1ef8:	c9                   	leaveq 
    1ef9:	c3                   	retq   

0000000000001efa <_ZN9__gnu_cxx13new_allocatorISt4pairIiiEEC1Ev>:
    1efa:	55                   	push   %rbp
    1efb:	48 89 e5             	mov    %rsp,%rbp
    1efe:	48 89 7d f8          	mov    %rdi,-0x8(%rbp)
    1f02:	90                   	nop
    1f03:	5d                   	pop    %rbp
    1f04:	c3                   	retq   

0000000000001f05 <_ZNSt16allocator_traitsISaISt4pairIiiEEE10deallocateERS2_PS1_m>:
    1f05:	55                   	push   %rbp
    1f06:	48 89 e5             	mov    %rsp,%rbp
    1f09:	48 83 ec 20          	sub    $0x20,%rsp
    1f0d:	48 89 7d f8          	mov    %rdi,-0x8(%rbp)
    1f11:	48 89 75 f0          	mov    %rsi,-0x10(%rbp)
    1f15:	48 89 55 e8          	mov    %rdx,-0x18(%rbp)
    1f19:	48 8b 55 e8          	mov    -0x18(%rbp),%rdx
    1f1d:	48 8b 4d f0          	mov    -0x10(%rbp),%rcx
    1f21:	48 8b 45 f8          	mov    -0x8(%rbp),%rax
    1f25:	48 89 ce             	mov    %rcx,%rsi
    1f28:	48 89 c7             	mov    %rax,%rdi
    1f2b:	e8 46 05 00 00       	callq  2476 <_ZN9__gnu_cxx13new_allocatorISt4pairIiiEE10deallocateEPS2_m>
    1f30:	90                   	nop
    1f31:	c9                   	leaveq 
    1f32:	c3                   	retq   

0000000000001f33 <_ZSt8_DestroyIPSt4pairIiiEEvT_S3_>:
    1f33:	55                   	push   %rbp
    1f34:	48 89 e5             	mov    %rsp,%rbp
    1f37:	48 83 ec 10          	sub    $0x10,%rsp
    1f3b:	48 89 7d f8          	mov    %rdi,-0x8(%rbp)
    1f3f:	48 89 75 f0          	mov    %rsi,-0x10(%rbp)
    1f43:	48 8b 55 f0          	mov    -0x10(%rbp),%rdx
    1f47:	48 8b 45 f8          	mov    -0x8(%rbp),%rax
    1f4b:	48 89 d6             	mov    %rdx,%rsi
    1f4e:	48 89 c7             	mov    %rax,%rdi
    1f51:	e8 43 05 00 00       	callq  2499 <_ZNSt12_Destroy_auxILb1EE9__destroyIPSt4pairIiiEEEvT_S5_>
    1f56:	90                   	nop
    1f57:	c9                   	leaveq 
    1f58:	c3                   	retq   
    1f59:	90                   	nop

0000000000001f5a <_ZN9__gnu_cxx13new_allocatorIiEC1Ev>:
    1f5a:	55                   	push   %rbp
    1f5b:	48 89 e5             	mov    %rsp,%rbp
    1f5e:	48 89 7d f8          	mov    %rdi,-0x8(%rbp)
    1f62:	90                   	nop
    1f63:	5d                   	pop    %rbp
    1f64:	c3                   	retq   

0000000000001f65 <_ZNSt16allocator_traitsISaIiEE10deallocateERS0_Pim>:
    1f65:	55                   	push   %rbp
    1f66:	48 89 e5             	mov    %rsp,%rbp
    1f69:	48 83 ec 20          	sub    $0x20,%rsp
    1f6d:	48 89 7d f8          	mov    %rdi,-0x8(%rbp)
    1f71:	48 89 75 f0          	mov    %rsi,-0x10(%rbp)
    1f75:	48 89 55 e8          	mov    %rdx,-0x18(%rbp)
    1f79:	48 8b 55 e8          	mov    -0x18(%rbp),%rdx
    1f7d:	48 8b 4d f0          	mov    -0x10(%rbp),%rcx
    1f81:	48 8b 45 f8          	mov    -0x8(%rbp),%rax
    1f85:	48 89 ce             	mov    %rcx,%rsi
    1f88:	48 89 c7             	mov    %rax,%rdi
    1f8b:	e8 18 05 00 00       	callq  24a8 <_ZN9__gnu_cxx13new_allocatorIiE10deallocateEPim>
    1f90:	90                   	nop
    1f91:	c9                   	leaveq 
    1f92:	c3                   	retq   

0000000000001f93 <_ZSt8_DestroyIPiEvT_S1_>:
    1f93:	55                   	push   %rbp
    1f94:	48 89 e5             	mov    %rsp,%rbp
    1f97:	48 83 ec 10          	sub    $0x10,%rsp
    1f9b:	48 89 7d f8          	mov    %rdi,-0x8(%rbp)
    1f9f:	48 89 75 f0          	mov    %rsi,-0x10(%rbp)
    1fa3:	48 8b 55 f0          	mov    -0x10(%rbp),%rdx
    1fa7:	48 8b 45 f8          	mov    -0x8(%rbp),%rax
    1fab:	48 89 d6             	mov    %rdx,%rsi
    1fae:	48 89 c7             	mov    %rax,%rdi
    1fb1:	e8 15 05 00 00       	callq  24cb <_ZNSt12_Destroy_auxILb1EE9__destroyIPiEEvT_S3_>
    1fb6:	90                   	nop
    1fb7:	c9                   	leaveq 
    1fb8:	c3                   	retq   

0000000000001fb9 <_ZSt7forwardISt4pairIiiEEOT_RNSt16remove_referenceIS2_E4typeE>:
    1fb9:	55                   	push   %rbp
    1fba:	48 89 e5             	mov    %rsp,%rbp
    1fbd:	48 89 7d f8          	mov    %rdi,-0x8(%rbp)
    1fc1:	48 8b 45 f8          	mov    -0x8(%rbp),%rax
    1fc5:	5d                   	pop    %rbp
    1fc6:	c3                   	retq   

0000000000001fc7 <_ZNSt16allocator_traitsISaISt4pairIiiEEE9constructIS1_JS1_EEEvRS2_PT_DpOT0_>:
    1fc7:	55                   	push   %rbp
    1fc8:	48 89 e5             	mov    %rsp,%rbp
    1fcb:	48 83 ec 20          	sub    $0x20,%rsp
    1fcf:	48 89 7d f8          	mov    %rdi,-0x8(%rbp)
    1fd3:	48 89 75 f0          	mov    %rsi,-0x10(%rbp)
    1fd7:	48 89 55 e8          	mov    %rdx,-0x18(%rbp)
    1fdb:	48 8b 45 e8          	mov    -0x18(%rbp),%rax
    1fdf:	48 89 c7             	mov    %rax,%rdi
    1fe2:	e8 d2 ff ff ff       	callq  1fb9 <_ZSt7forwardISt4pairIiiEEOT_RNSt16remove_referenceIS2_E4typeE>
    1fe7:	48 89 c2             	mov    %rax,%rdx
    1fea:	48 8b 4d f0          	mov    -0x10(%rbp),%rcx
    1fee:	48 8b 45 f8          	mov    -0x8(%rbp),%rax
    1ff2:	48 89 ce             	mov    %rcx,%rsi
    1ff5:	48 89 c7             	mov    %rax,%rdi
    1ff8:	e8 dd 04 00 00       	callq  24da <_ZN9__gnu_cxx13new_allocatorISt4pairIiiEE9constructIS2_JS2_EEEvPT_DpOT0_>
    1ffd:	90                   	nop
    1ffe:	c9                   	leaveq 
    1fff:	c3                   	retq   

0000000000002000 <_ZNSt6vectorISt4pairIiiESaIS1_EE15_S_use_relocateEv>:
    2000:	55                   	push   %rbp
    2001:	48 89 e5             	mov    %rsp,%rbp
    2004:	48 83 ec 10          	sub    $0x10,%rsp
    2008:	e8 02 00 00 00       	callq  200f <_ZNSt6vectorISt4pairIiiESaIS1_EE19_S_nothrow_relocateESt17integral_constantIbLb1EE>
    200d:	c9                   	leaveq 
    200e:	c3                   	retq   

000000000000200f <_ZNSt6vectorISt4pairIiiESaIS1_EE19_S_nothrow_relocateESt17integral_constantIbLb1EE>:
    200f:	55                   	push   %rbp
    2010:	48 89 e5             	mov    %rsp,%rbp
    2013:	b8 01 00 00 00       	mov    $0x1,%eax
    2018:	5d                   	pop    %rbp
    2019:	c3                   	retq   

000000000000201a <_ZNSt6vectorISt4pairIiiESaIS1_EE17_M_realloc_insertIJS1_EEEvN9__gnu_cxx17__normal_iteratorIPS1_S3_EEDpOT_>:
    201a:	55                   	push   %rbp
    201b:	48 89 e5             	mov    %rsp,%rbp
    201e:	53                   	push   %rbx
    201f:	48 83 ec 68          	sub    $0x68,%rsp
    2023:	48 89 7d a8          	mov    %rdi,-0x58(%rbp)
    2027:	48 89 75 a0          	mov    %rsi,-0x60(%rbp)
    202b:	48 89 55 98          	mov    %rdx,-0x68(%rbp)
    202f:	48 8b 45 a8          	mov    -0x58(%rbp),%rax
    2033:	48 8d 15 7d 20 00 00 	lea    0x207d(%rip),%rdx        # 40b7 <_ZNSt8__detailL19_S_invalid_state_idE+0xf>
    203a:	be 01 00 00 00       	mov    $0x1,%esi
    203f:	48 89 c7             	mov    %rax,%rdi
    2042:	e8 d7 04 00 00       	callq  251e <_ZNKSt6vectorISt4pairIiiESaIS1_EE12_M_check_lenEmPKc>
    2047:	48 89 45 e0          	mov    %rax,-0x20(%rbp)
    204b:	48 8b 45 a8          	mov    -0x58(%rbp),%rax
    204f:	48 8b 00             	mov    (%rax),%rax
    2052:	48 89 45 d8          	mov    %rax,-0x28(%rbp)
    2056:	48 8b 45 a8          	mov    -0x58(%rbp),%rax
    205a:	48 8b 40 08          	mov    0x8(%rax),%rax
    205e:	48 89 45 d0          	mov    %rax,-0x30(%rbp)
    2062:	48 8b 45 a8          	mov    -0x58(%rbp),%rax
    2066:	48 89 c7             	mov    %rax,%rdi
    2069:	e8 74 fa ff ff       	callq  1ae2 <_ZNSt6vectorISt4pairIiiESaIS1_EE5beginEv>
    206e:	48 89 45 b8          	mov    %rax,-0x48(%rbp)
    2072:	48 8d 55 b8          	lea    -0x48(%rbp),%rdx
    2076:	48 8d 45 a0          	lea    -0x60(%rbp),%rax
    207a:	48 89 d6             	mov    %rdx,%rsi
    207d:	48 89 c7             	mov    %rax,%rdi
    2080:	e8 94 02 00 00       	callq  2319 <_ZN9__gnu_cxxmiIPSt4pairIiiESt6vectorIS2_SaIS2_EEEENS_17__normal_iteratorIT_T0_E15difference_typeERKSA_SD_>
    2085:	48 89 45 c8          	mov    %rax,-0x38(%rbp)
    2089:	48 8b 45 a8          	mov    -0x58(%rbp),%rax
    208d:	48 8b 55 e0          	mov    -0x20(%rbp),%rdx
    2091:	48 89 d6             	mov    %rdx,%rsi
    2094:	48 89 c7             	mov    %rax,%rdi
    2097:	e8 4c 05 00 00       	callq  25e8 <_ZNSt12_Vector_baseISt4pairIiiESaIS1_EE11_M_allocateEm>
    209c:	48 89 45 c0          	mov    %rax,-0x40(%rbp)
    20a0:	48 8b 45 c0          	mov    -0x40(%rbp),%rax
    20a4:	48 89 45 e8          	mov    %rax,-0x18(%rbp)
    20a8:	48 8b 45 98          	mov    -0x68(%rbp),%rax
    20ac:	48 89 c7             	mov    %rax,%rdi
    20af:	e8 05 ff ff ff       	callq  1fb9 <_ZSt7forwardISt4pairIiiEEOT_RNSt16remove_referenceIS2_E4typeE>
    20b4:	48 89 c2             	mov    %rax,%rdx
    20b7:	48 8b 45 c8          	mov    -0x38(%rbp),%rax
    20bb:	48 8d 0c c5 00 00 00 	lea    0x0(,%rax,8),%rcx
    20c2:	00 
    20c3:	48 8b 45 c0          	mov    -0x40(%rbp),%rax
    20c7:	48 01 c1             	add    %rax,%rcx
    20ca:	48 8b 45 a8          	mov    -0x58(%rbp),%rax
    20ce:	48 89 ce             	mov    %rcx,%rsi
    20d1:	48 89 c7             	mov    %rax,%rdi
    20d4:	e8 ee fe ff ff       	callq  1fc7 <_ZNSt16allocator_traitsISaISt4pairIiiEEE9constructIS1_JS1_EEEvRS2_PT_DpOT0_>
    20d9:	48 c7 45 e8 00 00 00 	movq   $0x0,-0x18(%rbp)
    20e0:	00 
    20e1:	e8 1a ff ff ff       	callq  2000 <_ZNSt6vectorISt4pairIiiESaIS1_EE15_S_use_relocateEv>
    20e6:	84 c0                	test   %al,%al
    20e8:	74 71                	je     215b <_ZNSt6vectorISt4pairIiiESaIS1_EE17_M_realloc_insertIJS1_EEEvN9__gnu_cxx17__normal_iteratorIPS1_S3_EEDpOT_+0x141>
    20ea:	48 8b 45 a8          	mov    -0x58(%rbp),%rax
    20ee:	48 89 c7             	mov    %rax,%rdi
    20f1:	e8 86 fb ff ff       	callq  1c7c <_ZNSt12_Vector_baseISt4pairIiiESaIS1_EE19_M_get_Tp_allocatorEv>
    20f6:	48 89 c3             	mov    %rax,%rbx
    20f9:	48 8d 45 a0          	lea    -0x60(%rbp),%rax
    20fd:	48 89 c7             	mov    %rax,%rdi
    2100:	e8 49 05 00 00       	callq  264e <_ZNK9__gnu_cxx17__normal_iteratorIPSt4pairIiiESt6vectorIS2_SaIS2_EEE4baseEv>
    2105:	48 8b 30             	mov    (%rax),%rsi
    2108:	48 8b 55 c0          	mov    -0x40(%rbp),%rdx
    210c:	48 8b 45 d8          	mov    -0x28(%rbp),%rax
    2110:	48 89 d9             	mov    %rbx,%rcx
    2113:	48 89 c7             	mov    %rax,%rdi
    2116:	e8 00 05 00 00       	callq  261b <_ZNSt6vectorISt4pairIiiESaIS1_EE11_S_relocateEPS1_S4_S4_RS2_>
    211b:	48 89 45 e8          	mov    %rax,-0x18(%rbp)
    211f:	48 83 45 e8 08       	addq   $0x8,-0x18(%rbp)
    2124:	48 8b 45 a8          	mov    -0x58(%rbp),%rax
    2128:	48 89 c7             	mov    %rax,%rdi
    212b:	e8 4c fb ff ff       	callq  1c7c <_ZNSt12_Vector_baseISt4pairIiiESaIS1_EE19_M_get_Tp_allocatorEv>
    2130:	48 89 c3             	mov    %rax,%rbx
    2133:	48 8d 45 a0          	lea    -0x60(%rbp),%rax
    2137:	48 89 c7             	mov    %rax,%rdi
    213a:	e8 0f 05 00 00       	callq  264e <_ZNK9__gnu_cxx17__normal_iteratorIPSt4pairIiiESt6vectorIS2_SaIS2_EEE4baseEv>
    213f:	48 8b 00             	mov    (%rax),%rax
    2142:	48 8b 55 e8          	mov    -0x18(%rbp),%rdx
    2146:	48 8b 75 d0          	mov    -0x30(%rbp),%rsi
    214a:	48 89 d9             	mov    %rbx,%rcx
    214d:	48 89 c7             	mov    %rax,%rdi
    2150:	e8 c6 04 00 00       	callq  261b <_ZNSt6vectorISt4pairIiiESaIS1_EE11_S_relocateEPS1_S4_S4_RS2_>
    2155:	48 89 45 e8          	mov    %rax,-0x18(%rbp)
    2159:	eb 6f                	jmp    21ca <_ZNSt6vectorISt4pairIiiESaIS1_EE17_M_realloc_insertIJS1_EEEvN9__gnu_cxx17__normal_iteratorIPS1_S3_EEDpOT_+0x1b0>
    215b:	48 8b 45 a8          	mov    -0x58(%rbp),%rax
    215f:	48 89 c7             	mov    %rax,%rdi
    2162:	e8 15 fb ff ff       	callq  1c7c <_ZNSt12_Vector_baseISt4pairIiiESaIS1_EE19_M_get_Tp_allocatorEv>
    2167:	48 89 c3             	mov    %rax,%rbx
    216a:	48 8d 45 a0          	lea    -0x60(%rbp),%rax
    216e:	48 89 c7             	mov    %rax,%rdi
    2171:	e8 d8 04 00 00       	callq  264e <_ZNK9__gnu_cxx17__normal_iteratorIPSt4pairIiiESt6vectorIS2_SaIS2_EEE4baseEv>
    2176:	48 8b 30             	mov    (%rax),%rsi
    2179:	48 8b 55 c0          	mov    -0x40(%rbp),%rdx
    217d:	48 8b 45 d8          	mov    -0x28(%rbp),%rax
    2181:	48 89 d9             	mov    %rbx,%rcx
    2184:	48 89 c7             	mov    %rax,%rdi
    2187:	e8 d0 04 00 00       	callq  265c <_ZSt34__uninitialized_move_if_noexcept_aIPSt4pairIiiES2_SaIS1_EET0_T_S5_S4_RT1_>
    218c:	48 89 45 e8          	mov    %rax,-0x18(%rbp)
    2190:	48 83 45 e8 08       	addq   $0x8,-0x18(%rbp)
    2195:	48 8b 45 a8          	mov    -0x58(%rbp),%rax
    2199:	48 89 c7             	mov    %rax,%rdi
    219c:	e8 db fa ff ff       	callq  1c7c <_ZNSt12_Vector_baseISt4pairIiiESaIS1_EE19_M_get_Tp_allocatorEv>
    21a1:	48 89 c3             	mov    %rax,%rbx
    21a4:	48 8d 45 a0          	lea    -0x60(%rbp),%rax
    21a8:	48 89 c7             	mov    %rax,%rdi
    21ab:	e8 9e 04 00 00       	callq  264e <_ZNK9__gnu_cxx17__normal_iteratorIPSt4pairIiiESt6vectorIS2_SaIS2_EEE4baseEv>
    21b0:	48 8b 00             	mov    (%rax),%rax
    21b3:	48 8b 55 e8          	mov    -0x18(%rbp),%rdx
    21b7:	48 8b 75 d0          	mov    -0x30(%rbp),%rsi
    21bb:	48 89 d9             	mov    %rbx,%rcx
    21be:	48 89 c7             	mov    %rax,%rdi
    21c1:	e8 96 04 00 00       	callq  265c <_ZSt34__uninitialized_move_if_noexcept_aIPSt4pairIiiES2_SaIS1_EET0_T_S5_S4_RT1_>
    21c6:	48 89 45 e8          	mov    %rax,-0x18(%rbp)
    21ca:	e8 31 fe ff ff       	callq  2000 <_ZNSt6vectorISt4pairIiiESaIS1_EE15_S_use_relocateEv>
    21cf:	83 f0 01             	xor    $0x1,%eax
    21d2:	84 c0                	test   %al,%al
    21d4:	74 22                	je     21f8 <_ZNSt6vectorISt4pairIiiESaIS1_EE17_M_realloc_insertIJS1_EEEvN9__gnu_cxx17__normal_iteratorIPS1_S3_EEDpOT_+0x1de>
    21d6:	48 8b 45 a8          	mov    -0x58(%rbp),%rax
    21da:	48 89 c7             	mov    %rax,%rdi
    21dd:	e8 9a fa ff ff       	callq  1c7c <_ZNSt12_Vector_baseISt4pairIiiESaIS1_EE19_M_get_Tp_allocatorEv>
    21e2:	48 89 c2             	mov    %rax,%rdx
    21e5:	48 8b 4d d0          	mov    -0x30(%rbp),%rcx
    21e9:	48 8b 45 d8          	mov    -0x28(%rbp),%rax
    21ed:	48 89 ce             	mov    %rcx,%rsi
    21f0:	48 89 c7             	mov    %rax,%rdi
    21f3:	e8 92 fa ff ff       	callq  1c8a <_ZSt8_DestroyIPSt4pairIiiES1_EvT_S3_RSaIT0_E>
    21f8:	48 8b 45 a8          	mov    -0x58(%rbp),%rax
    21fc:	48 8b 55 a8          	mov    -0x58(%rbp),%rdx
    2200:	48 8b 52 10          	mov    0x10(%rdx),%rdx
    2204:	48 2b 55 d8          	sub    -0x28(%rbp),%rdx
    2208:	48 c1 fa 03          	sar    $0x3,%rdx
    220c:	48 8b 4d d8          	mov    -0x28(%rbp),%rcx
    2210:	48 89 ce             	mov    %rcx,%rsi
    2213:	48 89 c7             	mov    %rax,%rdi
    2216:	e8 2b fa ff ff       	callq  1c46 <_ZNSt12_Vector_baseISt4pairIiiESaIS1_EE13_M_deallocateEPS1_m>
    221b:	48 8b 45 a8          	mov    -0x58(%rbp),%rax
    221f:	48 8b 55 c0          	mov    -0x40(%rbp),%rdx
    2223:	48 89 10             	mov    %rdx,(%rax)
    2226:	48 8b 45 a8          	mov    -0x58(%rbp),%rax
    222a:	48 8b 55 e8          	mov    -0x18(%rbp),%rdx
    222e:	48 89 50 08          	mov    %rdx,0x8(%rax)
    2232:	48 8b 45 e0          	mov    -0x20(%rbp),%rax
    2236:	48 8d 14 c5 00 00 00 	lea    0x0(,%rax,8),%rdx
    223d:	00 
    223e:	48 8b 45 c0          	mov    -0x40(%rbp),%rax
    2242:	48 01 c2             	add    %rax,%rdx
    2245:	48 8b 45 a8          	mov    -0x58(%rbp),%rax
    2249:	48 89 50 10          	mov    %rdx,0x10(%rax)
    224d:	e9 84 00 00 00       	jmpq   22d6 <_ZNSt6vectorISt4pairIiiESaIS1_EE17_M_realloc_insertIJS1_EEEvN9__gnu_cxx17__normal_iteratorIPS1_S3_EEDpOT_+0x2bc>
    2252:	48 89 c7             	mov    %rax,%rdi
    2255:	e8 e6 ed ff ff       	callq  1040 <__cxa_begin_catch@plt>
    225a:	48 83 7d e8 00       	cmpq   $0x0,-0x18(%rbp)
    225f:	75 24                	jne    2285 <_ZNSt6vectorISt4pairIiiESaIS1_EE17_M_realloc_insertIJS1_EEEvN9__gnu_cxx17__normal_iteratorIPS1_S3_EEDpOT_+0x26b>
    2261:	48 8b 45 c8          	mov    -0x38(%rbp),%rax
    2265:	48 8d 14 c5 00 00 00 	lea    0x0(,%rax,8),%rdx
    226c:	00 
    226d:	48 8b 45 c0          	mov    -0x40(%rbp),%rax
    2271:	48 01 c2             	add    %rax,%rdx
    2274:	48 8b 45 a8          	mov    -0x58(%rbp),%rax
    2278:	48 89 d6             	mov    %rdx,%rsi
    227b:	48 89 c7             	mov    %rax,%rdi
    227e:	e8 2d 04 00 00       	callq  26b0 <_ZNSt16allocator_traitsISaISt4pairIiiEEE7destroyIS1_EEvRS2_PT_>
    2283:	eb 22                	jmp    22a7 <_ZNSt6vectorISt4pairIiiESaIS1_EE17_M_realloc_insertIJS1_EEEvN9__gnu_cxx17__normal_iteratorIPS1_S3_EEDpOT_+0x28d>
    2285:	48 8b 45 a8          	mov    -0x58(%rbp),%rax
    2289:	48 89 c7             	mov    %rax,%rdi
    228c:	e8 eb f9 ff ff       	callq  1c7c <_ZNSt12_Vector_baseISt4pairIiiESaIS1_EE19_M_get_Tp_allocatorEv>
    2291:	48 89 c2             	mov    %rax,%rdx
    2294:	48 8b 4d e8          	mov    -0x18(%rbp),%rcx
    2298:	48 8b 45 c0          	mov    -0x40(%rbp),%rax
    229c:	48 89 ce             	mov    %rcx,%rsi
    229f:	48 89 c7             	mov    %rax,%rdi
    22a2:	e8 e3 f9 ff ff       	callq  1c8a <_ZSt8_DestroyIPSt4pairIiiES1_EvT_S3_RSaIT0_E>
    22a7:	48 8b 45 a8          	mov    -0x58(%rbp),%rax
    22ab:	48 8b 55 e0          	mov    -0x20(%rbp),%rdx
    22af:	48 8b 4d c0          	mov    -0x40(%rbp),%rcx
    22b3:	48 89 ce             	mov    %rcx,%rsi
    22b6:	48 89 c7             	mov    %rax,%rdi
    22b9:	e8 88 f9 ff ff       	callq  1c46 <_ZNSt12_Vector_baseISt4pairIiiESaIS1_EE13_M_deallocateEPS1_m>
    22be:	e8 3d ee ff ff       	callq  1100 <__cxa_rethrow@plt>
    22c3:	48 89 c3             	mov    %rax,%rbx
    22c6:	e8 55 ee ff ff       	callq  1120 <__cxa_end_catch@plt>
    22cb:	48 89 d8             	mov    %rbx,%rax
    22ce:	48 89 c7             	mov    %rax,%rdi
    22d1:	e8 5a ee ff ff       	callq  1130 <_Unwind_Resume@plt>
    22d6:	48 83 c4 68          	add    $0x68,%rsp
    22da:	5b                   	pop    %rbx
    22db:	5d                   	pop    %rbp
    22dc:	c3                   	retq   

00000000000022dd <_ZN9__gnu_cxxneIPSt4pairIiiESt6vectorIS2_SaIS2_EEEEbRKNS_17__normal_iteratorIT_T0_EESC_>:
    22dd:	55                   	push   %rbp
    22de:	48 89 e5             	mov    %rsp,%rbp
    22e1:	53                   	push   %rbx
    22e2:	48 83 ec 18          	sub    $0x18,%rsp
    22e6:	48 89 7d e8          	mov    %rdi,-0x18(%rbp)
    22ea:	48 89 75 e0          	mov    %rsi,-0x20(%rbp)
    22ee:	48 8b 45 e8          	mov    -0x18(%rbp),%rax
    22f2:	48 89 c7             	mov    %rax,%rdi
    22f5:	e8 54 03 00 00       	callq  264e <_ZNK9__gnu_cxx17__normal_iteratorIPSt4pairIiiESt6vectorIS2_SaIS2_EEE4baseEv>
    22fa:	48 8b 18             	mov    (%rax),%rbx
    22fd:	48 8b 45 e0          	mov    -0x20(%rbp),%rax
    2301:	48 89 c7             	mov    %rax,%rdi
    2304:	e8 45 03 00 00       	callq  264e <_ZNK9__gnu_cxx17__normal_iteratorIPSt4pairIiiESt6vectorIS2_SaIS2_EEE4baseEv>
    2309:	48 8b 00             	mov    (%rax),%rax
    230c:	48 39 c3             	cmp    %rax,%rbx
    230f:	0f 95 c0             	setne  %al
    2312:	48 83 c4 18          	add    $0x18,%rsp
    2316:	5b                   	pop    %rbx
    2317:	5d                   	pop    %rbp
    2318:	c3                   	retq   

0000000000002319 <_ZN9__gnu_cxxmiIPSt4pairIiiESt6vectorIS2_SaIS2_EEEENS_17__normal_iteratorIT_T0_E15difference_typeERKSA_SD_>:
    2319:	55                   	push   %rbp
    231a:	48 89 e5             	mov    %rsp,%rbp
    231d:	53                   	push   %rbx
    231e:	48 83 ec 18          	sub    $0x18,%rsp
    2322:	48 89 7d e8          	mov    %rdi,-0x18(%rbp)
    2326:	48 89 75 e0          	mov    %rsi,-0x20(%rbp)
    232a:	48 8b 45 e8          	mov    -0x18(%rbp),%rax
    232e:	48 89 c7             	mov    %rax,%rdi
    2331:	e8 18 03 00 00       	callq  264e <_ZNK9__gnu_cxx17__normal_iteratorIPSt4pairIiiESt6vectorIS2_SaIS2_EEE4baseEv>
    2336:	48 8b 18             	mov    (%rax),%rbx
    2339:	48 8b 45 e0          	mov    -0x20(%rbp),%rax
    233d:	48 89 c7             	mov    %rax,%rdi
    2340:	e8 09 03 00 00       	callq  264e <_ZNK9__gnu_cxx17__normal_iteratorIPSt4pairIiiESt6vectorIS2_SaIS2_EEE4baseEv>
    2345:	48 8b 00             	mov    (%rax),%rax
    2348:	48 29 c3             	sub    %rax,%rbx
    234b:	48 89 d8             	mov    %rbx,%rax
    234e:	48 c1 f8 03          	sar    $0x3,%rax
    2352:	48 83 c4 18          	add    $0x18,%rsp
    2356:	5b                   	pop    %rbx
    2357:	5d                   	pop    %rbp
    2358:	c3                   	retq   

0000000000002359 <_ZSt16__introsort_loopIN9__gnu_cxx17__normal_iteratorIPSt4pairIiiESt6vectorIS3_SaIS3_EEEElNS0_5__ops15_Iter_less_iterEEvT_SB_T0_T1_>:
    2359:	55                   	push   %rbp
    235a:	48 89 e5             	mov    %rsp,%rbp
    235d:	48 83 ec 30          	sub    $0x30,%rsp
    2361:	48 89 7d e8          	mov    %rdi,-0x18(%rbp)
    2365:	48 89 75 e0          	mov    %rsi,-0x20(%rbp)
    2369:	48 89 55 d8          	mov    %rdx,-0x28(%rbp)
    236d:	48 8d 55 e8          	lea    -0x18(%rbp),%rdx
    2371:	48 8d 45 e0          	lea    -0x20(%rbp),%rax
    2375:	48 89 d6             	mov    %rdx,%rsi
    2378:	48 89 c7             	mov    %rax,%rdi
    237b:	e8 99 ff ff ff       	callq  2319 <_ZN9__gnu_cxxmiIPSt4pairIiiESt6vectorIS2_SaIS2_EEEENS_17__normal_iteratorIT_T0_E15difference_typeERKSA_SD_>
    2380:	48 83 f8 10          	cmp    $0x10,%rax
    2384:	0f 9f c0             	setg   %al
    2387:	84 c0                	test   %al,%al
    2389:	74 5d                	je     23e8 <_ZSt16__introsort_loopIN9__gnu_cxx17__normal_iteratorIPSt4pairIiiESt6vectorIS3_SaIS3_EEEElNS0_5__ops15_Iter_less_iterEEvT_SB_T0_T1_+0x8f>
    238b:	48 83 7d d8 00       	cmpq   $0x0,-0x28(%rbp)
    2390:	75 19                	jne    23ab <_ZSt16__introsort_loopIN9__gnu_cxx17__normal_iteratorIPSt4pairIiiESt6vectorIS3_SaIS3_EEEElNS0_5__ops15_Iter_less_iterEEvT_SB_T0_T1_+0x52>
    2392:	48 8b 55 e0          	mov    -0x20(%rbp),%rdx
    2396:	48 8b 4d e0          	mov    -0x20(%rbp),%rcx
    239a:	48 8b 45 e8          	mov    -0x18(%rbp),%rax
    239e:	48 89 ce             	mov    %rcx,%rsi
    23a1:	48 89 c7             	mov    %rax,%rdi
    23a4:	e8 2d 03 00 00       	callq  26d6 <_ZSt14__partial_sortIN9__gnu_cxx17__normal_iteratorIPSt4pairIiiESt6vectorIS3_SaIS3_EEEENS0_5__ops15_Iter_less_iterEEvT_SB_SB_T0_>
    23a9:	eb 3d                	jmp    23e8 <_ZSt16__introsort_loopIN9__gnu_cxx17__normal_iteratorIPSt4pairIiiESt6vectorIS3_SaIS3_EEEElNS0_5__ops15_Iter_less_iterEEvT_SB_T0_T1_+0x8f>
    23ab:	48 83 6d d8 01       	subq   $0x1,-0x28(%rbp)
    23b0:	48 8b 55 e0          	mov    -0x20(%rbp),%rdx
    23b4:	48 8b 45 e8          	mov    -0x18(%rbp),%rax
    23b8:	48 89 d6             	mov    %rdx,%rsi
    23bb:	48 89 c7             	mov    %rax,%rdi
    23be:	e8 58 03 00 00       	callq  271b <_ZSt27__unguarded_partition_pivotIN9__gnu_cxx17__normal_iteratorIPSt4pairIiiESt6vectorIS3_SaIS3_EEEENS0_5__ops15_Iter_less_iterEET_SB_SB_T0_>
    23c3:	48 89 45 f8          	mov    %rax,-0x8(%rbp)
    23c7:	48 8b 55 d8          	mov    -0x28(%rbp),%rdx
    23cb:	48 8b 4d e0          	mov    -0x20(%rbp),%rcx
    23cf:	48 8b 45 f8          	mov    -0x8(%rbp),%rax
    23d3:	48 89 ce             	mov    %rcx,%rsi
    23d6:	48 89 c7             	mov    %rax,%rdi
    23d9:	e8 7b ff ff ff       	callq  2359 <_ZSt16__introsort_loopIN9__gnu_cxx17__normal_iteratorIPSt4pairIiiESt6vectorIS3_SaIS3_EEEElNS0_5__ops15_Iter_less_iterEEvT_SB_T0_T1_>
    23de:	48 8b 45 f8          	mov    -0x8(%rbp),%rax
    23e2:	48 89 45 e0          	mov    %rax,-0x20(%rbp)
    23e6:	eb 85                	jmp    236d <_ZSt16__introsort_loopIN9__gnu_cxx17__normal_iteratorIPSt4pairIiiESt6vectorIS3_SaIS3_EEEElNS0_5__ops15_Iter_less_iterEEvT_SB_T0_T1_+0x14>
    23e8:	c9                   	leaveq 
    23e9:	c3                   	retq   

00000000000023ea <_ZSt22__final_insertion_sortIN9__gnu_cxx17__normal_iteratorIPSt4pairIiiESt6vectorIS3_SaIS3_EEEENS0_5__ops15_Iter_less_iterEEvT_SB_T0_>:
    23ea:	55                   	push   %rbp
    23eb:	48 89 e5             	mov    %rsp,%rbp
    23ee:	48 83 ec 20          	sub    $0x20,%rsp
    23f2:	48 89 7d f8          	mov    %rdi,-0x8(%rbp)
    23f6:	48 89 75 f0          	mov    %rsi,-0x10(%rbp)
    23fa:	48 8d 55 f8          	lea    -0x8(%rbp),%rdx
    23fe:	48 8d 45 f0          	lea    -0x10(%rbp),%rax
    2402:	48 89 d6             	mov    %rdx,%rsi
    2405:	48 89 c7             	mov    %rax,%rdi
    2408:	e8 0c ff ff ff       	callq  2319 <_ZN9__gnu_cxxmiIPSt4pairIiiESt6vectorIS2_SaIS2_EEEENS_17__normal_iteratorIT_T0_E15difference_typeERKSA_SD_>
    240d:	48 83 f8 10          	cmp    $0x10,%rax
    2411:	0f 9f c0             	setg   %al
    2414:	84 c0                	test   %al,%al
    2416:	74 48                	je     2460 <_ZSt22__final_insertion_sortIN9__gnu_cxx17__normal_iteratorIPSt4pairIiiESt6vectorIS3_SaIS3_EEEENS0_5__ops15_Iter_less_iterEEvT_SB_T0_+0x76>
    2418:	48 8d 45 f8          	lea    -0x8(%rbp),%rax
    241c:	be 10 00 00 00       	mov    $0x10,%esi
    2421:	48 89 c7             	mov    %rax,%rdi
    2424:	e8 a3 03 00 00       	callq  27cc <_ZNK9__gnu_cxx17__normal_iteratorIPSt4pairIiiESt6vectorIS2_SaIS2_EEEplEl>
    2429:	48 89 c2             	mov    %rax,%rdx
    242c:	48 8b 45 f8          	mov    -0x8(%rbp),%rax
    2430:	48 89 d6             	mov    %rdx,%rsi
    2433:	48 89 c7             	mov    %rax,%rdi
    2436:	e8 d0 03 00 00       	callq  280b <_ZSt16__insertion_sortIN9__gnu_cxx17__normal_iteratorIPSt4pairIiiESt6vectorIS3_SaIS3_EEEENS0_5__ops15_Iter_less_iterEEvT_SB_T0_>
    243b:	48 8d 45 f8          	lea    -0x8(%rbp),%rax
    243f:	be 10 00 00 00       	mov    $0x10,%esi
    2444:	48 89 c7             	mov    %rax,%rdi
    2447:	e8 80 03 00 00       	callq  27cc <_ZNK9__gnu_cxx17__normal_iteratorIPSt4pairIiiESt6vectorIS2_SaIS2_EEEplEl>
    244c:	48 89 c2             	mov    %rax,%rdx
    244f:	48 8b 45 f0          	mov    -0x10(%rbp),%rax
    2453:	48 89 c6             	mov    %rax,%rsi
    2456:	48 89 d7             	mov    %rdx,%rdi
    2459:	e8 b8 04 00 00       	callq  2916 <_ZSt26__unguarded_insertion_sortIN9__gnu_cxx17__normal_iteratorIPSt4pairIiiESt6vectorIS3_SaIS3_EEEENS0_5__ops15_Iter_less_iterEEvT_SB_T0_>
    245e:	eb 13                	jmp    2473 <_ZSt22__final_insertion_sortIN9__gnu_cxx17__normal_iteratorIPSt4pairIiiESt6vectorIS3_SaIS3_EEEENS0_5__ops15_Iter_less_iterEEvT_SB_T0_+0x89>
    2460:	48 8b 55 f0          	mov    -0x10(%rbp),%rdx
    2464:	48 8b 45 f8          	mov    -0x8(%rbp),%rax
    2468:	48 89 d6             	mov    %rdx,%rsi
    246b:	48 89 c7             	mov    %rax,%rdi
    246e:	e8 98 03 00 00       	callq  280b <_ZSt16__insertion_sortIN9__gnu_cxx17__normal_iteratorIPSt4pairIiiESt6vectorIS3_SaIS3_EEEENS0_5__ops15_Iter_less_iterEEvT_SB_T0_>
    2473:	90                   	nop
    2474:	c9                   	leaveq 
    2475:	c3                   	retq   

0000000000002476 <_ZN9__gnu_cxx13new_allocatorISt4pairIiiEE10deallocateEPS2_m>:
    2476:	55                   	push   %rbp
    2477:	48 89 e5             	mov    %rsp,%rbp
    247a:	48 83 ec 20          	sub    $0x20,%rsp
    247e:	48 89 7d f8          	mov    %rdi,-0x8(%rbp)
    2482:	48 89 75 f0          	mov    %rsi,-0x10(%rbp)
    2486:	48 89 55 e8          	mov    %rdx,-0x18(%rbp)
    248a:	48 8b 45 f0          	mov    -0x10(%rbp),%rax
    248e:	48 89 c7             	mov    %rax,%rdi
    2491:	e8 1a ec ff ff       	callq  10b0 <_ZdlPv@plt>
    2496:	90                   	nop
    2497:	c9                   	leaveq 
    2498:	c3                   	retq   

0000000000002499 <_ZNSt12_Destroy_auxILb1EE9__destroyIPSt4pairIiiEEEvT_S5_>:
    2499:	55                   	push   %rbp
    249a:	48 89 e5             	mov    %rsp,%rbp
    249d:	48 89 7d f8          	mov    %rdi,-0x8(%rbp)
    24a1:	48 89 75 f0          	mov    %rsi,-0x10(%rbp)
    24a5:	90                   	nop
    24a6:	5d                   	pop    %rbp
    24a7:	c3                   	retq   

00000000000024a8 <_ZN9__gnu_cxx13new_allocatorIiE10deallocateEPim>:
    24a8:	55                   	push   %rbp
    24a9:	48 89 e5             	mov    %rsp,%rbp
    24ac:	48 83 ec 20          	sub    $0x20,%rsp
    24b0:	48 89 7d f8          	mov    %rdi,-0x8(%rbp)
    24b4:	48 89 75 f0          	mov    %rsi,-0x10(%rbp)
    24b8:	48 89 55 e8          	mov    %rdx,-0x18(%rbp)
    24bc:	48 8b 45 f0          	mov    -0x10(%rbp),%rax
    24c0:	48 89 c7             	mov    %rax,%rdi
    24c3:	e8 e8 eb ff ff       	callq  10b0 <_ZdlPv@plt>
    24c8:	90                   	nop
    24c9:	c9                   	leaveq 
    24ca:	c3                   	retq   

00000000000024cb <_ZNSt12_Destroy_auxILb1EE9__destroyIPiEEvT_S3_>:
    24cb:	55                   	push   %rbp
    24cc:	48 89 e5             	mov    %rsp,%rbp
    24cf:	48 89 7d f8          	mov    %rdi,-0x8(%rbp)
    24d3:	48 89 75 f0          	mov    %rsi,-0x10(%rbp)
    24d7:	90                   	nop
    24d8:	5d                   	pop    %rbp
    24d9:	c3                   	retq   

00000000000024da <_ZN9__gnu_cxx13new_allocatorISt4pairIiiEE9constructIS2_JS2_EEEvPT_DpOT0_>:
    24da:	55                   	push   %rbp
    24db:	48 89 e5             	mov    %rsp,%rbp
    24de:	53                   	push   %rbx
    24df:	48 83 ec 28          	sub    $0x28,%rsp
    24e3:	48 89 7d e8          	mov    %rdi,-0x18(%rbp)
    24e7:	48 89 75 e0          	mov    %rsi,-0x20(%rbp)
    24eb:	48 89 55 d8          	mov    %rdx,-0x28(%rbp)
    24ef:	48 8b 45 d8          	mov    -0x28(%rbp),%rax
    24f3:	48 89 c7             	mov    %rax,%rdi
    24f6:	e8 be fa ff ff       	callq  1fb9 <_ZSt7forwardISt4pairIiiEEOT_RNSt16remove_referenceIS2_E4typeE>
    24fb:	48 89 c3             	mov    %rax,%rbx
    24fe:	48 8b 45 e0          	mov    -0x20(%rbp),%rax
    2502:	48 89 c6             	mov    %rax,%rsi
    2505:	bf 08 00 00 00       	mov    $0x8,%edi
    250a:	e8 53 f2 ff ff       	callq  1762 <_ZnwmPv>
    250f:	48 8b 13             	mov    (%rbx),%rdx
    2512:	48 89 10             	mov    %rdx,(%rax)
    2515:	90                   	nop
    2516:	48 83 c4 28          	add    $0x28,%rsp
    251a:	5b                   	pop    %rbx
    251b:	5d                   	pop    %rbp
    251c:	c3                   	retq   
    251d:	90                   	nop

000000000000251e <_ZNKSt6vectorISt4pairIiiESaIS1_EE12_M_check_lenEmPKc>:
    251e:	55                   	push   %rbp
    251f:	48 89 e5             	mov    %rsp,%rbp
    2522:	53                   	push   %rbx
    2523:	48 83 ec 38          	sub    $0x38,%rsp
    2527:	48 89 7d d8          	mov    %rdi,-0x28(%rbp)
    252b:	48 89 75 d0          	mov    %rsi,-0x30(%rbp)
    252f:	48 89 55 c8          	mov    %rdx,-0x38(%rbp)
    2533:	48 8b 45 d8          	mov    -0x28(%rbp),%rax
    2537:	48 89 c7             	mov    %rax,%rdi
    253a:	e8 29 04 00 00       	callq  2968 <_ZNKSt6vectorISt4pairIiiESaIS1_EE8max_sizeEv>
    253f:	48 89 c3             	mov    %rax,%rbx
    2542:	48 8b 45 d8          	mov    -0x28(%rbp),%rax
    2546:	48 89 c7             	mov    %rax,%rdi
    2549:	e8 0e f6 ff ff       	callq  1b5c <_ZNKSt6vectorISt4pairIiiESaIS1_EE4sizeEv>
    254e:	48 29 c3             	sub    %rax,%rbx
    2551:	48 89 da             	mov    %rbx,%rdx
    2554:	48 8b 45 d0          	mov    -0x30(%rbp),%rax
    2558:	48 39 c2             	cmp    %rax,%rdx
    255b:	0f 92 c0             	setb   %al
    255e:	84 c0                	test   %al,%al
    2560:	74 0c                	je     256e <_ZNKSt6vectorISt4pairIiiESaIS1_EE12_M_check_lenEmPKc+0x50>
    2562:	48 8b 45 c8          	mov    -0x38(%rbp),%rax
    2566:	48 89 c7             	mov    %rax,%rdi
    2569:	e8 f2 ea ff ff       	callq  1060 <_ZSt20__throw_length_errorPKc@plt>
    256e:	48 8b 45 d8          	mov    -0x28(%rbp),%rax
    2572:	48 89 c7             	mov    %rax,%rdi
    2575:	e8 e2 f5 ff ff       	callq  1b5c <_ZNKSt6vectorISt4pairIiiESaIS1_EE4sizeEv>
    257a:	48 89 c3             	mov    %rax,%rbx
    257d:	48 8b 45 d8          	mov    -0x28(%rbp),%rax
    2581:	48 89 c7             	mov    %rax,%rdi
    2584:	e8 d3 f5 ff ff       	callq  1b5c <_ZNKSt6vectorISt4pairIiiESaIS1_EE4sizeEv>
    2589:	48 89 45 e0          	mov    %rax,-0x20(%rbp)
    258d:	48 8d 55 d0          	lea    -0x30(%rbp),%rdx
    2591:	48 8d 45 e0          	lea    -0x20(%rbp),%rax
    2595:	48 89 d6             	mov    %rdx,%rsi
    2598:	48 89 c7             	mov    %rax,%rdi
    259b:	e8 df f2 ff ff       	callq  187f <_ZSt3maxImERKT_S2_S2_>
    25a0:	48 8b 00             	mov    (%rax),%rax
    25a3:	48 01 d8             	add    %rbx,%rax
    25a6:	48 89 45 e8          	mov    %rax,-0x18(%rbp)
    25aa:	48 8b 45 d8          	mov    -0x28(%rbp),%rax
    25ae:	48 89 c7             	mov    %rax,%rdi
    25b1:	e8 a6 f5 ff ff       	callq  1b5c <_ZNKSt6vectorISt4pairIiiESaIS1_EE4sizeEv>
    25b6:	48 39 45 e8          	cmp    %rax,-0x18(%rbp)
    25ba:	72 12                	jb     25ce <_ZNKSt6vectorISt4pairIiiESaIS1_EE12_M_check_lenEmPKc+0xb0>
    25bc:	48 8b 45 d8          	mov    -0x28(%rbp),%rax
    25c0:	48 89 c7             	mov    %rax,%rdi
    25c3:	e8 a0 03 00 00       	callq  2968 <_ZNKSt6vectorISt4pairIiiESaIS1_EE8max_sizeEv>
    25c8:	48 39 45 e8          	cmp    %rax,-0x18(%rbp)
    25cc:	76 0e                	jbe    25dc <_ZNKSt6vectorISt4pairIiiESaIS1_EE12_M_check_lenEmPKc+0xbe>
    25ce:	48 8b 45 d8          	mov    -0x28(%rbp),%rax
    25d2:	48 89 c7             	mov    %rax,%rdi
    25d5:	e8 8e 03 00 00       	callq  2968 <_ZNKSt6vectorISt4pairIiiESaIS1_EE8max_sizeEv>
    25da:	eb 04                	jmp    25e0 <_ZNKSt6vectorISt4pairIiiESaIS1_EE12_M_check_lenEmPKc+0xc2>
    25dc:	48 8b 45 e8          	mov    -0x18(%rbp),%rax
    25e0:	48 83 c4 38          	add    $0x38,%rsp
    25e4:	5b                   	pop    %rbx
    25e5:	5d                   	pop    %rbp
    25e6:	c3                   	retq   
    25e7:	90                   	nop

00000000000025e8 <_ZNSt12_Vector_baseISt4pairIiiESaIS1_EE11_M_allocateEm>:
    25e8:	55                   	push   %rbp
    25e9:	48 89 e5             	mov    %rsp,%rbp
    25ec:	48 83 ec 10          	sub    $0x10,%rsp
    25f0:	48 89 7d f8          	mov    %rdi,-0x8(%rbp)
    25f4:	48 89 75 f0          	mov    %rsi,-0x10(%rbp)
    25f8:	48 83 7d f0 00       	cmpq   $0x0,-0x10(%rbp)
    25fd:	74 15                	je     2614 <_ZNSt12_Vector_baseISt4pairIiiESaIS1_EE11_M_allocateEm+0x2c>
    25ff:	48 8b 45 f8          	mov    -0x8(%rbp),%rax
    2603:	48 8b 55 f0          	mov    -0x10(%rbp),%rdx
    2607:	48 89 d6             	mov    %rdx,%rsi
    260a:	48 89 c7             	mov    %rax,%rdi
    260d:	e8 78 03 00 00       	callq  298a <_ZNSt16allocator_traitsISaISt4pairIiiEEE8allocateERS2_m>
    2612:	eb 05                	jmp    2619 <_ZNSt12_Vector_baseISt4pairIiiESaIS1_EE11_M_allocateEm+0x31>
    2614:	b8 00 00 00 00       	mov    $0x0,%eax
    2619:	c9                   	leaveq 
    261a:	c3                   	retq   

000000000000261b <_ZNSt6vectorISt4pairIiiESaIS1_EE11_S_relocateEPS1_S4_S4_RS2_>:
    261b:	55                   	push   %rbp
    261c:	48 89 e5             	mov    %rsp,%rbp
    261f:	48 83 ec 30          	sub    $0x30,%rsp
    2623:	48 89 7d e8          	mov    %rdi,-0x18(%rbp)
    2627:	48 89 75 e0          	mov    %rsi,-0x20(%rbp)
    262b:	48 89 55 d8          	mov    %rdx,-0x28(%rbp)
    262f:	48 89 4d d0          	mov    %rcx,-0x30(%rbp)
    2633:	48 8b 4d d0          	mov    -0x30(%rbp),%rcx
    2637:	48 8b 55 d8          	mov    -0x28(%rbp),%rdx
    263b:	48 8b 75 e0          	mov    -0x20(%rbp),%rsi
    263f:	48 8b 45 e8          	mov    -0x18(%rbp),%rax
    2643:	48 89 c7             	mov    %rax,%rdi
    2646:	e8 69 03 00 00       	callq  29b4 <_ZNSt6vectorISt4pairIiiESaIS1_EE14_S_do_relocateEPS1_S4_S4_RS2_St17integral_constantIbLb1EE>
    264b:	c9                   	leaveq 
    264c:	c3                   	retq   
    264d:	90                   	nop

000000000000264e <_ZNK9__gnu_cxx17__normal_iteratorIPSt4pairIiiESt6vectorIS2_SaIS2_EEE4baseEv>:
    264e:	55                   	push   %rbp
    264f:	48 89 e5             	mov    %rsp,%rbp
    2652:	48 89 7d f8          	mov    %rdi,-0x8(%rbp)
    2656:	48 8b 45 f8          	mov    -0x8(%rbp),%rax
    265a:	5d                   	pop    %rbp
    265b:	c3                   	retq   

000000000000265c <_ZSt34__uninitialized_move_if_noexcept_aIPSt4pairIiiES2_SaIS1_EET0_T_S5_S4_RT1_>:
    265c:	55                   	push   %rbp
    265d:	48 89 e5             	mov    %rsp,%rbp
    2660:	53                   	push   %rbx
    2661:	48 83 ec 28          	sub    $0x28,%rsp
    2665:	48 89 7d e8          	mov    %rdi,-0x18(%rbp)
    2669:	48 89 75 e0          	mov    %rsi,-0x20(%rbp)
    266d:	48 89 55 d8          	mov    %rdx,-0x28(%rbp)
    2671:	48 89 4d d0          	mov    %rcx,-0x30(%rbp)
    2675:	48 8b 45 e0          	mov    -0x20(%rbp),%rax
    2679:	48 89 c7             	mov    %rax,%rdi
    267c:	e8 65 03 00 00       	callq  29e6 <_ZSt32__make_move_if_noexcept_iteratorISt4pairIiiESt13move_iteratorIPS1_EET0_PT_>
    2681:	48 89 c3             	mov    %rax,%rbx
    2684:	48 8b 45 e8          	mov    -0x18(%rbp),%rax
    2688:	48 89 c7             	mov    %rax,%rdi
    268b:	e8 56 03 00 00       	callq  29e6 <_ZSt32__make_move_if_noexcept_iteratorISt4pairIiiESt13move_iteratorIPS1_EET0_PT_>
    2690:	48 89 c7             	mov    %rax,%rdi
    2693:	48 8b 55 d0          	mov    -0x30(%rbp),%rdx
    2697:	48 8b 45 d8          	mov    -0x28(%rbp),%rax
    269b:	48 89 d1             	mov    %rdx,%rcx
    269e:	48 89 c2             	mov    %rax,%rdx
    26a1:	48 89 de             	mov    %rbx,%rsi
    26a4:	e8 62 03 00 00       	callq  2a0b <_ZSt22__uninitialized_copy_aISt13move_iteratorIPSt4pairIiiEES3_S2_ET0_T_S6_S5_RSaIT1_E>
    26a9:	48 83 c4 28          	add    $0x28,%rsp
    26ad:	5b                   	pop    %rbx
    26ae:	5d                   	pop    %rbp
    26af:	c3                   	retq   

00000000000026b0 <_ZNSt16allocator_traitsISaISt4pairIiiEEE7destroyIS1_EEvRS2_PT_>:
    26b0:	55                   	push   %rbp
    26b1:	48 89 e5             	mov    %rsp,%rbp
    26b4:	48 83 ec 10          	sub    $0x10,%rsp
    26b8:	48 89 7d f8          	mov    %rdi,-0x8(%rbp)
    26bc:	48 89 75 f0          	mov    %rsi,-0x10(%rbp)
    26c0:	48 8b 55 f0          	mov    -0x10(%rbp),%rdx
    26c4:	48 8b 45 f8          	mov    -0x8(%rbp),%rax
    26c8:	48 89 d6             	mov    %rdx,%rsi
    26cb:	48 89 c7             	mov    %rax,%rdi
    26ce:	e8 69 03 00 00       	callq  2a3c <_ZN9__gnu_cxx13new_allocatorISt4pairIiiEE7destroyIS2_EEvPT_>
    26d3:	90                   	nop
    26d4:	c9                   	leaveq 
    26d5:	c3                   	retq   

00000000000026d6 <_ZSt14__partial_sortIN9__gnu_cxx17__normal_iteratorIPSt4pairIiiESt6vectorIS3_SaIS3_EEEENS0_5__ops15_Iter_less_iterEEvT_SB_SB_T0_>:
    26d6:	55                   	push   %rbp
    26d7:	48 89 e5             	mov    %rsp,%rbp
    26da:	48 83 ec 20          	sub    $0x20,%rsp
    26de:	48 89 7d f8          	mov    %rdi,-0x8(%rbp)
    26e2:	48 89 75 f0          	mov    %rsi,-0x10(%rbp)
    26e6:	48 89 55 e8          	mov    %rdx,-0x18(%rbp)
    26ea:	48 8b 55 e8          	mov    -0x18(%rbp),%rdx
    26ee:	48 8b 4d f0          	mov    -0x10(%rbp),%rcx
    26f2:	48 8b 45 f8          	mov    -0x8(%rbp),%rax
    26f6:	48 89 ce             	mov    %rcx,%rsi
    26f9:	48 89 c7             	mov    %rax,%rdi
    26fc:	e8 4a 03 00 00       	callq  2a4b <_ZSt13__heap_selectIN9__gnu_cxx17__normal_iteratorIPSt4pairIiiESt6vectorIS3_SaIS3_EEEENS0_5__ops15_Iter_less_iterEEvT_SB_SB_T0_>
    2701:	48 8d 55 e7          	lea    -0x19(%rbp),%rdx
    2705:	48 8b 4d f0          	mov    -0x10(%rbp),%rcx
    2709:	48 8b 45 f8          	mov    -0x8(%rbp),%rax
    270d:	48 89 ce             	mov    %rcx,%rsi
    2710:	48 89 c7             	mov    %rax,%rdi
    2713:	e8 c1 03 00 00       	callq  2ad9 <_ZSt11__sort_heapIN9__gnu_cxx17__normal_iteratorIPSt4pairIiiESt6vectorIS3_SaIS3_EEEENS0_5__ops15_Iter_less_iterEEvT_SB_RT0_>
    2718:	90                   	nop
    2719:	c9                   	leaveq 
    271a:	c3                   	retq   

000000000000271b <_ZSt27__unguarded_partition_pivotIN9__gnu_cxx17__normal_iteratorIPSt4pairIiiESt6vectorIS3_SaIS3_EEEENS0_5__ops15_Iter_less_iterEET_SB_SB_T0_>:
    271b:	55                   	push   %rbp
    271c:	48 89 e5             	mov    %rsp,%rbp
    271f:	53                   	push   %rbx
    2720:	48 83 ec 38          	sub    $0x38,%rsp
    2724:	48 89 7d d8          	mov    %rdi,-0x28(%rbp)
    2728:	48 89 75 d0          	mov    %rsi,-0x30(%rbp)
    272c:	48 8d 55 d8          	lea    -0x28(%rbp),%rdx
    2730:	48 8d 45 d0          	lea    -0x30(%rbp),%rax
    2734:	48 89 d6             	mov    %rdx,%rsi
    2737:	48 89 c7             	mov    %rax,%rdi
    273a:	e8 da fb ff ff       	callq  2319 <_ZN9__gnu_cxxmiIPSt4pairIiiESt6vectorIS2_SaIS2_EEEENS_17__normal_iteratorIT_T0_E15difference_typeERKSA_SD_>
    273f:	48 89 c2             	mov    %rax,%rdx
    2742:	48 c1 ea 3f          	shr    $0x3f,%rdx
    2746:	48 01 d0             	add    %rdx,%rax
    2749:	48 d1 f8             	sar    %rax
    274c:	48 89 c2             	mov    %rax,%rdx
    274f:	48 8d 45 d8          	lea    -0x28(%rbp),%rax
    2753:	48 89 d6             	mov    %rdx,%rsi
    2756:	48 89 c7             	mov    %rax,%rdi
    2759:	e8 6e 00 00 00       	callq  27cc <_ZNK9__gnu_cxx17__normal_iteratorIPSt4pairIiiESt6vectorIS2_SaIS2_EEEplEl>
    275e:	48 89 45 e8          	mov    %rax,-0x18(%rbp)
    2762:	48 8d 45 d0          	lea    -0x30(%rbp),%rax
    2766:	be 01 00 00 00       	mov    $0x1,%esi
    276b:	48 89 c7             	mov    %rax,%rdi
    276e:	e8 c1 03 00 00       	callq  2b34 <_ZNK9__gnu_cxx17__normal_iteratorIPSt4pairIiiESt6vectorIS2_SaIS2_EEEmiEl>
    2773:	48 89 c3             	mov    %rax,%rbx
    2776:	48 8d 45 d8          	lea    -0x28(%rbp),%rax
    277a:	be 01 00 00 00       	mov    $0x1,%esi
    277f:	48 89 c7             	mov    %rax,%rdi
    2782:	e8 45 00 00 00       	callq  27cc <_ZNK9__gnu_cxx17__normal_iteratorIPSt4pairIiiESt6vectorIS2_SaIS2_EEEplEl>
    2787:	48 89 c6             	mov    %rax,%rsi
    278a:	48 8b 55 e8          	mov    -0x18(%rbp),%rdx
    278e:	48 8b 45 d8          	mov    -0x28(%rbp),%rax
    2792:	48 89 d9             	mov    %rbx,%rcx
    2795:	48 89 c7             	mov    %rax,%rdi
    2798:	e8 1b 04 00 00       	callq  2bb8 <_ZSt22__move_median_to_firstIN9__gnu_cxx17__normal_iteratorIPSt4pairIiiESt6vectorIS3_SaIS3_EEEENS0_5__ops15_Iter_less_iterEEvT_SB_SB_SB_T0_>
    279d:	48 8d 45 d8          	lea    -0x28(%rbp),%rax
    27a1:	be 01 00 00 00       	mov    $0x1,%esi
    27a6:	48 89 c7             	mov    %rax,%rdi
    27a9:	e8 1e 00 00 00       	callq  27cc <_ZNK9__gnu_cxx17__normal_iteratorIPSt4pairIiiESt6vectorIS2_SaIS2_EEEplEl>
    27ae:	48 89 c1             	mov    %rax,%rcx
    27b1:	48 8b 55 d8          	mov    -0x28(%rbp),%rdx
    27b5:	48 8b 45 d0          	mov    -0x30(%rbp),%rax
    27b9:	48 89 c6             	mov    %rax,%rsi
    27bc:	48 89 cf             	mov    %rcx,%rdi
    27bf:	e8 18 05 00 00       	callq  2cdc <_ZSt21__unguarded_partitionIN9__gnu_cxx17__normal_iteratorIPSt4pairIiiESt6vectorIS3_SaIS3_EEEENS0_5__ops15_Iter_less_iterEET_SB_SB_SB_T0_>
    27c4:	48 83 c4 38          	add    $0x38,%rsp
    27c8:	5b                   	pop    %rbx
    27c9:	5d                   	pop    %rbp
    27ca:	c3                   	retq   
    27cb:	90                   	nop

00000000000027cc <_ZNK9__gnu_cxx17__normal_iteratorIPSt4pairIiiESt6vectorIS2_SaIS2_EEEplEl>:
    27cc:	55                   	push   %rbp
    27cd:	48 89 e5             	mov    %rsp,%rbp
    27d0:	48 83 ec 20          	sub    $0x20,%rsp
    27d4:	48 89 7d e8          	mov    %rdi,-0x18(%rbp)
    27d8:	48 89 75 e0          	mov    %rsi,-0x20(%rbp)
    27dc:	48 8b 45 e8          	mov    -0x18(%rbp),%rax
    27e0:	48 8b 00             	mov    (%rax),%rax
    27e3:	48 8b 55 e0          	mov    -0x20(%rbp),%rdx
    27e7:	48 c1 e2 03          	shl    $0x3,%rdx
    27eb:	48 01 d0             	add    %rdx,%rax
    27ee:	48 89 45 f8          	mov    %rax,-0x8(%rbp)
    27f2:	48 8d 55 f8          	lea    -0x8(%rbp),%rdx
    27f6:	48 8d 45 f0          	lea    -0x10(%rbp),%rax
    27fa:	48 89 d6             	mov    %rdx,%rsi
    27fd:	48 89 c7             	mov    %rax,%rdi
    2800:	e8 69 f6 ff ff       	callq  1e6e <_ZN9__gnu_cxx17__normal_iteratorIPSt4pairIiiESt6vectorIS2_SaIS2_EEEC1ERKS3_>
    2805:	48 8b 45 f0          	mov    -0x10(%rbp),%rax
    2809:	c9                   	leaveq 
    280a:	c3                   	retq   

000000000000280b <_ZSt16__insertion_sortIN9__gnu_cxx17__normal_iteratorIPSt4pairIiiESt6vectorIS3_SaIS3_EEEENS0_5__ops15_Iter_less_iterEEvT_SB_T0_>:
    280b:	55                   	push   %rbp
    280c:	48 89 e5             	mov    %rsp,%rbp
    280f:	53                   	push   %rbx
    2810:	48 83 ec 48          	sub    $0x48,%rsp
    2814:	48 89 7d c8          	mov    %rdi,-0x38(%rbp)
    2818:	48 89 75 c0          	mov    %rsi,-0x40(%rbp)
    281c:	48 8d 55 c0          	lea    -0x40(%rbp),%rdx
    2820:	48 8d 45 c8          	lea    -0x38(%rbp),%rax
    2824:	48 89 d6             	mov    %rdx,%rsi
    2827:	48 89 c7             	mov    %rax,%rdi
    282a:	e8 65 05 00 00       	callq  2d94 <_ZN9__gnu_cxxeqIPSt4pairIiiESt6vectorIS2_SaIS2_EEEEbRKNS_17__normal_iteratorIT_T0_EESC_>
    282f:	84 c0                	test   %al,%al
    2831:	0f 85 d7 00 00 00    	jne    290e <_ZSt16__insertion_sortIN9__gnu_cxx17__normal_iteratorIPSt4pairIiiESt6vectorIS3_SaIS3_EEEENS0_5__ops15_Iter_less_iterEEvT_SB_T0_+0x103>
    2837:	48 8d 45 c8          	lea    -0x38(%rbp),%rax
    283b:	be 01 00 00 00       	mov    $0x1,%esi
    2840:	48 89 c7             	mov    %rax,%rdi
    2843:	e8 84 ff ff ff       	callq  27cc <_ZNK9__gnu_cxx17__normal_iteratorIPSt4pairIiiESt6vectorIS2_SaIS2_EEEplEl>
    2848:	48 89 45 e0          	mov    %rax,-0x20(%rbp)
    284c:	48 8d 55 c0          	lea    -0x40(%rbp),%rdx
    2850:	48 8d 45 e0          	lea    -0x20(%rbp),%rax
    2854:	48 89 d6             	mov    %rdx,%rsi
    2857:	48 89 c7             	mov    %rax,%rdi
    285a:	e8 7e fa ff ff       	callq  22dd <_ZN9__gnu_cxxneIPSt4pairIiiESt6vectorIS2_SaIS2_EEEEbRKNS_17__normal_iteratorIT_T0_EESC_>
    285f:	84 c0                	test   %al,%al
    2861:	0f 84 a8 00 00 00    	je     290f <_ZSt16__insertion_sortIN9__gnu_cxx17__normal_iteratorIPSt4pairIiiESt6vectorIS3_SaIS3_EEEENS0_5__ops15_Iter_less_iterEEvT_SB_T0_+0x104>
    2867:	48 8b 55 c8          	mov    -0x38(%rbp),%rdx
    286b:	48 8b 4d e0          	mov    -0x20(%rbp),%rcx
    286f:	48 8d 45 bf          	lea    -0x41(%rbp),%rax
    2873:	48 89 ce             	mov    %rcx,%rsi
    2876:	48 89 c7             	mov    %rax,%rdi
    2879:	e8 f8 02 00 00       	callq  2b76 <_ZNK9__gnu_cxx5__ops15_Iter_less_iterclINS_17__normal_iteratorIPSt4pairIiiESt6vectorIS5_SaIS5_EEEESA_EEbT_T0_>
    287e:	84 c0                	test   %al,%al
    2880:	74 6a                	je     28ec <_ZSt16__insertion_sortIN9__gnu_cxx17__normal_iteratorIPSt4pairIiiESt6vectorIS3_SaIS3_EEEENS0_5__ops15_Iter_less_iterEEvT_SB_T0_+0xe1>
    2882:	48 8d 45 e0          	lea    -0x20(%rbp),%rax
    2886:	48 89 c7             	mov    %rax,%rdi
    2889:	e8 62 05 00 00       	callq  2df0 <_ZNK9__gnu_cxx17__normal_iteratorIPSt4pairIiiESt6vectorIS2_SaIS2_EEEdeEv>
    288e:	48 89 c7             	mov    %rax,%rdi
    2891:	e8 30 f5 ff ff       	callq  1dc6 <_ZSt4moveIRSt4pairIiiEEONSt16remove_referenceIT_E4typeEOS4_>
    2896:	48 8b 00             	mov    (%rax),%rax
    2899:	48 89 45 d8          	mov    %rax,-0x28(%rbp)
    289d:	48 8d 45 e0          	lea    -0x20(%rbp),%rax
    28a1:	be 01 00 00 00       	mov    $0x1,%esi
    28a6:	48 89 c7             	mov    %rax,%rdi
    28a9:	e8 1e ff ff ff       	callq  27cc <_ZNK9__gnu_cxx17__normal_iteratorIPSt4pairIiiESt6vectorIS2_SaIS2_EEEplEl>
    28ae:	48 89 c2             	mov    %rax,%rdx
    28b1:	48 8b 4d e0          	mov    -0x20(%rbp),%rcx
    28b5:	48 8b 45 c8          	mov    -0x38(%rbp),%rax
    28b9:	48 89 ce             	mov    %rcx,%rsi
    28bc:	48 89 c7             	mov    %rax,%rdi
    28bf:	e8 3d 05 00 00       	callq  2e01 <_ZSt13move_backwardIN9__gnu_cxx17__normal_iteratorIPSt4pairIiiESt6vectorIS3_SaIS3_EEEES8_ET0_T_SA_S9_>
    28c4:	48 8d 45 d8          	lea    -0x28(%rbp),%rax
    28c8:	48 89 c7             	mov    %rax,%rdi
    28cb:	e8 f6 f4 ff ff       	callq  1dc6 <_ZSt4moveIRSt4pairIiiEEONSt16remove_referenceIT_E4typeEOS4_>
    28d0:	48 89 c3             	mov    %rax,%rbx
    28d3:	48 8d 45 c8          	lea    -0x38(%rbp),%rax
    28d7:	48 89 c7             	mov    %rax,%rdi
    28da:	e8 11 05 00 00       	callq  2df0 <_ZNK9__gnu_cxx17__normal_iteratorIPSt4pairIiiESt6vectorIS2_SaIS2_EEEdeEv>
    28df:	48 89 de             	mov    %rbx,%rsi
    28e2:	48 89 c7             	mov    %rax,%rdi
    28e5:	e8 64 05 00 00       	callq  2e4e <_ZNSt4pairIiiEaSEOS0_>
    28ea:	eb 11                	jmp    28fd <_ZSt16__insertion_sortIN9__gnu_cxx17__normal_iteratorIPSt4pairIiiESt6vectorIS3_SaIS3_EEEENS0_5__ops15_Iter_less_iterEEvT_SB_T0_+0xf2>
    28ec:	e8 94 ee ff ff       	callq  1785 <_ZN9__gnu_cxx5__ops15__val_comp_iterENS0_15_Iter_less_iterE>
    28f1:	48 8b 45 e0          	mov    -0x20(%rbp),%rax
    28f5:	48 89 c7             	mov    %rax,%rdi
    28f8:	e8 94 05 00 00       	callq  2e91 <_ZSt25__unguarded_linear_insertIN9__gnu_cxx17__normal_iteratorIPSt4pairIiiESt6vectorIS3_SaIS3_EEEENS0_5__ops14_Val_less_iterEEvT_T0_>
    28fd:	48 8d 45 e0          	lea    -0x20(%rbp),%rax
    2901:	48 89 c7             	mov    %rax,%rdi
    2904:	e8 c7 04 00 00       	callq  2dd0 <_ZN9__gnu_cxx17__normal_iteratorIPSt4pairIiiESt6vectorIS2_SaIS2_EEEppEv>
    2909:	e9 3e ff ff ff       	jmpq   284c <_ZSt16__insertion_sortIN9__gnu_cxx17__normal_iteratorIPSt4pairIiiESt6vectorIS3_SaIS3_EEEENS0_5__ops15_Iter_less_iterEEvT_SB_T0_+0x41>
    290e:	90                   	nop
    290f:	48 83 c4 48          	add    $0x48,%rsp
    2913:	5b                   	pop    %rbx
    2914:	5d                   	pop    %rbp
    2915:	c3                   	retq   

0000000000002916 <_ZSt26__unguarded_insertion_sortIN9__gnu_cxx17__normal_iteratorIPSt4pairIiiESt6vectorIS3_SaIS3_EEEENS0_5__ops15_Iter_less_iterEEvT_SB_T0_>:
    2916:	55                   	push   %rbp
    2917:	48 89 e5             	mov    %rsp,%rbp
    291a:	48 83 ec 30          	sub    $0x30,%rsp
    291e:	48 89 7d e8          	mov    %rdi,-0x18(%rbp)
    2922:	48 89 75 e0          	mov    %rsi,-0x20(%rbp)
    2926:	48 8b 45 e8          	mov    -0x18(%rbp),%rax
    292a:	48 89 45 f0          	mov    %rax,-0x10(%rbp)
    292e:	48 8d 55 e0          	lea    -0x20(%rbp),%rdx
    2932:	48 8d 45 f0          	lea    -0x10(%rbp),%rax
    2936:	48 89 d6             	mov    %rdx,%rsi
    2939:	48 89 c7             	mov    %rax,%rdi
    293c:	e8 9c f9 ff ff       	callq  22dd <_ZN9__gnu_cxxneIPSt4pairIiiESt6vectorIS2_SaIS2_EEEEbRKNS_17__normal_iteratorIT_T0_EESC_>
    2941:	84 c0                	test   %al,%al
    2943:	74 1f                	je     2964 <_ZSt26__unguarded_insertion_sortIN9__gnu_cxx17__normal_iteratorIPSt4pairIiiESt6vectorIS3_SaIS3_EEEENS0_5__ops15_Iter_less_iterEEvT_SB_T0_+0x4e>
    2945:	e8 3b ee ff ff       	callq  1785 <_ZN9__gnu_cxx5__ops15__val_comp_iterENS0_15_Iter_less_iterE>
    294a:	48 8b 45 f0          	mov    -0x10(%rbp),%rax
    294e:	48 89 c7             	mov    %rax,%rdi
    2951:	e8 3b 05 00 00       	callq  2e91 <_ZSt25__unguarded_linear_insertIN9__gnu_cxx17__normal_iteratorIPSt4pairIiiESt6vectorIS3_SaIS3_EEEENS0_5__ops14_Val_less_iterEEvT_T0_>
    2956:	48 8d 45 f0          	lea    -0x10(%rbp),%rax
    295a:	48 89 c7             	mov    %rax,%rdi
    295d:	e8 6e 04 00 00       	callq  2dd0 <_ZN9__gnu_cxx17__normal_iteratorIPSt4pairIiiESt6vectorIS2_SaIS2_EEEppEv>
    2962:	eb ca                	jmp    292e <_ZSt26__unguarded_insertion_sortIN9__gnu_cxx17__normal_iteratorIPSt4pairIiiESt6vectorIS3_SaIS3_EEEENS0_5__ops15_Iter_less_iterEEvT_SB_T0_+0x18>
    2964:	90                   	nop
    2965:	c9                   	leaveq 
    2966:	c3                   	retq   
    2967:	90                   	nop

0000000000002968 <_ZNKSt6vectorISt4pairIiiESaIS1_EE8max_sizeEv>:
    2968:	55                   	push   %rbp
    2969:	48 89 e5             	mov    %rsp,%rbp
    296c:	48 83 ec 10          	sub    $0x10,%rsp
    2970:	48 89 7d f8          	mov    %rdi,-0x8(%rbp)
    2974:	48 8b 45 f8          	mov    -0x8(%rbp),%rax
    2978:	48 89 c7             	mov    %rax,%rdi
    297b:	e8 1c 06 00 00       	callq  2f9c <_ZNKSt12_Vector_baseISt4pairIiiESaIS1_EE19_M_get_Tp_allocatorEv>
    2980:	48 89 c7             	mov    %rax,%rdi
    2983:	e8 d2 05 00 00       	callq  2f5a <_ZNSt6vectorISt4pairIiiESaIS1_EE11_S_max_sizeERKS2_>
    2988:	c9                   	leaveq 
    2989:	c3                   	retq   

000000000000298a <_ZNSt16allocator_traitsISaISt4pairIiiEEE8allocateERS2_m>:
    298a:	55                   	push   %rbp
    298b:	48 89 e5             	mov    %rsp,%rbp
    298e:	48 83 ec 10          	sub    $0x10,%rsp
    2992:	48 89 7d f8          	mov    %rdi,-0x8(%rbp)
    2996:	48 89 75 f0          	mov    %rsi,-0x10(%rbp)
    299a:	48 8b 4d f0          	mov    -0x10(%rbp),%rcx
    299e:	48 8b 45 f8          	mov    -0x8(%rbp),%rax
    29a2:	ba 00 00 00 00       	mov    $0x0,%edx
    29a7:	48 89 ce             	mov    %rcx,%rsi
    29aa:	48 89 c7             	mov    %rax,%rdi
    29ad:	e8 f8 05 00 00       	callq  2faa <_ZN9__gnu_cxx13new_allocatorISt4pairIiiEE8allocateEmPKv>
    29b2:	c9                   	leaveq 
    29b3:	c3                   	retq   

00000000000029b4 <_ZNSt6vectorISt4pairIiiESaIS1_EE14_S_do_relocateEPS1_S4_S4_RS2_St17integral_constantIbLb1EE>:
    29b4:	55                   	push   %rbp
    29b5:	48 89 e5             	mov    %rsp,%rbp
    29b8:	48 83 ec 20          	sub    $0x20,%rsp
    29bc:	48 89 7d f8          	mov    %rdi,-0x8(%rbp)
    29c0:	48 89 75 f0          	mov    %rsi,-0x10(%rbp)
    29c4:	48 89 55 e8          	mov    %rdx,-0x18(%rbp)
    29c8:	48 89 4d e0          	mov    %rcx,-0x20(%rbp)
    29cc:	48 8b 4d e0          	mov    -0x20(%rbp),%rcx
    29d0:	48 8b 55 e8          	mov    -0x18(%rbp),%rdx
    29d4:	48 8b 75 f0          	mov    -0x10(%rbp),%rsi
    29d8:	48 8b 45 f8          	mov    -0x8(%rbp),%rax
    29dc:	48 89 c7             	mov    %rax,%rdi
    29df:	e8 08 06 00 00       	callq  2fec <_ZSt12__relocate_aIPSt4pairIiiES2_SaIS1_EET0_T_S5_S4_RT1_>
    29e4:	c9                   	leaveq 
    29e5:	c3                   	retq   

00000000000029e6 <_ZSt32__make_move_if_noexcept_iteratorISt4pairIiiESt13move_iteratorIPS1_EET0_PT_>:
    29e6:	55                   	push   %rbp
    29e7:	48 89 e5             	mov    %rsp,%rbp
    29ea:	48 83 ec 20          	sub    $0x20,%rsp
    29ee:	48 89 7d e8          	mov    %rdi,-0x18(%rbp)
    29f2:	48 8b 55 e8          	mov    -0x18(%rbp),%rdx
    29f6:	48 8d 45 f8          	lea    -0x8(%rbp),%rax
    29fa:	48 89 d6             	mov    %rdx,%rsi
    29fd:	48 89 c7             	mov    %rax,%rdi
    2a00:	e8 4b 06 00 00       	callq  3050 <_ZNSt13move_iteratorIPSt4pairIiiEEC1ES2_>
    2a05:	48 8b 45 f8          	mov    -0x8(%rbp),%rax
    2a09:	c9                   	leaveq 
    2a0a:	c3                   	retq   

0000000000002a0b <_ZSt22__uninitialized_copy_aISt13move_iteratorIPSt4pairIiiEES3_S2_ET0_T_S6_S5_RSaIT1_E>:
    2a0b:	55                   	push   %rbp
    2a0c:	48 89 e5             	mov    %rsp,%rbp
    2a0f:	48 83 ec 20          	sub    $0x20,%rsp
    2a13:	48 89 7d f8          	mov    %rdi,-0x8(%rbp)
    2a17:	48 89 75 f0          	mov    %rsi,-0x10(%rbp)
    2a1b:	48 89 55 e8          	mov    %rdx,-0x18(%rbp)
    2a1f:	48 89 4d e0          	mov    %rcx,-0x20(%rbp)
    2a23:	48 8b 55 e8          	mov    -0x18(%rbp),%rdx
    2a27:	48 8b 4d f0          	mov    -0x10(%rbp),%rcx
    2a2b:	48 8b 45 f8          	mov    -0x8(%rbp),%rax
    2a2f:	48 89 ce             	mov    %rcx,%rsi
    2a32:	48 89 c7             	mov    %rax,%rdi
    2a35:	e8 30 06 00 00       	callq  306a <_ZSt18uninitialized_copyISt13move_iteratorIPSt4pairIiiEES3_ET0_T_S6_S5_>
    2a3a:	c9                   	leaveq 
    2a3b:	c3                   	retq   

0000000000002a3c <_ZN9__gnu_cxx13new_allocatorISt4pairIiiEE7destroyIS2_EEvPT_>:
    2a3c:	55                   	push   %rbp
    2a3d:	48 89 e5             	mov    %rsp,%rbp
    2a40:	48 89 7d f8          	mov    %rdi,-0x8(%rbp)
    2a44:	48 89 75 f0          	mov    %rsi,-0x10(%rbp)
    2a48:	90                   	nop
    2a49:	5d                   	pop    %rbp
    2a4a:	c3                   	retq   

0000000000002a4b <_ZSt13__heap_selectIN9__gnu_cxx17__normal_iteratorIPSt4pairIiiESt6vectorIS3_SaIS3_EEEENS0_5__ops15_Iter_less_iterEEvT_SB_SB_T0_>:
    2a4b:	55                   	push   %rbp
    2a4c:	48 89 e5             	mov    %rsp,%rbp
    2a4f:	48 83 ec 30          	sub    $0x30,%rsp
    2a53:	48 89 7d e8          	mov    %rdi,-0x18(%rbp)
    2a57:	48 89 75 e0          	mov    %rsi,-0x20(%rbp)
    2a5b:	48 89 55 d8          	mov    %rdx,-0x28(%rbp)
    2a5f:	48 8d 55 d7          	lea    -0x29(%rbp),%rdx
    2a63:	48 8b 4d e0          	mov    -0x20(%rbp),%rcx
    2a67:	48 8b 45 e8          	mov    -0x18(%rbp),%rax
    2a6b:	48 89 ce             	mov    %rcx,%rsi
    2a6e:	48 89 c7             	mov    %rax,%rdi
    2a71:	e8 25 06 00 00       	callq  309b <_ZSt11__make_heapIN9__gnu_cxx17__normal_iteratorIPSt4pairIiiESt6vectorIS3_SaIS3_EEEENS0_5__ops15_Iter_less_iterEEvT_SB_RT0_>
    2a76:	48 8b 45 e0          	mov    -0x20(%rbp),%rax
    2a7a:	48 89 45 f8          	mov    %rax,-0x8(%rbp)
    2a7e:	48 8d 55 d8          	lea    -0x28(%rbp),%rdx
    2a82:	48 8d 45 f8          	lea    -0x8(%rbp),%rax
    2a86:	48 89 d6             	mov    %rdx,%rsi
    2a89:	48 89 c7             	mov    %rax,%rdi
    2a8c:	e8 dc 06 00 00       	callq  316d <_ZN9__gnu_cxxltIPSt4pairIiiESt6vectorIS2_SaIS2_EEEEbRKNS_17__normal_iteratorIT_T0_EESC_>
    2a91:	84 c0                	test   %al,%al
    2a93:	74 41                	je     2ad6 <_ZSt13__heap_selectIN9__gnu_cxx17__normal_iteratorIPSt4pairIiiESt6vectorIS3_SaIS3_EEEENS0_5__ops15_Iter_less_iterEEvT_SB_SB_T0_+0x8b>
    2a95:	48 8b 55 e8          	mov    -0x18(%rbp),%rdx
    2a99:	48 8b 4d f8          	mov    -0x8(%rbp),%rcx
    2a9d:	48 8d 45 d7          	lea    -0x29(%rbp),%rax
    2aa1:	48 89 ce             	mov    %rcx,%rsi
    2aa4:	48 89 c7             	mov    %rax,%rdi
    2aa7:	e8 ca 00 00 00       	callq  2b76 <_ZNK9__gnu_cxx5__ops15_Iter_less_iterclINS_17__normal_iteratorIPSt4pairIiiESt6vectorIS5_SaIS5_EEEESA_EEbT_T0_>
    2aac:	84 c0                	test   %al,%al
    2aae:	74 18                	je     2ac8 <_ZSt13__heap_selectIN9__gnu_cxx17__normal_iteratorIPSt4pairIiiESt6vectorIS3_SaIS3_EEEENS0_5__ops15_Iter_less_iterEEvT_SB_SB_T0_+0x7d>
    2ab0:	48 8d 4d d7          	lea    -0x29(%rbp),%rcx
    2ab4:	48 8b 55 f8          	mov    -0x8(%rbp),%rdx
    2ab8:	48 8b 75 e0          	mov    -0x20(%rbp),%rsi
    2abc:	48 8b 45 e8          	mov    -0x18(%rbp),%rax
    2ac0:	48 89 c7             	mov    %rax,%rdi
    2ac3:	e8 e1 06 00 00       	callq  31a9 <_ZSt10__pop_heapIN9__gnu_cxx17__normal_iteratorIPSt4pairIiiESt6vectorIS3_SaIS3_EEEENS0_5__ops15_Iter_less_iterEEvT_SB_SB_RT0_>
    2ac8:	48 8d 45 f8          	lea    -0x8(%rbp),%rax
    2acc:	48 89 c7             	mov    %rax,%rdi
    2acf:	e8 fc 02 00 00       	callq  2dd0 <_ZN9__gnu_cxx17__normal_iteratorIPSt4pairIiiESt6vectorIS2_SaIS2_EEEppEv>
    2ad4:	eb a8                	jmp    2a7e <_ZSt13__heap_selectIN9__gnu_cxx17__normal_iteratorIPSt4pairIiiESt6vectorIS3_SaIS3_EEEENS0_5__ops15_Iter_less_iterEEvT_SB_SB_T0_+0x33>
    2ad6:	90                   	nop
    2ad7:	c9                   	leaveq 
    2ad8:	c3                   	retq   

0000000000002ad9 <_ZSt11__sort_heapIN9__gnu_cxx17__normal_iteratorIPSt4pairIiiESt6vectorIS3_SaIS3_EEEENS0_5__ops15_Iter_less_iterEEvT_SB_RT0_>:
    2ad9:	55                   	push   %rbp
    2ada:	48 89 e5             	mov    %rsp,%rbp
    2add:	48 83 ec 20          	sub    $0x20,%rsp
    2ae1:	48 89 7d f8          	mov    %rdi,-0x8(%rbp)
    2ae5:	48 89 75 f0          	mov    %rsi,-0x10(%rbp)
    2ae9:	48 89 55 e8          	mov    %rdx,-0x18(%rbp)
    2aed:	48 8d 55 f8          	lea    -0x8(%rbp),%rdx
    2af1:	48 8d 45 f0          	lea    -0x10(%rbp),%rax
    2af5:	48 89 d6             	mov    %rdx,%rsi
    2af8:	48 89 c7             	mov    %rax,%rdi
    2afb:	e8 19 f8 ff ff       	callq  2319 <_ZN9__gnu_cxxmiIPSt4pairIiiESt6vectorIS2_SaIS2_EEEENS_17__normal_iteratorIT_T0_E15difference_typeERKSA_SD_>
    2b00:	48 83 f8 01          	cmp    $0x1,%rax
    2b04:	0f 9f c0             	setg   %al
    2b07:	84 c0                	test   %al,%al
    2b09:	74 26                	je     2b31 <_ZSt11__sort_heapIN9__gnu_cxx17__normal_iteratorIPSt4pairIiiESt6vectorIS3_SaIS3_EEEENS0_5__ops15_Iter_less_iterEEvT_SB_RT0_+0x58>
    2b0b:	48 8d 45 f0          	lea    -0x10(%rbp),%rax
    2b0f:	48 89 c7             	mov    %rax,%rdi
    2b12:	e8 35 07 00 00       	callq  324c <_ZN9__gnu_cxx17__normal_iteratorIPSt4pairIiiESt6vectorIS2_SaIS2_EEEmmEv>
    2b17:	48 8b 4d e8          	mov    -0x18(%rbp),%rcx
    2b1b:	48 8b 55 f0          	mov    -0x10(%rbp),%rdx
    2b1f:	48 8b 75 f0          	mov    -0x10(%rbp),%rsi
    2b23:	48 8b 45 f8          	mov    -0x8(%rbp),%rax
    2b27:	48 89 c7             	mov    %rax,%rdi
    2b2a:	e8 7a 06 00 00       	callq  31a9 <_ZSt10__pop_heapIN9__gnu_cxx17__normal_iteratorIPSt4pairIiiESt6vectorIS3_SaIS3_EEEENS0_5__ops15_Iter_less_iterEEvT_SB_SB_RT0_>
    2b2f:	eb bc                	jmp    2aed <_ZSt11__sort_heapIN9__gnu_cxx17__normal_iteratorIPSt4pairIiiESt6vectorIS3_SaIS3_EEEENS0_5__ops15_Iter_less_iterEEvT_SB_RT0_+0x14>
    2b31:	90                   	nop
    2b32:	c9                   	leaveq 
    2b33:	c3                   	retq   

0000000000002b34 <_ZNK9__gnu_cxx17__normal_iteratorIPSt4pairIiiESt6vectorIS2_SaIS2_EEEmiEl>:
    2b34:	55                   	push   %rbp
    2b35:	48 89 e5             	mov    %rsp,%rbp
    2b38:	48 83 ec 20          	sub    $0x20,%rsp
    2b3c:	48 89 7d e8          	mov    %rdi,-0x18(%rbp)
    2b40:	48 89 75 e0          	mov    %rsi,-0x20(%rbp)
    2b44:	48 8b 45 e8          	mov    -0x18(%rbp),%rax
    2b48:	48 8b 00             	mov    (%rax),%rax
    2b4b:	48 8b 55 e0          	mov    -0x20(%rbp),%rdx
    2b4f:	48 c1 e2 03          	shl    $0x3,%rdx
    2b53:	48 f7 da             	neg    %rdx
    2b56:	48 01 d0             	add    %rdx,%rax
    2b59:	48 89 45 f8          	mov    %rax,-0x8(%rbp)
    2b5d:	48 8d 55 f8          	lea    -0x8(%rbp),%rdx
    2b61:	48 8d 45 f0          	lea    -0x10(%rbp),%rax
    2b65:	48 89 d6             	mov    %rdx,%rsi
    2b68:	48 89 c7             	mov    %rax,%rdi
    2b6b:	e8 fe f2 ff ff       	callq  1e6e <_ZN9__gnu_cxx17__normal_iteratorIPSt4pairIiiESt6vectorIS2_SaIS2_EEEC1ERKS3_>
    2b70:	48 8b 45 f0          	mov    -0x10(%rbp),%rax
    2b74:	c9                   	leaveq 
    2b75:	c3                   	retq   

0000000000002b76 <_ZNK9__gnu_cxx5__ops15_Iter_less_iterclINS_17__normal_iteratorIPSt4pairIiiESt6vectorIS5_SaIS5_EEEESA_EEbT_T0_>:
    2b76:	55                   	push   %rbp
    2b77:	48 89 e5             	mov    %rsp,%rbp
    2b7a:	53                   	push   %rbx
    2b7b:	48 83 ec 28          	sub    $0x28,%rsp
    2b7f:	48 89 7d e8          	mov    %rdi,-0x18(%rbp)
    2b83:	48 89 75 e0          	mov    %rsi,-0x20(%rbp)
    2b87:	48 89 55 d8          	mov    %rdx,-0x28(%rbp)
    2b8b:	48 8d 45 d8          	lea    -0x28(%rbp),%rax
    2b8f:	48 89 c7             	mov    %rax,%rdi
    2b92:	e8 59 02 00 00       	callq  2df0 <_ZNK9__gnu_cxx17__normal_iteratorIPSt4pairIiiESt6vectorIS2_SaIS2_EEEdeEv>
    2b97:	48 89 c3             	mov    %rax,%rbx
    2b9a:	48 8d 45 e0          	lea    -0x20(%rbp),%rax
    2b9e:	48 89 c7             	mov    %rax,%rdi
    2ba1:	e8 4a 02 00 00       	callq  2df0 <_ZNK9__gnu_cxx17__normal_iteratorIPSt4pairIiiESt6vectorIS2_SaIS2_EEEdeEv>
    2ba6:	48 89 de             	mov    %rbx,%rsi
    2ba9:	48 89 c7             	mov    %rax,%rdi
    2bac:	e8 bb 06 00 00       	callq  326c <_ZStltIiiEbRKSt4pairIT_T0_ES5_>
    2bb1:	48 83 c4 28          	add    $0x28,%rsp
    2bb5:	5b                   	pop    %rbx
    2bb6:	5d                   	pop    %rbp
    2bb7:	c3                   	retq   

0000000000002bb8 <_ZSt22__move_median_to_firstIN9__gnu_cxx17__normal_iteratorIPSt4pairIiiESt6vectorIS3_SaIS3_EEEENS0_5__ops15_Iter_less_iterEEvT_SB_SB_SB_T0_>:
    2bb8:	55                   	push   %rbp
    2bb9:	48 89 e5             	mov    %rsp,%rbp
    2bbc:	48 83 ec 30          	sub    $0x30,%rsp
    2bc0:	48 89 7d f8          	mov    %rdi,-0x8(%rbp)
    2bc4:	48 89 75 f0          	mov    %rsi,-0x10(%rbp)
    2bc8:	48 89 55 e8          	mov    %rdx,-0x18(%rbp)
    2bcc:	48 89 4d e0          	mov    %rcx,-0x20(%rbp)
    2bd0:	48 8b 55 e8          	mov    -0x18(%rbp),%rdx
    2bd4:	48 8b 4d f0          	mov    -0x10(%rbp),%rcx
    2bd8:	48 8d 45 df          	lea    -0x21(%rbp),%rax
    2bdc:	48 89 ce             	mov    %rcx,%rsi
    2bdf:	48 89 c7             	mov    %rax,%rdi
    2be2:	e8 8f ff ff ff       	callq  2b76 <_ZNK9__gnu_cxx5__ops15_Iter_less_iterclINS_17__normal_iteratorIPSt4pairIiiESt6vectorIS5_SaIS5_EEEESA_EEbT_T0_>
    2be7:	84 c0                	test   %al,%al
    2be9:	74 7b                	je     2c66 <_ZSt22__move_median_to_firstIN9__gnu_cxx17__normal_iteratorIPSt4pairIiiESt6vectorIS3_SaIS3_EEEENS0_5__ops15_Iter_less_iterEEvT_SB_SB_SB_T0_+0xae>
    2beb:	48 8b 55 e0          	mov    -0x20(%rbp),%rdx
    2bef:	48 8b 4d e8          	mov    -0x18(%rbp),%rcx
    2bf3:	48 8d 45 df          	lea    -0x21(%rbp),%rax
    2bf7:	48 89 ce             	mov    %rcx,%rsi
    2bfa:	48 89 c7             	mov    %rax,%rdi
    2bfd:	e8 74 ff ff ff       	callq  2b76 <_ZNK9__gnu_cxx5__ops15_Iter_less_iterclINS_17__normal_iteratorIPSt4pairIiiESt6vectorIS5_SaIS5_EEEESA_EEbT_T0_>
    2c02:	84 c0                	test   %al,%al
    2c04:	74 18                	je     2c1e <_ZSt22__move_median_to_firstIN9__gnu_cxx17__normal_iteratorIPSt4pairIiiESt6vectorIS3_SaIS3_EEEENS0_5__ops15_Iter_less_iterEEvT_SB_SB_SB_T0_+0x66>
    2c06:	48 8b 55 e8          	mov    -0x18(%rbp),%rdx
    2c0a:	48 8b 45 f8          	mov    -0x8(%rbp),%rax
    2c0e:	48 89 d6             	mov    %rdx,%rsi
    2c11:	48 89 c7             	mov    %rax,%rdi
    2c14:	e8 9f 06 00 00       	callq  32b8 <_ZSt9iter_swapIN9__gnu_cxx17__normal_iteratorIPSt4pairIiiESt6vectorIS3_SaIS3_EEEES8_EvT_T0_>
    2c19:	e9 bb 00 00 00       	jmpq   2cd9 <_ZSt22__move_median_to_firstIN9__gnu_cxx17__normal_iteratorIPSt4pairIiiESt6vectorIS3_SaIS3_EEEENS0_5__ops15_Iter_less_iterEEvT_SB_SB_SB_T0_+0x121>
    2c1e:	48 8b 55 e0          	mov    -0x20(%rbp),%rdx
    2c22:	48 8b 4d f0          	mov    -0x10(%rbp),%rcx
    2c26:	48 8d 45 df          	lea    -0x21(%rbp),%rax
    2c2a:	48 89 ce             	mov    %rcx,%rsi
    2c2d:	48 89 c7             	mov    %rax,%rdi
    2c30:	e8 41 ff ff ff       	callq  2b76 <_ZNK9__gnu_cxx5__ops15_Iter_less_iterclINS_17__normal_iteratorIPSt4pairIiiESt6vectorIS5_SaIS5_EEEESA_EEbT_T0_>
    2c35:	84 c0                	test   %al,%al
    2c37:	74 18                	je     2c51 <_ZSt22__move_median_to_firstIN9__gnu_cxx17__normal_iteratorIPSt4pairIiiESt6vectorIS3_SaIS3_EEEENS0_5__ops15_Iter_less_iterEEvT_SB_SB_SB_T0_+0x99>
    2c39:	48 8b 55 e0          	mov    -0x20(%rbp),%rdx
    2c3d:	48 8b 45 f8          	mov    -0x8(%rbp),%rax
    2c41:	48 89 d6             	mov    %rdx,%rsi
    2c44:	48 89 c7             	mov    %rax,%rdi
    2c47:	e8 6c 06 00 00       	callq  32b8 <_ZSt9iter_swapIN9__gnu_cxx17__normal_iteratorIPSt4pairIiiESt6vectorIS3_SaIS3_EEEES8_EvT_T0_>
    2c4c:	e9 88 00 00 00       	jmpq   2cd9 <_ZSt22__move_median_to_firstIN9__gnu_cxx17__normal_iteratorIPSt4pairIiiESt6vectorIS3_SaIS3_EEEENS0_5__ops15_Iter_less_iterEEvT_SB_SB_SB_T0_+0x121>
    2c51:	48 8b 55 f0          	mov    -0x10(%rbp),%rdx
    2c55:	48 8b 45 f8          	mov    -0x8(%rbp),%rax
    2c59:	48 89 d6             	mov    %rdx,%rsi
    2c5c:	48 89 c7             	mov    %rax,%rdi
    2c5f:	e8 54 06 00 00       	callq  32b8 <_ZSt9iter_swapIN9__gnu_cxx17__normal_iteratorIPSt4pairIiiESt6vectorIS3_SaIS3_EEEES8_EvT_T0_>
    2c64:	eb 73                	jmp    2cd9 <_ZSt22__move_median_to_firstIN9__gnu_cxx17__normal_iteratorIPSt4pairIiiESt6vectorIS3_SaIS3_EEEENS0_5__ops15_Iter_less_iterEEvT_SB_SB_SB_T0_+0x121>
    2c66:	48 8b 55 e0          	mov    -0x20(%rbp),%rdx
    2c6a:	48 8b 4d f0          	mov    -0x10(%rbp),%rcx
    2c6e:	48 8d 45 df          	lea    -0x21(%rbp),%rax
    2c72:	48 89 ce             	mov    %rcx,%rsi
    2c75:	48 89 c7             	mov    %rax,%rdi
    2c78:	e8 f9 fe ff ff       	callq  2b76 <_ZNK9__gnu_cxx5__ops15_Iter_less_iterclINS_17__normal_iteratorIPSt4pairIiiESt6vectorIS5_SaIS5_EEEESA_EEbT_T0_>
    2c7d:	84 c0                	test   %al,%al
    2c7f:	74 15                	je     2c96 <_ZSt22__move_median_to_firstIN9__gnu_cxx17__normal_iteratorIPSt4pairIiiESt6vectorIS3_SaIS3_EEEENS0_5__ops15_Iter_less_iterEEvT_SB_SB_SB_T0_+0xde>
    2c81:	48 8b 55 f0          	mov    -0x10(%rbp),%rdx
    2c85:	48 8b 45 f8          	mov    -0x8(%rbp),%rax
    2c89:	48 89 d6             	mov    %rdx,%rsi
    2c8c:	48 89 c7             	mov    %rax,%rdi
    2c8f:	e8 24 06 00 00       	callq  32b8 <_ZSt9iter_swapIN9__gnu_cxx17__normal_iteratorIPSt4pairIiiESt6vectorIS3_SaIS3_EEEES8_EvT_T0_>
    2c94:	eb 43                	jmp    2cd9 <_ZSt22__move_median_to_firstIN9__gnu_cxx17__normal_iteratorIPSt4pairIiiESt6vectorIS3_SaIS3_EEEENS0_5__ops15_Iter_less_iterEEvT_SB_SB_SB_T0_+0x121>
    2c96:	48 8b 55 e0          	mov    -0x20(%rbp),%rdx
    2c9a:	48 8b 4d e8          	mov    -0x18(%rbp),%rcx
    2c9e:	48 8d 45 df          	lea    -0x21(%rbp),%rax
    2ca2:	48 89 ce             	mov    %rcx,%rsi
    2ca5:	48 89 c7             	mov    %rax,%rdi
    2ca8:	e8 c9 fe ff ff       	callq  2b76 <_ZNK9__gnu_cxx5__ops15_Iter_less_iterclINS_17__normal_iteratorIPSt4pairIiiESt6vectorIS5_SaIS5_EEEESA_EEbT_T0_>
    2cad:	84 c0                	test   %al,%al
    2caf:	74 15                	je     2cc6 <_ZSt22__move_median_to_firstIN9__gnu_cxx17__normal_iteratorIPSt4pairIiiESt6vectorIS3_SaIS3_EEEENS0_5__ops15_Iter_less_iterEEvT_SB_SB_SB_T0_+0x10e>
    2cb1:	48 8b 55 e0          	mov    -0x20(%rbp),%rdx
    2cb5:	48 8b 45 f8          	mov    -0x8(%rbp),%rax
    2cb9:	48 89 d6             	mov    %rdx,%rsi
    2cbc:	48 89 c7             	mov    %rax,%rdi
    2cbf:	e8 f4 05 00 00       	callq  32b8 <_ZSt9iter_swapIN9__gnu_cxx17__normal_iteratorIPSt4pairIiiESt6vectorIS3_SaIS3_EEEES8_EvT_T0_>
    2cc4:	eb 13                	jmp    2cd9 <_ZSt22__move_median_to_firstIN9__gnu_cxx17__normal_iteratorIPSt4pairIiiESt6vectorIS3_SaIS3_EEEENS0_5__ops15_Iter_less_iterEEvT_SB_SB_SB_T0_+0x121>
    2cc6:	48 8b 55 e8          	mov    -0x18(%rbp),%rdx
    2cca:	48 8b 45 f8          	mov    -0x8(%rbp),%rax
    2cce:	48 89 d6             	mov    %rdx,%rsi
    2cd1:	48 89 c7             	mov    %rax,%rdi
    2cd4:	e8 df 05 00 00       	callq  32b8 <_ZSt9iter_swapIN9__gnu_cxx17__normal_iteratorIPSt4pairIiiESt6vectorIS3_SaIS3_EEEES8_EvT_T0_>
    2cd9:	90                   	nop
    2cda:	c9                   	leaveq 
    2cdb:	c3                   	retq   

0000000000002cdc <_ZSt21__unguarded_partitionIN9__gnu_cxx17__normal_iteratorIPSt4pairIiiESt6vectorIS3_SaIS3_EEEENS0_5__ops15_Iter_less_iterEET_SB_SB_SB_T0_>:
    2cdc:	55                   	push   %rbp
    2cdd:	48 89 e5             	mov    %rsp,%rbp
    2ce0:	48 83 ec 20          	sub    $0x20,%rsp
    2ce4:	48 89 7d f8          	mov    %rdi,-0x8(%rbp)
    2ce8:	48 89 75 f0          	mov    %rsi,-0x10(%rbp)
    2cec:	48 89 55 e8          	mov    %rdx,-0x18(%rbp)
    2cf0:	48 8b 55 e8          	mov    -0x18(%rbp),%rdx
    2cf4:	48 8b 4d f8          	mov    -0x8(%rbp),%rcx
    2cf8:	48 8d 45 e7          	lea    -0x19(%rbp),%rax
    2cfc:	48 89 ce             	mov    %rcx,%rsi
    2cff:	48 89 c7             	mov    %rax,%rdi
    2d02:	e8 6f fe ff ff       	callq  2b76 <_ZNK9__gnu_cxx5__ops15_Iter_less_iterclINS_17__normal_iteratorIPSt4pairIiiESt6vectorIS5_SaIS5_EEEESA_EEbT_T0_>
    2d07:	84 c0                	test   %al,%al
    2d09:	74 0e                	je     2d19 <_ZSt21__unguarded_partitionIN9__gnu_cxx17__normal_iteratorIPSt4pairIiiESt6vectorIS3_SaIS3_EEEENS0_5__ops15_Iter_less_iterEET_SB_SB_SB_T0_+0x3d>
    2d0b:	48 8d 45 f8          	lea    -0x8(%rbp),%rax
    2d0f:	48 89 c7             	mov    %rax,%rdi
    2d12:	e8 b9 00 00 00       	callq  2dd0 <_ZN9__gnu_cxx17__normal_iteratorIPSt4pairIiiESt6vectorIS2_SaIS2_EEEppEv>
    2d17:	eb d7                	jmp    2cf0 <_ZSt21__unguarded_partitionIN9__gnu_cxx17__normal_iteratorIPSt4pairIiiESt6vectorIS3_SaIS3_EEEENS0_5__ops15_Iter_less_iterEET_SB_SB_SB_T0_+0x14>
    2d19:	48 8d 45 f0          	lea    -0x10(%rbp),%rax
    2d1d:	48 89 c7             	mov    %rax,%rdi
    2d20:	e8 27 05 00 00       	callq  324c <_ZN9__gnu_cxx17__normal_iteratorIPSt4pairIiiESt6vectorIS2_SaIS2_EEEmmEv>
    2d25:	48 8b 55 f0          	mov    -0x10(%rbp),%rdx
    2d29:	48 8b 4d e8          	mov    -0x18(%rbp),%rcx
    2d2d:	48 8d 45 e7          	lea    -0x19(%rbp),%rax
    2d31:	48 89 ce             	mov    %rcx,%rsi
    2d34:	48 89 c7             	mov    %rax,%rdi
    2d37:	e8 3a fe ff ff       	callq  2b76 <_ZNK9__gnu_cxx5__ops15_Iter_less_iterclINS_17__normal_iteratorIPSt4pairIiiESt6vectorIS5_SaIS5_EEEESA_EEbT_T0_>
    2d3c:	84 c0                	test   %al,%al
    2d3e:	74 0e                	je     2d4e <_ZSt21__unguarded_partitionIN9__gnu_cxx17__normal_iteratorIPSt4pairIiiESt6vectorIS3_SaIS3_EEEENS0_5__ops15_Iter_less_iterEET_SB_SB_SB_T0_+0x72>
    2d40:	48 8d 45 f0          	lea    -0x10(%rbp),%rax
    2d44:	48 89 c7             	mov    %rax,%rdi
    2d47:	e8 00 05 00 00       	callq  324c <_ZN9__gnu_cxx17__normal_iteratorIPSt4pairIiiESt6vectorIS2_SaIS2_EEEmmEv>
    2d4c:	eb d7                	jmp    2d25 <_ZSt21__unguarded_partitionIN9__gnu_cxx17__normal_iteratorIPSt4pairIiiESt6vectorIS3_SaIS3_EEEENS0_5__ops15_Iter_less_iterEET_SB_SB_SB_T0_+0x49>
    2d4e:	48 8d 55 f0          	lea    -0x10(%rbp),%rdx
    2d52:	48 8d 45 f8          	lea    -0x8(%rbp),%rax
    2d56:	48 89 d6             	mov    %rdx,%rsi
    2d59:	48 89 c7             	mov    %rax,%rdi
    2d5c:	e8 0c 04 00 00       	callq  316d <_ZN9__gnu_cxxltIPSt4pairIiiESt6vectorIS2_SaIS2_EEEEbRKNS_17__normal_iteratorIT_T0_EESC_>
    2d61:	83 f0 01             	xor    $0x1,%eax
    2d64:	84 c0                	test   %al,%al
    2d66:	74 06                	je     2d6e <_ZSt21__unguarded_partitionIN9__gnu_cxx17__normal_iteratorIPSt4pairIiiESt6vectorIS3_SaIS3_EEEENS0_5__ops15_Iter_less_iterEET_SB_SB_SB_T0_+0x92>
    2d68:	48 8b 45 f8          	mov    -0x8(%rbp),%rax
    2d6c:	eb 24                	jmp    2d92 <_ZSt21__unguarded_partitionIN9__gnu_cxx17__normal_iteratorIPSt4pairIiiESt6vectorIS3_SaIS3_EEEENS0_5__ops15_Iter_less_iterEET_SB_SB_SB_T0_+0xb6>
    2d6e:	48 8b 55 f0          	mov    -0x10(%rbp),%rdx
    2d72:	48 8b 45 f8          	mov    -0x8(%rbp),%rax
    2d76:	48 89 d6             	mov    %rdx,%rsi
    2d79:	48 89 c7             	mov    %rax,%rdi
    2d7c:	e8 37 05 00 00       	callq  32b8 <_ZSt9iter_swapIN9__gnu_cxx17__normal_iteratorIPSt4pairIiiESt6vectorIS3_SaIS3_EEEES8_EvT_T0_>
    2d81:	48 8d 45 f8          	lea    -0x8(%rbp),%rax
    2d85:	48 89 c7             	mov    %rax,%rdi
    2d88:	e8 43 00 00 00       	callq  2dd0 <_ZN9__gnu_cxx17__normal_iteratorIPSt4pairIiiESt6vectorIS2_SaIS2_EEEppEv>
    2d8d:	e9 5e ff ff ff       	jmpq   2cf0 <_ZSt21__unguarded_partitionIN9__gnu_cxx17__normal_iteratorIPSt4pairIiiESt6vectorIS3_SaIS3_EEEENS0_5__ops15_Iter_less_iterEET_SB_SB_SB_T0_+0x14>
    2d92:	c9                   	leaveq 
    2d93:	c3                   	retq   

0000000000002d94 <_ZN9__gnu_cxxeqIPSt4pairIiiESt6vectorIS2_SaIS2_EEEEbRKNS_17__normal_iteratorIT_T0_EESC_>:
    2d94:	55                   	push   %rbp
    2d95:	48 89 e5             	mov    %rsp,%rbp
    2d98:	53                   	push   %rbx
    2d99:	48 83 ec 18          	sub    $0x18,%rsp
    2d9d:	48 89 7d e8          	mov    %rdi,-0x18(%rbp)
    2da1:	48 89 75 e0          	mov    %rsi,-0x20(%rbp)
    2da5:	48 8b 45 e8          	mov    -0x18(%rbp),%rax
    2da9:	48 89 c7             	mov    %rax,%rdi
    2dac:	e8 9d f8 ff ff       	callq  264e <_ZNK9__gnu_cxx17__normal_iteratorIPSt4pairIiiESt6vectorIS2_SaIS2_EEE4baseEv>
    2db1:	48 8b 18             	mov    (%rax),%rbx
    2db4:	48 8b 45 e0          	mov    -0x20(%rbp),%rax
    2db8:	48 89 c7             	mov    %rax,%rdi
    2dbb:	e8 8e f8 ff ff       	callq  264e <_ZNK9__gnu_cxx17__normal_iteratorIPSt4pairIiiESt6vectorIS2_SaIS2_EEE4baseEv>
    2dc0:	48 8b 00             	mov    (%rax),%rax
    2dc3:	48 39 c3             	cmp    %rax,%rbx
    2dc6:	0f 94 c0             	sete   %al
    2dc9:	48 83 c4 18          	add    $0x18,%rsp
    2dcd:	5b                   	pop    %rbx
    2dce:	5d                   	pop    %rbp
    2dcf:	c3                   	retq   

0000000000002dd0 <_ZN9__gnu_cxx17__normal_iteratorIPSt4pairIiiESt6vectorIS2_SaIS2_EEEppEv>:
    2dd0:	55                   	push   %rbp
    2dd1:	48 89 e5             	mov    %rsp,%rbp
    2dd4:	48 89 7d f8          	mov    %rdi,-0x8(%rbp)
    2dd8:	48 8b 45 f8          	mov    -0x8(%rbp),%rax
    2ddc:	48 8b 00             	mov    (%rax),%rax
    2ddf:	48 8d 50 08          	lea    0x8(%rax),%rdx
    2de3:	48 8b 45 f8          	mov    -0x8(%rbp),%rax
    2de7:	48 89 10             	mov    %rdx,(%rax)
    2dea:	48 8b 45 f8          	mov    -0x8(%rbp),%rax
    2dee:	5d                   	pop    %rbp
    2def:	c3                   	retq   

0000000000002df0 <_ZNK9__gnu_cxx17__normal_iteratorIPSt4pairIiiESt6vectorIS2_SaIS2_EEEdeEv>:
    2df0:	55                   	push   %rbp
    2df1:	48 89 e5             	mov    %rsp,%rbp
    2df4:	48 89 7d f8          	mov    %rdi,-0x8(%rbp)
    2df8:	48 8b 45 f8          	mov    -0x8(%rbp),%rax
    2dfc:	48 8b 00             	mov    (%rax),%rax
    2dff:	5d                   	pop    %rbp
    2e00:	c3                   	retq   

0000000000002e01 <_ZSt13move_backwardIN9__gnu_cxx17__normal_iteratorIPSt4pairIiiESt6vectorIS3_SaIS3_EEEES8_ET0_T_SA_S9_>:
    2e01:	55                   	push   %rbp
    2e02:	48 89 e5             	mov    %rsp,%rbp
    2e05:	53                   	push   %rbx
    2e06:	48 83 ec 28          	sub    $0x28,%rsp
    2e0a:	48 89 7d e8          	mov    %rdi,-0x18(%rbp)
    2e0e:	48 89 75 e0          	mov    %rsi,-0x20(%rbp)
    2e12:	48 89 55 d8          	mov    %rdx,-0x28(%rbp)
    2e16:	48 8b 45 e0          	mov    -0x20(%rbp),%rax
    2e1a:	48 89 c7             	mov    %rax,%rdi
    2e1d:	e8 d5 04 00 00       	callq  32f7 <_ZSt12__miter_baseIN9__gnu_cxx17__normal_iteratorIPSt4pairIiiESt6vectorIS3_SaIS3_EEEEET_S9_>
    2e22:	48 89 c3             	mov    %rax,%rbx
    2e25:	48 8b 45 e8          	mov    -0x18(%rbp),%rax
    2e29:	48 89 c7             	mov    %rax,%rdi
    2e2c:	e8 c6 04 00 00       	callq  32f7 <_ZSt12__miter_baseIN9__gnu_cxx17__normal_iteratorIPSt4pairIiiESt6vectorIS3_SaIS3_EEEEET_S9_>
    2e31:	48 89 c1             	mov    %rax,%rcx
    2e34:	48 8b 45 d8          	mov    -0x28(%rbp),%rax
    2e38:	48 89 c2             	mov    %rax,%rdx
    2e3b:	48 89 de             	mov    %rbx,%rsi
    2e3e:	48 89 cf             	mov    %rcx,%rdi
    2e41:	e8 bf 04 00 00       	callq  3305 <_ZSt23__copy_move_backward_a2ILb1EN9__gnu_cxx17__normal_iteratorIPSt4pairIiiESt6vectorIS3_SaIS3_EEEES8_ET1_T0_SA_S9_>
    2e46:	48 83 c4 28          	add    $0x28,%rsp
    2e4a:	5b                   	pop    %rbx
    2e4b:	5d                   	pop    %rbp
    2e4c:	c3                   	retq   
    2e4d:	90                   	nop

0000000000002e4e <_ZNSt4pairIiiEaSEOS0_>:
    2e4e:	55                   	push   %rbp
    2e4f:	48 89 e5             	mov    %rsp,%rbp
    2e52:	48 83 ec 10          	sub    $0x10,%rsp
    2e56:	48 89 7d f8          	mov    %rdi,-0x8(%rbp)
    2e5a:	48 89 75 f0          	mov    %rsi,-0x10(%rbp)
    2e5e:	48 8b 45 f0          	mov    -0x10(%rbp),%rax
    2e62:	48 89 c7             	mov    %rax,%rdi
    2e65:	e8 40 ea ff ff       	callq  18aa <_ZSt7forwardIiEOT_RNSt16remove_referenceIS0_E4typeE>
    2e6a:	8b 10                	mov    (%rax),%edx
    2e6c:	48 8b 45 f8          	mov    -0x8(%rbp),%rax
    2e70:	89 10                	mov    %edx,(%rax)
    2e72:	48 8b 45 f0          	mov    -0x10(%rbp),%rax
    2e76:	48 83 c0 04          	add    $0x4,%rax
    2e7a:	48 89 c7             	mov    %rax,%rdi
    2e7d:	e8 28 ea ff ff       	callq  18aa <_ZSt7forwardIiEOT_RNSt16remove_referenceIS0_E4typeE>
    2e82:	8b 10                	mov    (%rax),%edx
    2e84:	48 8b 45 f8          	mov    -0x8(%rbp),%rax
    2e88:	89 50 04             	mov    %edx,0x4(%rax)
    2e8b:	48 8b 45 f8          	mov    -0x8(%rbp),%rax
    2e8f:	c9                   	leaveq 
    2e90:	c3                   	retq   

0000000000002e91 <_ZSt25__unguarded_linear_insertIN9__gnu_cxx17__normal_iteratorIPSt4pairIiiESt6vectorIS3_SaIS3_EEEENS0_5__ops14_Val_less_iterEEvT_T0_>:
    2e91:	55                   	push   %rbp
    2e92:	48 89 e5             	mov    %rsp,%rbp
    2e95:	53                   	push   %rbx
    2e96:	48 83 ec 28          	sub    $0x28,%rsp
    2e9a:	48 89 7d d8          	mov    %rdi,-0x28(%rbp)
    2e9e:	48 8d 45 d8          	lea    -0x28(%rbp),%rax
    2ea2:	48 89 c7             	mov    %rax,%rdi
    2ea5:	e8 46 ff ff ff       	callq  2df0 <_ZNK9__gnu_cxx17__normal_iteratorIPSt4pairIiiESt6vectorIS2_SaIS2_EEEdeEv>
    2eaa:	48 89 c7             	mov    %rax,%rdi
    2ead:	e8 14 ef ff ff       	callq  1dc6 <_ZSt4moveIRSt4pairIiiEEONSt16remove_referenceIT_E4typeEOS4_>
    2eb2:	48 8b 00             	mov    (%rax),%rax
    2eb5:	48 89 45 e8          	mov    %rax,-0x18(%rbp)
    2eb9:	48 8b 45 d8          	mov    -0x28(%rbp),%rax
    2ebd:	48 89 45 e0          	mov    %rax,-0x20(%rbp)
    2ec1:	48 8d 45 e0          	lea    -0x20(%rbp),%rax
    2ec5:	48 89 c7             	mov    %rax,%rdi
    2ec8:	e8 7f 03 00 00       	callq  324c <_ZN9__gnu_cxx17__normal_iteratorIPSt4pairIiiESt6vectorIS2_SaIS2_EEEmmEv>
    2ecd:	48 8b 55 e0          	mov    -0x20(%rbp),%rdx
    2ed1:	48 8d 4d e8          	lea    -0x18(%rbp),%rcx
    2ed5:	48 8d 45 d7          	lea    -0x29(%rbp),%rax
    2ed9:	48 89 ce             	mov    %rcx,%rsi
    2edc:	48 89 c7             	mov    %rax,%rdi
    2edf:	e8 8c 04 00 00       	callq  3370 <_ZNK9__gnu_cxx5__ops14_Val_less_iterclISt4pairIiiENS_17__normal_iteratorIPS4_St6vectorIS4_SaIS4_EEEEEEbRT_T0_>
    2ee4:	84 c0                	test   %al,%al
    2ee6:	74 44                	je     2f2c <_ZSt25__unguarded_linear_insertIN9__gnu_cxx17__normal_iteratorIPSt4pairIiiESt6vectorIS3_SaIS3_EEEENS0_5__ops14_Val_less_iterEEvT_T0_+0x9b>
    2ee8:	48 8d 45 e0          	lea    -0x20(%rbp),%rax
    2eec:	48 89 c7             	mov    %rax,%rdi
    2eef:	e8 fc fe ff ff       	callq  2df0 <_ZNK9__gnu_cxx17__normal_iteratorIPSt4pairIiiESt6vectorIS2_SaIS2_EEEdeEv>
    2ef4:	48 89 c7             	mov    %rax,%rdi
    2ef7:	e8 ca ee ff ff       	callq  1dc6 <_ZSt4moveIRSt4pairIiiEEONSt16remove_referenceIT_E4typeEOS4_>
    2efc:	48 89 c3             	mov    %rax,%rbx
    2eff:	48 8d 45 d8          	lea    -0x28(%rbp),%rax
    2f03:	48 89 c7             	mov    %rax,%rdi
    2f06:	e8 e5 fe ff ff       	callq  2df0 <_ZNK9__gnu_cxx17__normal_iteratorIPSt4pairIiiESt6vectorIS2_SaIS2_EEEdeEv>
    2f0b:	48 89 de             	mov    %rbx,%rsi
    2f0e:	48 89 c7             	mov    %rax,%rdi
    2f11:	e8 38 ff ff ff       	callq  2e4e <_ZNSt4pairIiiEaSEOS0_>
    2f16:	48 8b 45 e0          	mov    -0x20(%rbp),%rax
    2f1a:	48 89 45 d8          	mov    %rax,-0x28(%rbp)
    2f1e:	48 8d 45 e0          	lea    -0x20(%rbp),%rax
    2f22:	48 89 c7             	mov    %rax,%rdi
    2f25:	e8 22 03 00 00       	callq  324c <_ZN9__gnu_cxx17__normal_iteratorIPSt4pairIiiESt6vectorIS2_SaIS2_EEEmmEv>
    2f2a:	eb a1                	jmp    2ecd <_ZSt25__unguarded_linear_insertIN9__gnu_cxx17__normal_iteratorIPSt4pairIiiESt6vectorIS3_SaIS3_EEEENS0_5__ops14_Val_less_iterEEvT_T0_+0x3c>
    2f2c:	48 8d 45 e8          	lea    -0x18(%rbp),%rax
    2f30:	48 89 c7             	mov    %rax,%rdi
    2f33:	e8 8e ee ff ff       	callq  1dc6 <_ZSt4moveIRSt4pairIiiEEONSt16remove_referenceIT_E4typeEOS4_>
    2f38:	48 89 c3             	mov    %rax,%rbx
    2f3b:	48 8d 45 d8          	lea    -0x28(%rbp),%rax
    2f3f:	48 89 c7             	mov    %rax,%rdi
    2f42:	e8 a9 fe ff ff       	callq  2df0 <_ZNK9__gnu_cxx17__normal_iteratorIPSt4pairIiiESt6vectorIS2_SaIS2_EEEdeEv>
    2f47:	48 89 de             	mov    %rbx,%rsi
    2f4a:	48 89 c7             	mov    %rax,%rdi
    2f4d:	e8 fc fe ff ff       	callq  2e4e <_ZNSt4pairIiiEaSEOS0_>
    2f52:	90                   	nop
    2f53:	48 83 c4 28          	add    $0x28,%rsp
    2f57:	5b                   	pop    %rbx
    2f58:	5d                   	pop    %rbp
    2f59:	c3                   	retq   

0000000000002f5a <_ZNSt6vectorISt4pairIiiESaIS1_EE11_S_max_sizeERKS2_>:
    2f5a:	55                   	push   %rbp
    2f5b:	48 89 e5             	mov    %rsp,%rbp
    2f5e:	48 83 ec 20          	sub    $0x20,%rsp
    2f62:	48 89 7d e8          	mov    %rdi,-0x18(%rbp)
    2f66:	48 b8 ff ff ff ff ff 	movabs $0xfffffffffffffff,%rax
    2f6d:	ff ff 0f 
    2f70:	48 89 45 f8          	mov    %rax,-0x8(%rbp)
    2f74:	48 8b 45 e8          	mov    -0x18(%rbp),%rax
    2f78:	48 89 c7             	mov    %rax,%rdi
    2f7b:	e8 24 04 00 00       	callq  33a4 <_ZNSt16allocator_traitsISaISt4pairIiiEEE8max_sizeERKS2_>
    2f80:	48 89 45 f0          	mov    %rax,-0x10(%rbp)
    2f84:	48 8d 55 f0          	lea    -0x10(%rbp),%rdx
    2f88:	48 8d 45 f8          	lea    -0x8(%rbp),%rax
    2f8c:	48 89 d6             	mov    %rdx,%rsi
    2f8f:	48 89 c7             	mov    %rax,%rdi
    2f92:	e8 15 e8 ff ff       	callq  17ac <_ZSt3minImERKT_S2_S2_>
    2f97:	48 8b 00             	mov    (%rax),%rax
    2f9a:	c9                   	leaveq 
    2f9b:	c3                   	retq   

0000000000002f9c <_ZNKSt12_Vector_baseISt4pairIiiESaIS1_EE19_M_get_Tp_allocatorEv>:
    2f9c:	55                   	push   %rbp
    2f9d:	48 89 e5             	mov    %rsp,%rbp
    2fa0:	48 89 7d f8          	mov    %rdi,-0x8(%rbp)
    2fa4:	48 8b 45 f8          	mov    -0x8(%rbp),%rax
    2fa8:	5d                   	pop    %rbp
    2fa9:	c3                   	retq   

0000000000002faa <_ZN9__gnu_cxx13new_allocatorISt4pairIiiEE8allocateEmPKv>:
    2faa:	55                   	push   %rbp
    2fab:	48 89 e5             	mov    %rsp,%rbp
    2fae:	48 83 ec 20          	sub    $0x20,%rsp
    2fb2:	48 89 7d f8          	mov    %rdi,-0x8(%rbp)
    2fb6:	48 89 75 f0          	mov    %rsi,-0x10(%rbp)
    2fba:	48 89 55 e8          	mov    %rdx,-0x18(%rbp)
    2fbe:	48 8b 45 f8          	mov    -0x8(%rbp),%rax
    2fc2:	48 89 c7             	mov    %rax,%rdi
    2fc5:	e8 f4 03 00 00       	callq  33be <_ZNK9__gnu_cxx13new_allocatorISt4pairIiiEE8max_sizeEv>
    2fca:	48 39 45 f0          	cmp    %rax,-0x10(%rbp)
    2fce:	0f 97 c0             	seta   %al
    2fd1:	84 c0                	test   %al,%al
    2fd3:	74 05                	je     2fda <_ZN9__gnu_cxx13new_allocatorISt4pairIiiEE8allocateEmPKv+0x30>
    2fd5:	e8 56 e0 ff ff       	callq  1030 <_ZSt17__throw_bad_allocv@plt>
    2fda:	48 8b 45 f0          	mov    -0x10(%rbp),%rax
    2fde:	48 c1 e0 03          	shl    $0x3,%rax
    2fe2:	48 89 c7             	mov    %rax,%rdi
    2fe5:	e8 e6 e0 ff ff       	callq  10d0 <_Znwm@plt>
    2fea:	c9                   	leaveq 
    2feb:	c3                   	retq   

0000000000002fec <_ZSt12__relocate_aIPSt4pairIiiES2_SaIS1_EET0_T_S5_S4_RT1_>:
    2fec:	55                   	push   %rbp
    2fed:	48 89 e5             	mov    %rsp,%rbp
    2ff0:	41 54                	push   %r12
    2ff2:	53                   	push   %rbx
    2ff3:	48 83 ec 20          	sub    $0x20,%rsp
    2ff7:	48 89 7d e8          	mov    %rdi,-0x18(%rbp)
    2ffb:	48 89 75 e0          	mov    %rsi,-0x20(%rbp)
    2fff:	48 89 55 d8          	mov    %rdx,-0x28(%rbp)
    3003:	48 89 4d d0          	mov    %rcx,-0x30(%rbp)
    3007:	48 8b 45 d8          	mov    -0x28(%rbp),%rax
    300b:	48 89 c7             	mov    %rax,%rdi
    300e:	e8 bf 03 00 00       	callq  33d2 <_ZSt12__niter_baseIPSt4pairIiiEET_S3_>
    3013:	49 89 c4             	mov    %rax,%r12
    3016:	48 8b 45 e0          	mov    -0x20(%rbp),%rax
    301a:	48 89 c7             	mov    %rax,%rdi
    301d:	e8 b0 03 00 00       	callq  33d2 <_ZSt12__niter_baseIPSt4pairIiiEET_S3_>
    3022:	48 89 c3             	mov    %rax,%rbx
    3025:	48 8b 45 e8          	mov    -0x18(%rbp),%rax
    3029:	48 89 c7             	mov    %rax,%rdi
    302c:	e8 a1 03 00 00       	callq  33d2 <_ZSt12__niter_baseIPSt4pairIiiEET_S3_>
    3031:	48 89 c7             	mov    %rax,%rdi
    3034:	48 8b 45 d0          	mov    -0x30(%rbp),%rax
    3038:	48 89 c1             	mov    %rax,%rcx
    303b:	4c 89 e2             	mov    %r12,%rdx
    303e:	48 89 de             	mov    %rbx,%rsi
    3041:	e8 9a 03 00 00       	callq  33e0 <_ZSt14__relocate_a_1IPSt4pairIiiES2_SaIS1_EET0_T_S5_S4_RT1_>
    3046:	48 83 c4 20          	add    $0x20,%rsp
    304a:	5b                   	pop    %rbx
    304b:	41 5c                	pop    %r12
    304d:	5d                   	pop    %rbp
    304e:	c3                   	retq   
    304f:	90                   	nop

0000000000003050 <_ZNSt13move_iteratorIPSt4pairIiiEEC1ES2_>:
    3050:	55                   	push   %rbp
    3051:	48 89 e5             	mov    %rsp,%rbp
    3054:	48 89 7d f8          	mov    %rdi,-0x8(%rbp)
    3058:	48 89 75 f0          	mov    %rsi,-0x10(%rbp)
    305c:	48 8b 45 f8          	mov    -0x8(%rbp),%rax
    3060:	48 8b 55 f0          	mov    -0x10(%rbp),%rdx
    3064:	48 89 10             	mov    %rdx,(%rax)
    3067:	90                   	nop
    3068:	5d                   	pop    %rbp
    3069:	c3                   	retq   

000000000000306a <_ZSt18uninitialized_copyISt13move_iteratorIPSt4pairIiiEES3_ET0_T_S6_S5_>:
    306a:	55                   	push   %rbp
    306b:	48 89 e5             	mov    %rsp,%rbp
    306e:	48 83 ec 30          	sub    $0x30,%rsp
    3072:	48 89 7d e8          	mov    %rdi,-0x18(%rbp)
    3076:	48 89 75 e0          	mov    %rsi,-0x20(%rbp)
    307a:	48 89 55 d8          	mov    %rdx,-0x28(%rbp)
    307e:	c6 45 ff 01          	movb   $0x1,-0x1(%rbp)
    3082:	48 8b 55 d8          	mov    -0x28(%rbp),%rdx
    3086:	48 8b 4d e0          	mov    -0x20(%rbp),%rcx
    308a:	48 8b 45 e8          	mov    -0x18(%rbp),%rax
    308e:	48 89 ce             	mov    %rcx,%rsi
    3091:	48 89 c7             	mov    %rax,%rdi
    3094:	e8 b9 03 00 00       	callq  3452 <_ZNSt20__uninitialized_copyILb0EE13__uninit_copyISt13move_iteratorIPSt4pairIiiEES5_EET0_T_S8_S7_>
    3099:	c9                   	leaveq 
    309a:	c3                   	retq   

000000000000309b <_ZSt11__make_heapIN9__gnu_cxx17__normal_iteratorIPSt4pairIiiESt6vectorIS3_SaIS3_EEEENS0_5__ops15_Iter_less_iterEEvT_SB_RT0_>:
    309b:	55                   	push   %rbp
    309c:	48 89 e5             	mov    %rsp,%rbp
    309f:	48 83 ec 40          	sub    $0x40,%rsp
    30a3:	48 89 7d d8          	mov    %rdi,-0x28(%rbp)
    30a7:	48 89 75 d0          	mov    %rsi,-0x30(%rbp)
    30ab:	48 89 55 c8          	mov    %rdx,-0x38(%rbp)
    30af:	48 8d 55 d8          	lea    -0x28(%rbp),%rdx
    30b3:	48 8d 45 d0          	lea    -0x30(%rbp),%rax
    30b7:	48 89 d6             	mov    %rdx,%rsi
    30ba:	48 89 c7             	mov    %rax,%rdi
    30bd:	e8 57 f2 ff ff       	callq  2319 <_ZN9__gnu_cxxmiIPSt4pairIiiESt6vectorIS2_SaIS2_EEEENS_17__normal_iteratorIT_T0_E15difference_typeERKSA_SD_>
    30c2:	48 83 f8 01          	cmp    $0x1,%rax
    30c6:	0f 9e c0             	setle  %al
    30c9:	84 c0                	test   %al,%al
    30cb:	0f 85 96 00 00 00    	jne    3167 <_ZSt11__make_heapIN9__gnu_cxx17__normal_iteratorIPSt4pairIiiESt6vectorIS3_SaIS3_EEEENS0_5__ops15_Iter_less_iterEEvT_SB_RT0_+0xcc>
    30d1:	48 8d 55 d8          	lea    -0x28(%rbp),%rdx
    30d5:	48 8d 45 d0          	lea    -0x30(%rbp),%rax
    30d9:	48 89 d6             	mov    %rdx,%rsi
    30dc:	48 89 c7             	mov    %rax,%rdi
    30df:	e8 35 f2 ff ff       	callq  2319 <_ZN9__gnu_cxxmiIPSt4pairIiiESt6vectorIS2_SaIS2_EEEENS_17__normal_iteratorIT_T0_E15difference_typeERKSA_SD_>
    30e4:	48 89 45 f0          	mov    %rax,-0x10(%rbp)
    30e8:	48 8b 45 f0          	mov    -0x10(%rbp),%rax
    30ec:	48 83 e8 02          	sub    $0x2,%rax
    30f0:	48 89 c2             	mov    %rax,%rdx
    30f3:	48 c1 ea 3f          	shr    $0x3f,%rdx
    30f7:	48 01 d0             	add    %rdx,%rax
    30fa:	48 d1 f8             	sar    %rax
    30fd:	48 89 45 f8          	mov    %rax,-0x8(%rbp)
    3101:	48 8b 55 f8          	mov    -0x8(%rbp),%rdx
    3105:	48 8d 45 d8          	lea    -0x28(%rbp),%rax
    3109:	48 89 d6             	mov    %rdx,%rsi
    310c:	48 89 c7             	mov    %rax,%rdi
    310f:	e8 b8 f6 ff ff       	callq  27cc <_ZNK9__gnu_cxx17__normal_iteratorIPSt4pairIiiESt6vectorIS2_SaIS2_EEEplEl>
    3114:	48 89 45 e8          	mov    %rax,-0x18(%rbp)
    3118:	48 8d 45 e8          	lea    -0x18(%rbp),%rax
    311c:	48 89 c7             	mov    %rax,%rdi
    311f:	e8 cc fc ff ff       	callq  2df0 <_ZNK9__gnu_cxx17__normal_iteratorIPSt4pairIiiESt6vectorIS2_SaIS2_EEEdeEv>
    3124:	48 89 c7             	mov    %rax,%rdi
    3127:	e8 9a ec ff ff       	callq  1dc6 <_ZSt4moveIRSt4pairIiiEEONSt16remove_referenceIT_E4typeEOS4_>
    312c:	48 8b 00             	mov    (%rax),%rax
    312f:	48 89 45 e0          	mov    %rax,-0x20(%rbp)
    3133:	48 8d 45 e0          	lea    -0x20(%rbp),%rax
    3137:	48 89 c7             	mov    %rax,%rdi
    313a:	e8 87 ec ff ff       	callq  1dc6 <_ZSt4moveIRSt4pairIiiEEONSt16remove_referenceIT_E4typeEOS4_>
    313f:	48 89 c1             	mov    %rax,%rcx
    3142:	48 8b 55 f0          	mov    -0x10(%rbp),%rdx
    3146:	48 8b 75 f8          	mov    -0x8(%rbp),%rsi
    314a:	48 8b 45 d8          	mov    -0x28(%rbp),%rax
    314e:	48 8b 09             	mov    (%rcx),%rcx
    3151:	48 89 c7             	mov    %rax,%rdi
    3154:	e8 a6 03 00 00       	callq  34ff <_ZSt13__adjust_heapIN9__gnu_cxx17__normal_iteratorIPSt4pairIiiESt6vectorIS3_SaIS3_EEEElS3_NS0_5__ops15_Iter_less_iterEEvT_T0_SC_T1_T2_>
    3159:	48 83 7d f8 00       	cmpq   $0x0,-0x8(%rbp)
    315e:	74 0a                	je     316a <_ZSt11__make_heapIN9__gnu_cxx17__normal_iteratorIPSt4pairIiiESt6vectorIS3_SaIS3_EEEENS0_5__ops15_Iter_less_iterEEvT_SB_RT0_+0xcf>
    3160:	48 83 6d f8 01       	subq   $0x1,-0x8(%rbp)
    3165:	eb 9a                	jmp    3101 <_ZSt11__make_heapIN9__gnu_cxx17__normal_iteratorIPSt4pairIiiESt6vectorIS3_SaIS3_EEEENS0_5__ops15_Iter_less_iterEEvT_SB_RT0_+0x66>
    3167:	90                   	nop
    3168:	eb 01                	jmp    316b <_ZSt11__make_heapIN9__gnu_cxx17__normal_iteratorIPSt4pairIiiESt6vectorIS3_SaIS3_EEEENS0_5__ops15_Iter_less_iterEEvT_SB_RT0_+0xd0>
    316a:	90                   	nop
    316b:	c9                   	leaveq 
    316c:	c3                   	retq   

000000000000316d <_ZN9__gnu_cxxltIPSt4pairIiiESt6vectorIS2_SaIS2_EEEEbRKNS_17__normal_iteratorIT_T0_EESC_>:
    316d:	55                   	push   %rbp
    316e:	48 89 e5             	mov    %rsp,%rbp
    3171:	53                   	push   %rbx
    3172:	48 83 ec 18          	sub    $0x18,%rsp
    3176:	48 89 7d e8          	mov    %rdi,-0x18(%rbp)
    317a:	48 89 75 e0          	mov    %rsi,-0x20(%rbp)
    317e:	48 8b 45 e8          	mov    -0x18(%rbp),%rax
    3182:	48 89 c7             	mov    %rax,%rdi
    3185:	e8 c4 f4 ff ff       	callq  264e <_ZNK9__gnu_cxx17__normal_iteratorIPSt4pairIiiESt6vectorIS2_SaIS2_EEE4baseEv>
    318a:	48 8b 18             	mov    (%rax),%rbx
    318d:	48 8b 45 e0          	mov    -0x20(%rbp),%rax
    3191:	48 89 c7             	mov    %rax,%rdi
    3194:	e8 b5 f4 ff ff       	callq  264e <_ZNK9__gnu_cxx17__normal_iteratorIPSt4pairIiiESt6vectorIS2_SaIS2_EEE4baseEv>
    3199:	48 8b 00             	mov    (%rax),%rax
    319c:	48 39 c3             	cmp    %rax,%rbx
    319f:	0f 92 c0             	setb   %al
    31a2:	48 83 c4 18          	add    $0x18,%rsp
    31a6:	5b                   	pop    %rbx
    31a7:	5d                   	pop    %rbp
    31a8:	c3                   	retq   

00000000000031a9 <_ZSt10__pop_heapIN9__gnu_cxx17__normal_iteratorIPSt4pairIiiESt6vectorIS3_SaIS3_EEEENS0_5__ops15_Iter_less_iterEEvT_SB_SB_RT0_>:
    31a9:	55                   	push   %rbp
    31aa:	48 89 e5             	mov    %rsp,%rbp
    31ad:	53                   	push   %rbx
    31ae:	48 83 ec 38          	sub    $0x38,%rsp
    31b2:	48 89 7d d8          	mov    %rdi,-0x28(%rbp)
    31b6:	48 89 75 d0          	mov    %rsi,-0x30(%rbp)
    31ba:	48 89 55 c8          	mov    %rdx,-0x38(%rbp)
    31be:	48 89 4d c0          	mov    %rcx,-0x40(%rbp)
    31c2:	48 8d 45 c8          	lea    -0x38(%rbp),%rax
    31c6:	48 89 c7             	mov    %rax,%rdi
    31c9:	e8 22 fc ff ff       	callq  2df0 <_ZNK9__gnu_cxx17__normal_iteratorIPSt4pairIiiESt6vectorIS2_SaIS2_EEEdeEv>
    31ce:	48 89 c7             	mov    %rax,%rdi
    31d1:	e8 f0 eb ff ff       	callq  1dc6 <_ZSt4moveIRSt4pairIiiEEONSt16remove_referenceIT_E4typeEOS4_>
    31d6:	48 8b 00             	mov    (%rax),%rax
    31d9:	48 89 45 e8          	mov    %rax,-0x18(%rbp)
    31dd:	48 8d 45 d8          	lea    -0x28(%rbp),%rax
    31e1:	48 89 c7             	mov    %rax,%rdi
    31e4:	e8 07 fc ff ff       	callq  2df0 <_ZNK9__gnu_cxx17__normal_iteratorIPSt4pairIiiESt6vectorIS2_SaIS2_EEEdeEv>
    31e9:	48 89 c7             	mov    %rax,%rdi
    31ec:	e8 d5 eb ff ff       	callq  1dc6 <_ZSt4moveIRSt4pairIiiEEONSt16remove_referenceIT_E4typeEOS4_>
    31f1:	48 89 c3             	mov    %rax,%rbx
    31f4:	48 8d 45 c8          	lea    -0x38(%rbp),%rax
    31f8:	48 89 c7             	mov    %rax,%rdi
    31fb:	e8 f0 fb ff ff       	callq  2df0 <_ZNK9__gnu_cxx17__normal_iteratorIPSt4pairIiiESt6vectorIS2_SaIS2_EEEdeEv>
    3200:	48 89 de             	mov    %rbx,%rsi
    3203:	48 89 c7             	mov    %rax,%rdi
    3206:	e8 43 fc ff ff       	callq  2e4e <_ZNSt4pairIiiEaSEOS0_>
    320b:	48 8d 45 e8          	lea    -0x18(%rbp),%rax
    320f:	48 89 c7             	mov    %rax,%rdi
    3212:	e8 af eb ff ff       	callq  1dc6 <_ZSt4moveIRSt4pairIiiEEONSt16remove_referenceIT_E4typeEOS4_>
    3217:	48 89 c3             	mov    %rax,%rbx
    321a:	48 8d 55 d8          	lea    -0x28(%rbp),%rdx
    321e:	48 8d 45 d0          	lea    -0x30(%rbp),%rax
    3222:	48 89 d6             	mov    %rdx,%rsi
    3225:	48 89 c7             	mov    %rax,%rdi
    3228:	e8 ec f0 ff ff       	callq  2319 <_ZN9__gnu_cxxmiIPSt4pairIiiESt6vectorIS2_SaIS2_EEEENS_17__normal_iteratorIT_T0_E15difference_typeERKSA_SD_>
    322d:	48 89 c2             	mov    %rax,%rdx
    3230:	48 8b 45 d8          	mov    -0x28(%rbp),%rax
    3234:	48 8b 0b             	mov    (%rbx),%rcx
    3237:	be 00 00 00 00       	mov    $0x0,%esi
    323c:	48 89 c7             	mov    %rax,%rdi
    323f:	e8 bb 02 00 00       	callq  34ff <_ZSt13__adjust_heapIN9__gnu_cxx17__normal_iteratorIPSt4pairIiiESt6vectorIS3_SaIS3_EEEElS3_NS0_5__ops15_Iter_less_iterEEvT_T0_SC_T1_T2_>
    3244:	90                   	nop
    3245:	48 83 c4 38          	add    $0x38,%rsp
    3249:	5b                   	pop    %rbx
    324a:	5d                   	pop    %rbp
    324b:	c3                   	retq   

000000000000324c <_ZN9__gnu_cxx17__normal_iteratorIPSt4pairIiiESt6vectorIS2_SaIS2_EEEmmEv>:
    324c:	55                   	push   %rbp
    324d:	48 89 e5             	mov    %rsp,%rbp
    3250:	48 89 7d f8          	mov    %rdi,-0x8(%rbp)
    3254:	48 8b 45 f8          	mov    -0x8(%rbp),%rax
    3258:	48 8b 00             	mov    (%rax),%rax
    325b:	48 8d 50 f8          	lea    -0x8(%rax),%rdx
    325f:	48 8b 45 f8          	mov    -0x8(%rbp),%rax
    3263:	48 89 10             	mov    %rdx,(%rax)
    3266:	48 8b 45 f8          	mov    -0x8(%rbp),%rax
    326a:	5d                   	pop    %rbp
    326b:	c3                   	retq   

000000000000326c <_ZStltIiiEbRKSt4pairIT_T0_ES5_>:
    326c:	55                   	push   %rbp
    326d:	48 89 e5             	mov    %rsp,%rbp
    3270:	48 89 7d f8          	mov    %rdi,-0x8(%rbp)
    3274:	48 89 75 f0          	mov    %rsi,-0x10(%rbp)
    3278:	48 8b 45 f8          	mov    -0x8(%rbp),%rax
    327c:	8b 10                	mov    (%rax),%edx
    327e:	48 8b 45 f0          	mov    -0x10(%rbp),%rax
    3282:	8b 00                	mov    (%rax),%eax
    3284:	39 c2                	cmp    %eax,%edx
    3286:	7c 22                	jl     32aa <_ZStltIiiEbRKSt4pairIT_T0_ES5_+0x3e>
    3288:	48 8b 45 f0          	mov    -0x10(%rbp),%rax
    328c:	8b 10                	mov    (%rax),%edx
    328e:	48 8b 45 f8          	mov    -0x8(%rbp),%rax
    3292:	8b 00                	mov    (%rax),%eax
    3294:	39 c2                	cmp    %eax,%edx
    3296:	7c 19                	jl     32b1 <_ZStltIiiEbRKSt4pairIT_T0_ES5_+0x45>
    3298:	48 8b 45 f8          	mov    -0x8(%rbp),%rax
    329c:	8b 50 04             	mov    0x4(%rax),%edx
    329f:	48 8b 45 f0          	mov    -0x10(%rbp),%rax
    32a3:	8b 40 04             	mov    0x4(%rax),%eax
    32a6:	39 c2                	cmp    %eax,%edx
    32a8:	7d 07                	jge    32b1 <_ZStltIiiEbRKSt4pairIT_T0_ES5_+0x45>
    32aa:	b8 01 00 00 00       	mov    $0x1,%eax
    32af:	eb 05                	jmp    32b6 <_ZStltIiiEbRKSt4pairIT_T0_ES5_+0x4a>
    32b1:	b8 00 00 00 00       	mov    $0x0,%eax
    32b6:	5d                   	pop    %rbp
    32b7:	c3                   	retq   

00000000000032b8 <_ZSt9iter_swapIN9__gnu_cxx17__normal_iteratorIPSt4pairIiiESt6vectorIS3_SaIS3_EEEES8_EvT_T0_>:
    32b8:	55                   	push   %rbp
    32b9:	48 89 e5             	mov    %rsp,%rbp
    32bc:	53                   	push   %rbx
    32bd:	48 83 ec 18          	sub    $0x18,%rsp
    32c1:	48 89 7d e8          	mov    %rdi,-0x18(%rbp)
    32c5:	48 89 75 e0          	mov    %rsi,-0x20(%rbp)
    32c9:	48 8d 45 e0          	lea    -0x20(%rbp),%rax
    32cd:	48 89 c7             	mov    %rax,%rdi
    32d0:	e8 1b fb ff ff       	callq  2df0 <_ZNK9__gnu_cxx17__normal_iteratorIPSt4pairIiiESt6vectorIS2_SaIS2_EEEdeEv>
    32d5:	48 89 c3             	mov    %rax,%rbx
    32d8:	48 8d 45 e8          	lea    -0x18(%rbp),%rax
    32dc:	48 89 c7             	mov    %rax,%rdi
    32df:	e8 0c fb ff ff       	callq  2df0 <_ZNK9__gnu_cxx17__normal_iteratorIPSt4pairIiiESt6vectorIS2_SaIS2_EEEdeEv>
    32e4:	48 89 de             	mov    %rbx,%rsi
    32e7:	48 89 c7             	mov    %rax,%rdi
    32ea:	e8 0e 04 00 00       	callq  36fd <_ZSt4swapIiiENSt9enable_ifIXsrSt6__and_IJSt14__is_swappableIT_ES2_IT0_EEE5valueEvE4typeERSt4pairIS3_S5_ESC_>
    32ef:	90                   	nop
    32f0:	48 83 c4 18          	add    $0x18,%rsp
    32f4:	5b                   	pop    %rbx
    32f5:	5d                   	pop    %rbp
    32f6:	c3                   	retq   

00000000000032f7 <_ZSt12__miter_baseIN9__gnu_cxx17__normal_iteratorIPSt4pairIiiESt6vectorIS3_SaIS3_EEEEET_S9_>:
    32f7:	55                   	push   %rbp
    32f8:	48 89 e5             	mov    %rsp,%rbp
    32fb:	48 89 7d f8          	mov    %rdi,-0x8(%rbp)
    32ff:	48 8b 45 f8          	mov    -0x8(%rbp),%rax
    3303:	5d                   	pop    %rbp
    3304:	c3                   	retq   

0000000000003305 <_ZSt23__copy_move_backward_a2ILb1EN9__gnu_cxx17__normal_iteratorIPSt4pairIiiESt6vectorIS3_SaIS3_EEEES8_ET1_T0_SA_S9_>:
    3305:	55                   	push   %rbp
    3306:	48 89 e5             	mov    %rsp,%rbp
    3309:	41 54                	push   %r12
    330b:	53                   	push   %rbx
    330c:	48 83 ec 20          	sub    $0x20,%rsp
    3310:	48 89 7d e8          	mov    %rdi,-0x18(%rbp)
    3314:	48 89 75 e0          	mov    %rsi,-0x20(%rbp)
    3318:	48 89 55 d8          	mov    %rdx,-0x28(%rbp)
    331c:	48 8b 45 d8          	mov    -0x28(%rbp),%rax
    3320:	48 89 c7             	mov    %rax,%rdi
    3323:	e8 fb 03 00 00       	callq  3723 <_ZSt12__niter_baseIPSt4pairIiiESt6vectorIS1_SaIS1_EEET_N9__gnu_cxx17__normal_iteratorIS6_T0_EE>
    3328:	49 89 c4             	mov    %rax,%r12
    332b:	48 8b 45 e0          	mov    -0x20(%rbp),%rax
    332f:	48 89 c7             	mov    %rax,%rdi
    3332:	e8 ec 03 00 00       	callq  3723 <_ZSt12__niter_baseIPSt4pairIiiESt6vectorIS1_SaIS1_EEET_N9__gnu_cxx17__normal_iteratorIS6_T0_EE>
    3337:	48 89 c3             	mov    %rax,%rbx
    333a:	48 8b 45 e8          	mov    -0x18(%rbp),%rax
    333e:	48 89 c7             	mov    %rax,%rdi
    3341:	e8 dd 03 00 00       	callq  3723 <_ZSt12__niter_baseIPSt4pairIiiESt6vectorIS1_SaIS1_EEET_N9__gnu_cxx17__normal_iteratorIS6_T0_EE>
    3346:	4c 89 e2             	mov    %r12,%rdx
    3349:	48 89 de             	mov    %rbx,%rsi
    334c:	48 89 c7             	mov    %rax,%rdi
    334f:	e8 ec 03 00 00       	callq  3740 <_ZSt22__copy_move_backward_aILb1EPSt4pairIiiES2_ET1_T0_S4_S3_>
    3354:	48 89 c2             	mov    %rax,%rdx
    3357:	48 8b 45 d8          	mov    -0x28(%rbp),%rax
    335b:	48 89 d6             	mov    %rdx,%rsi
    335e:	48 89 c7             	mov    %rax,%rdi
    3361:	e8 0b 04 00 00       	callq  3771 <_ZSt12__niter_wrapIN9__gnu_cxx17__normal_iteratorIPSt4pairIiiESt6vectorIS3_SaIS3_EEEES4_ET_S9_T0_>
    3366:	48 83 c4 20          	add    $0x20,%rsp
    336a:	5b                   	pop    %rbx
    336b:	41 5c                	pop    %r12
    336d:	5d                   	pop    %rbp
    336e:	c3                   	retq   
    336f:	90                   	nop

0000000000003370 <_ZNK9__gnu_cxx5__ops14_Val_less_iterclISt4pairIiiENS_17__normal_iteratorIPS4_St6vectorIS4_SaIS4_EEEEEEbRT_T0_>:
    3370:	55                   	push   %rbp
    3371:	48 89 e5             	mov    %rsp,%rbp
    3374:	48 83 ec 20          	sub    $0x20,%rsp
    3378:	48 89 7d f8          	mov    %rdi,-0x8(%rbp)
    337c:	48 89 75 f0          	mov    %rsi,-0x10(%rbp)
    3380:	48 89 55 e8          	mov    %rdx,-0x18(%rbp)
    3384:	48 8d 45 e8          	lea    -0x18(%rbp),%rax
    3388:	48 89 c7             	mov    %rax,%rdi
    338b:	e8 60 fa ff ff       	callq  2df0 <_ZNK9__gnu_cxx17__normal_iteratorIPSt4pairIiiESt6vectorIS2_SaIS2_EEEdeEv>
    3390:	48 89 c2             	mov    %rax,%rdx
    3393:	48 8b 45 f0          	mov    -0x10(%rbp),%rax
    3397:	48 89 d6             	mov    %rdx,%rsi
    339a:	48 89 c7             	mov    %rax,%rdi
    339d:	e8 ca fe ff ff       	callq  326c <_ZStltIiiEbRKSt4pairIT_T0_ES5_>
    33a2:	c9                   	leaveq 
    33a3:	c3                   	retq   

00000000000033a4 <_ZNSt16allocator_traitsISaISt4pairIiiEEE8max_sizeERKS2_>:
    33a4:	55                   	push   %rbp
    33a5:	48 89 e5             	mov    %rsp,%rbp
    33a8:	48 83 ec 10          	sub    $0x10,%rsp
    33ac:	48 89 7d f8          	mov    %rdi,-0x8(%rbp)
    33b0:	48 8b 45 f8          	mov    -0x8(%rbp),%rax
    33b4:	48 89 c7             	mov    %rax,%rdi
    33b7:	e8 02 00 00 00       	callq  33be <_ZNK9__gnu_cxx13new_allocatorISt4pairIiiEE8max_sizeEv>
    33bc:	c9                   	leaveq 
    33bd:	c3                   	retq   

00000000000033be <_ZNK9__gnu_cxx13new_allocatorISt4pairIiiEE8max_sizeEv>:
    33be:	55                   	push   %rbp
    33bf:	48 89 e5             	mov    %rsp,%rbp
    33c2:	48 89 7d f8          	mov    %rdi,-0x8(%rbp)
    33c6:	48 b8 ff ff ff ff ff 	movabs $0xfffffffffffffff,%rax
    33cd:	ff ff 0f 
    33d0:	5d                   	pop    %rbp
    33d1:	c3                   	retq   

00000000000033d2 <_ZSt12__niter_baseIPSt4pairIiiEET_S3_>:
    33d2:	55                   	push   %rbp
    33d3:	48 89 e5             	mov    %rsp,%rbp
    33d6:	48 89 7d f8          	mov    %rdi,-0x8(%rbp)
    33da:	48 8b 45 f8          	mov    -0x8(%rbp),%rax
    33de:	5d                   	pop    %rbp
    33df:	c3                   	retq   

00000000000033e0 <_ZSt14__relocate_a_1IPSt4pairIiiES2_SaIS1_EET0_T_S5_S4_RT1_>:
    33e0:	55                   	push   %rbp
    33e1:	48 89 e5             	mov    %rsp,%rbp
    33e4:	53                   	push   %rbx
    33e5:	48 83 ec 38          	sub    $0x38,%rsp
    33e9:	48 89 7d d8          	mov    %rdi,-0x28(%rbp)
    33ed:	48 89 75 d0          	mov    %rsi,-0x30(%rbp)
    33f1:	48 89 55 c8          	mov    %rdx,-0x38(%rbp)
    33f5:	48 89 4d c0          	mov    %rcx,-0x40(%rbp)
    33f9:	48 8b 45 c8          	mov    -0x38(%rbp),%rax
    33fd:	48 89 45 e8          	mov    %rax,-0x18(%rbp)
    3401:	48 8b 45 d8          	mov    -0x28(%rbp),%rax
    3405:	48 3b 45 d0          	cmp    -0x30(%rbp),%rax
    3409:	74 3c                	je     3447 <_ZSt14__relocate_a_1IPSt4pairIiiES2_SaIS1_EET0_T_S5_S4_RT1_+0x67>
    340b:	48 8b 45 d8          	mov    -0x28(%rbp),%rax
    340f:	48 89 c7             	mov    %rax,%rdi
    3412:	e8 98 03 00 00       	callq  37af <_ZSt11__addressofISt4pairIiiEEPT_RS2_>
    3417:	48 89 c3             	mov    %rax,%rbx
    341a:	48 8b 45 e8          	mov    -0x18(%rbp),%rax
    341e:	48 89 c7             	mov    %rax,%rdi
    3421:	e8 89 03 00 00       	callq  37af <_ZSt11__addressofISt4pairIiiEEPT_RS2_>
    3426:	48 89 c1             	mov    %rax,%rcx
    3429:	48 8b 45 c0          	mov    -0x40(%rbp),%rax
    342d:	48 89 c2             	mov    %rax,%rdx
    3430:	48 89 de             	mov    %rbx,%rsi
    3433:	48 89 cf             	mov    %rcx,%rdi
    3436:	e8 82 03 00 00       	callq  37bd <_ZSt19__relocate_object_aISt4pairIiiES1_SaIS1_EEvPT_PT0_RT1_>
    343b:	48 83 45 d8 08       	addq   $0x8,-0x28(%rbp)
    3440:	48 83 45 e8 08       	addq   $0x8,-0x18(%rbp)
    3445:	eb ba                	jmp    3401 <_ZSt14__relocate_a_1IPSt4pairIiiES2_SaIS1_EET0_T_S5_S4_RT1_+0x21>
    3447:	48 8b 45 e8          	mov    -0x18(%rbp),%rax
    344b:	48 83 c4 38          	add    $0x38,%rsp
    344f:	5b                   	pop    %rbx
    3450:	5d                   	pop    %rbp
    3451:	c3                   	retq   

0000000000003452 <_ZNSt20__uninitialized_copyILb0EE13__uninit_copyISt13move_iteratorIPSt4pairIiiEES5_EET0_T_S8_S7_>:
    3452:	55                   	push   %rbp
    3453:	48 89 e5             	mov    %rsp,%rbp
    3456:	53                   	push   %rbx
    3457:	48 83 ec 38          	sub    $0x38,%rsp
    345b:	48 89 7d d8          	mov    %rdi,-0x28(%rbp)
    345f:	48 89 75 d0          	mov    %rsi,-0x30(%rbp)
    3463:	48 89 55 c8          	mov    %rdx,-0x38(%rbp)
    3467:	48 8b 45 c8          	mov    -0x38(%rbp),%rax
    346b:	48 89 45 e8          	mov    %rax,-0x18(%rbp)
    346f:	48 8d 55 d0          	lea    -0x30(%rbp),%rdx
    3473:	48 8d 45 d8          	lea    -0x28(%rbp),%rax
    3477:	48 89 d6             	mov    %rdx,%rsi
    347a:	48 89 c7             	mov    %rax,%rdi
    347d:	e8 92 03 00 00       	callq  3814 <_ZStneIPSt4pairIiiEEbRKSt13move_iteratorIT_ES7_>
    3482:	84 c0                	test   %al,%al
    3484:	74 39                	je     34bf <_ZNSt20__uninitialized_copyILb0EE13__uninit_copyISt13move_iteratorIPSt4pairIiiEES5_EET0_T_S8_S7_+0x6d>
    3486:	48 8d 45 d8          	lea    -0x28(%rbp),%rax
    348a:	48 89 c7             	mov    %rax,%rdi
    348d:	e8 ca 03 00 00       	callq  385c <_ZNKSt13move_iteratorIPSt4pairIiiEEdeEv>
    3492:	48 89 c3             	mov    %rax,%rbx
    3495:	48 8b 45 e8          	mov    -0x18(%rbp),%rax
    3499:	48 89 c7             	mov    %rax,%rdi
    349c:	e8 0e 03 00 00       	callq  37af <_ZSt11__addressofISt4pairIiiEEPT_RS2_>
    34a1:	48 89 de             	mov    %rbx,%rsi
    34a4:	48 89 c7             	mov    %rax,%rdi
    34a7:	e8 c1 03 00 00       	callq  386d <_ZSt10_ConstructISt4pairIiiEJS1_EEvPT_DpOT0_>
    34ac:	48 8d 45 d8          	lea    -0x28(%rbp),%rax
    34b0:	48 89 c7             	mov    %rax,%rdi
    34b3:	e8 84 03 00 00       	callq  383c <_ZNSt13move_iteratorIPSt4pairIiiEEppEv>
    34b8:	48 83 45 e8 08       	addq   $0x8,-0x18(%rbp)
    34bd:	eb b0                	jmp    346f <_ZNSt20__uninitialized_copyILb0EE13__uninit_copyISt13move_iteratorIPSt4pairIiiEES5_EET0_T_S8_S7_+0x1d>
    34bf:	48 8b 45 e8          	mov    -0x18(%rbp),%rax
    34c3:	eb 33                	jmp    34f8 <_ZNSt20__uninitialized_copyILb0EE13__uninit_copyISt13move_iteratorIPSt4pairIiiEES5_EET0_T_S8_S7_+0xa6>
    34c5:	48 89 c7             	mov    %rax,%rdi
    34c8:	e8 73 db ff ff       	callq  1040 <__cxa_begin_catch@plt>
    34cd:	48 8b 55 e8          	mov    -0x18(%rbp),%rdx
    34d1:	48 8b 45 c8          	mov    -0x38(%rbp),%rax
    34d5:	48 89 d6             	mov    %rdx,%rsi
    34d8:	48 89 c7             	mov    %rax,%rdi
    34db:	e8 53 ea ff ff       	callq  1f33 <_ZSt8_DestroyIPSt4pairIiiEEvT_S3_>
    34e0:	e8 1b dc ff ff       	callq  1100 <__cxa_rethrow@plt>
    34e5:	48 89 c3             	mov    %rax,%rbx
    34e8:	e8 33 dc ff ff       	callq  1120 <__cxa_end_catch@plt>
    34ed:	48 89 d8             	mov    %rbx,%rax
    34f0:	48 89 c7             	mov    %rax,%rdi
    34f3:	e8 38 dc ff ff       	callq  1130 <_Unwind_Resume@plt>
    34f8:	48 83 c4 38          	add    $0x38,%rsp
    34fc:	5b                   	pop    %rbx
    34fd:	5d                   	pop    %rbp
    34fe:	c3                   	retq   

00000000000034ff <_ZSt13__adjust_heapIN9__gnu_cxx17__normal_iteratorIPSt4pairIiiESt6vectorIS3_SaIS3_EEEElS3_NS0_5__ops15_Iter_less_iterEEvT_T0_SC_T1_T2_>:
    34ff:	55                   	push   %rbp
    3500:	48 89 e5             	mov    %rsp,%rbp
    3503:	53                   	push   %rbx
    3504:	48 83 ec 78          	sub    $0x78,%rsp
    3508:	48 89 7d a8          	mov    %rdi,-0x58(%rbp)
    350c:	48 89 75 a0          	mov    %rsi,-0x60(%rbp)
    3510:	48 89 55 98          	mov    %rdx,-0x68(%rbp)
    3514:	48 89 4d 90          	mov    %rcx,-0x70(%rbp)
    3518:	48 8b 45 a0          	mov    -0x60(%rbp),%rax
    351c:	48 89 45 e0          	mov    %rax,-0x20(%rbp)
    3520:	48 8b 45 a0          	mov    -0x60(%rbp),%rax
    3524:	48 89 45 e8          	mov    %rax,-0x18(%rbp)
    3528:	48 8b 45 98          	mov    -0x68(%rbp),%rax
    352c:	48 83 e8 01          	sub    $0x1,%rax
    3530:	48 89 c2             	mov    %rax,%rdx
    3533:	48 c1 ea 3f          	shr    $0x3f,%rdx
    3537:	48 01 d0             	add    %rdx,%rax
    353a:	48 d1 f8             	sar    %rax
    353d:	48 39 45 e8          	cmp    %rax,-0x18(%rbp)
    3541:	0f 8d c3 00 00 00    	jge    360a <_ZSt13__adjust_heapIN9__gnu_cxx17__normal_iteratorIPSt4pairIiiESt6vectorIS3_SaIS3_EEEElS3_NS0_5__ops15_Iter_less_iterEEvT_T0_SC_T1_T2_+0x10b>
    3547:	48 8b 45 e8          	mov    -0x18(%rbp),%rax
    354b:	48 83 c0 01          	add    $0x1,%rax
    354f:	48 01 c0             	add    %rax,%rax
    3552:	48 89 45 e8          	mov    %rax,-0x18(%rbp)
    3556:	48 8b 45 e8          	mov    -0x18(%rbp),%rax
    355a:	48 8d 50 ff          	lea    -0x1(%rax),%rdx
    355e:	48 8d 45 a8          	lea    -0x58(%rbp),%rax
    3562:	48 89 d6             	mov    %rdx,%rsi
    3565:	48 89 c7             	mov    %rax,%rdi
    3568:	e8 5f f2 ff ff       	callq  27cc <_ZNK9__gnu_cxx17__normal_iteratorIPSt4pairIiiESt6vectorIS2_SaIS2_EEEplEl>
    356d:	48 89 c3             	mov    %rax,%rbx
    3570:	48 8b 55 e8          	mov    -0x18(%rbp),%rdx
    3574:	48 8d 45 a8          	lea    -0x58(%rbp),%rax
    3578:	48 89 d6             	mov    %rdx,%rsi
    357b:	48 89 c7             	mov    %rax,%rdi
    357e:	e8 49 f2 ff ff       	callq  27cc <_ZNK9__gnu_cxx17__normal_iteratorIPSt4pairIiiESt6vectorIS2_SaIS2_EEEplEl>
    3583:	48 89 c1             	mov    %rax,%rcx
    3586:	48 8d 45 8f          	lea    -0x71(%rbp),%rax
    358a:	48 89 da             	mov    %rbx,%rdx
    358d:	48 89 ce             	mov    %rcx,%rsi
    3590:	48 89 c7             	mov    %rax,%rdi
    3593:	e8 de f5 ff ff       	callq  2b76 <_ZNK9__gnu_cxx5__ops15_Iter_less_iterclINS_17__normal_iteratorIPSt4pairIiiESt6vectorIS5_SaIS5_EEEESA_EEbT_T0_>
    3598:	84 c0                	test   %al,%al
    359a:	74 05                	je     35a1 <_ZSt13__adjust_heapIN9__gnu_cxx17__normal_iteratorIPSt4pairIiiESt6vectorIS3_SaIS3_EEEElS3_NS0_5__ops15_Iter_less_iterEEvT_T0_SC_T1_T2_+0xa2>
    359c:	48 83 6d e8 01       	subq   $0x1,-0x18(%rbp)
    35a1:	48 8b 55 e8          	mov    -0x18(%rbp),%rdx
    35a5:	48 8d 45 a8          	lea    -0x58(%rbp),%rax
    35a9:	48 89 d6             	mov    %rdx,%rsi
    35ac:	48 89 c7             	mov    %rax,%rdi
    35af:	e8 18 f2 ff ff       	callq  27cc <_ZNK9__gnu_cxx17__normal_iteratorIPSt4pairIiiESt6vectorIS2_SaIS2_EEEplEl>
    35b4:	48 89 45 c0          	mov    %rax,-0x40(%rbp)
    35b8:	48 8d 45 c0          	lea    -0x40(%rbp),%rax
    35bc:	48 89 c7             	mov    %rax,%rdi
    35bf:	e8 2c f8 ff ff       	callq  2df0 <_ZNK9__gnu_cxx17__normal_iteratorIPSt4pairIiiESt6vectorIS2_SaIS2_EEEdeEv>
    35c4:	48 89 c7             	mov    %rax,%rdi
    35c7:	e8 fa e7 ff ff       	callq  1dc6 <_ZSt4moveIRSt4pairIiiEEONSt16remove_referenceIT_E4typeEOS4_>
    35cc:	48 89 c3             	mov    %rax,%rbx
    35cf:	48 8b 55 a0          	mov    -0x60(%rbp),%rdx
    35d3:	48 8d 45 a8          	lea    -0x58(%rbp),%rax
    35d7:	48 89 d6             	mov    %rdx,%rsi
    35da:	48 89 c7             	mov    %rax,%rdi
    35dd:	e8 ea f1 ff ff       	callq  27cc <_ZNK9__gnu_cxx17__normal_iteratorIPSt4pairIiiESt6vectorIS2_SaIS2_EEEplEl>
    35e2:	48 89 45 c8          	mov    %rax,-0x38(%rbp)
    35e6:	48 8d 45 c8          	lea    -0x38(%rbp),%rax
    35ea:	48 89 c7             	mov    %rax,%rdi
    35ed:	e8 fe f7 ff ff       	callq  2df0 <_ZNK9__gnu_cxx17__normal_iteratorIPSt4pairIiiESt6vectorIS2_SaIS2_EEEdeEv>
    35f2:	48 89 de             	mov    %rbx,%rsi
    35f5:	48 89 c7             	mov    %rax,%rdi
    35f8:	e8 51 f8 ff ff       	callq  2e4e <_ZNSt4pairIiiEaSEOS0_>
    35fd:	48 8b 45 e8          	mov    -0x18(%rbp),%rax
    3601:	48 89 45 a0          	mov    %rax,-0x60(%rbp)
    3605:	e9 1e ff ff ff       	jmpq   3528 <_ZSt13__adjust_heapIN9__gnu_cxx17__normal_iteratorIPSt4pairIiiESt6vectorIS3_SaIS3_EEEElS3_NS0_5__ops15_Iter_less_iterEEvT_T0_SC_T1_T2_+0x29>
    360a:	48 8b 45 98          	mov    -0x68(%rbp),%rax
    360e:	83 e0 01             	and    $0x1,%eax
    3611:	48 85 c0             	test   %rax,%rax
    3614:	0f 85 96 00 00 00    	jne    36b0 <_ZSt13__adjust_heapIN9__gnu_cxx17__normal_iteratorIPSt4pairIiiESt6vectorIS3_SaIS3_EEEElS3_NS0_5__ops15_Iter_less_iterEEvT_T0_SC_T1_T2_+0x1b1>
    361a:	48 8b 45 98          	mov    -0x68(%rbp),%rax
    361e:	48 83 e8 02          	sub    $0x2,%rax
    3622:	48 89 c2             	mov    %rax,%rdx
    3625:	48 c1 ea 3f          	shr    $0x3f,%rdx
    3629:	48 01 d0             	add    %rdx,%rax
    362c:	48 d1 f8             	sar    %rax
    362f:	48 39 45 e8          	cmp    %rax,-0x18(%rbp)
    3633:	75 7b                	jne    36b0 <_ZSt13__adjust_heapIN9__gnu_cxx17__normal_iteratorIPSt4pairIiiESt6vectorIS3_SaIS3_EEEElS3_NS0_5__ops15_Iter_less_iterEEvT_T0_SC_T1_T2_+0x1b1>
    3635:	48 8b 45 e8          	mov    -0x18(%rbp),%rax
    3639:	48 83 c0 01          	add    $0x1,%rax
    363d:	48 01 c0             	add    %rax,%rax
    3640:	48 89 45 e8          	mov    %rax,-0x18(%rbp)
    3644:	48 8b 45 e8          	mov    -0x18(%rbp),%rax
    3648:	48 8d 50 ff          	lea    -0x1(%rax),%rdx
    364c:	48 8d 45 a8          	lea    -0x58(%rbp),%rax
    3650:	48 89 d6             	mov    %rdx,%rsi
    3653:	48 89 c7             	mov    %rax,%rdi
    3656:	e8 71 f1 ff ff       	callq  27cc <_ZNK9__gnu_cxx17__normal_iteratorIPSt4pairIiiESt6vectorIS2_SaIS2_EEEplEl>
    365b:	48 89 45 d0          	mov    %rax,-0x30(%rbp)
    365f:	48 8d 45 d0          	lea    -0x30(%rbp),%rax
    3663:	48 89 c7             	mov    %rax,%rdi
    3666:	e8 85 f7 ff ff       	callq  2df0 <_ZNK9__gnu_cxx17__normal_iteratorIPSt4pairIiiESt6vectorIS2_SaIS2_EEEdeEv>
    366b:	48 89 c7             	mov    %rax,%rdi
    366e:	e8 53 e7 ff ff       	callq  1dc6 <_ZSt4moveIRSt4pairIiiEEONSt16remove_referenceIT_E4typeEOS4_>
    3673:	48 89 c3             	mov    %rax,%rbx
    3676:	48 8b 55 a0          	mov    -0x60(%rbp),%rdx
    367a:	48 8d 45 a8          	lea    -0x58(%rbp),%rax
    367e:	48 89 d6             	mov    %rdx,%rsi
    3681:	48 89 c7             	mov    %rax,%rdi
    3684:	e8 43 f1 ff ff       	callq  27cc <_ZNK9__gnu_cxx17__normal_iteratorIPSt4pairIiiESt6vectorIS2_SaIS2_EEEplEl>
    3689:	48 89 45 d8          	mov    %rax,-0x28(%rbp)
    368d:	48 8d 45 d8          	lea    -0x28(%rbp),%rax
    3691:	48 89 c7             	mov    %rax,%rdi
    3694:	e8 57 f7 ff ff       	callq  2df0 <_ZNK9__gnu_cxx17__normal_iteratorIPSt4pairIiiESt6vectorIS2_SaIS2_EEEdeEv>
    3699:	48 89 de             	mov    %rbx,%rsi
    369c:	48 89 c7             	mov    %rax,%rdi
    369f:	e8 aa f7 ff ff       	callq  2e4e <_ZNSt4pairIiiEaSEOS0_>
    36a4:	48 8b 45 e8          	mov    -0x18(%rbp),%rax
    36a8:	48 83 e8 01          	sub    $0x1,%rax
    36ac:	48 89 45 a0          	mov    %rax,-0x60(%rbp)
    36b0:	48 8d 45 8f          	lea    -0x71(%rbp),%rax
    36b4:	48 89 c7             	mov    %rax,%rdi
    36b7:	e8 f0 01 00 00       	callq  38ac <_ZSt4moveIRN9__gnu_cxx5__ops15_Iter_less_iterEEONSt16remove_referenceIT_E4typeEOS5_>
    36bc:	48 8d 45 bf          	lea    -0x41(%rbp),%rax
    36c0:	48 89 c7             	mov    %rax,%rdi
    36c3:	e8 b2 e0 ff ff       	callq  177a <_ZN9__gnu_cxx5__ops14_Iter_less_valC1ENS0_15_Iter_less_iterE>
    36c8:	48 8d 45 90          	lea    -0x70(%rbp),%rax
    36cc:	48 89 c7             	mov    %rax,%rdi
    36cf:	e8 f2 e6 ff ff       	callq  1dc6 <_ZSt4moveIRSt4pairIiiEEONSt16remove_referenceIT_E4typeEOS4_>
    36d4:	48 89 c1             	mov    %rax,%rcx
    36d7:	48 8d 7d bf          	lea    -0x41(%rbp),%rdi
    36db:	48 8b 55 e0          	mov    -0x20(%rbp),%rdx
    36df:	48 8b 75 a0          	mov    -0x60(%rbp),%rsi
    36e3:	48 8b 45 a8          	mov    -0x58(%rbp),%rax
    36e7:	49 89 f8             	mov    %rdi,%r8
    36ea:	48 8b 09             	mov    (%rcx),%rcx
    36ed:	48 89 c7             	mov    %rax,%rdi
    36f0:	e8 c5 01 00 00       	callq  38ba <_ZSt11__push_heapIN9__gnu_cxx17__normal_iteratorIPSt4pairIiiESt6vectorIS3_SaIS3_EEEElS3_NS0_5__ops14_Iter_less_valEEvT_T0_SC_T1_RT2_>
    36f5:	90                   	nop
    36f6:	48 83 c4 78          	add    $0x78,%rsp
    36fa:	5b                   	pop    %rbx
    36fb:	5d                   	pop    %rbp
    36fc:	c3                   	retq   

00000000000036fd <_ZSt4swapIiiENSt9enable_ifIXsrSt6__and_IJSt14__is_swappableIT_ES2_IT0_EEE5valueEvE4typeERSt4pairIS3_S5_ESC_>:
    36fd:	55                   	push   %rbp
    36fe:	48 89 e5             	mov    %rsp,%rbp
    3701:	48 83 ec 10          	sub    $0x10,%rsp
    3705:	48 89 7d f8          	mov    %rdi,-0x8(%rbp)
    3709:	48 89 75 f0          	mov    %rsi,-0x10(%rbp)
    370d:	48 8b 55 f0          	mov    -0x10(%rbp),%rdx
    3711:	48 8b 45 f8          	mov    -0x8(%rbp),%rax
    3715:	48 89 d6             	mov    %rdx,%rsi
    3718:	48 89 c7             	mov    %rax,%rdi
    371b:	e8 e2 02 00 00       	callq  3a02 <_ZNSt4pairIiiE4swapERS0_>
    3720:	90                   	nop
    3721:	c9                   	leaveq 
    3722:	c3                   	retq   

0000000000003723 <_ZSt12__niter_baseIPSt4pairIiiESt6vectorIS1_SaIS1_EEET_N9__gnu_cxx17__normal_iteratorIS6_T0_EE>:
    3723:	55                   	push   %rbp
    3724:	48 89 e5             	mov    %rsp,%rbp
    3727:	48 83 ec 10          	sub    $0x10,%rsp
    372b:	48 89 7d f8          	mov    %rdi,-0x8(%rbp)
    372f:	48 8d 45 f8          	lea    -0x8(%rbp),%rax
    3733:	48 89 c7             	mov    %rax,%rdi
    3736:	e8 13 ef ff ff       	callq  264e <_ZNK9__gnu_cxx17__normal_iteratorIPSt4pairIiiESt6vectorIS2_SaIS2_EEE4baseEv>
    373b:	48 8b 00             	mov    (%rax),%rax
    373e:	c9                   	leaveq 
    373f:	c3                   	retq   

0000000000003740 <_ZSt22__copy_move_backward_aILb1EPSt4pairIiiES2_ET1_T0_S4_S3_>:
    3740:	55                   	push   %rbp
    3741:	48 89 e5             	mov    %rsp,%rbp
    3744:	48 83 ec 30          	sub    $0x30,%rsp
    3748:	48 89 7d e8          	mov    %rdi,-0x18(%rbp)
    374c:	48 89 75 e0          	mov    %rsi,-0x20(%rbp)
    3750:	48 89 55 d8          	mov    %rdx,-0x28(%rbp)
    3754:	c6 45 ff 00          	movb   $0x0,-0x1(%rbp)
    3758:	48 8b 55 d8          	mov    -0x28(%rbp),%rdx
    375c:	48 8b 4d e0          	mov    -0x20(%rbp),%rcx
    3760:	48 8b 45 e8          	mov    -0x18(%rbp),%rax
    3764:	48 89 ce             	mov    %rcx,%rsi
    3767:	48 89 c7             	mov    %rax,%rdi
    376a:	e8 d4 02 00 00       	callq  3a43 <_ZNSt20__copy_move_backwardILb1ELb0ESt26random_access_iterator_tagE13__copy_move_bIPSt4pairIiiES5_EET0_T_S7_S6_>
    376f:	c9                   	leaveq 
    3770:	c3                   	retq   

0000000000003771 <_ZSt12__niter_wrapIN9__gnu_cxx17__normal_iteratorIPSt4pairIiiESt6vectorIS3_SaIS3_EEEES4_ET_S9_T0_>:
    3771:	55                   	push   %rbp
    3772:	48 89 e5             	mov    %rsp,%rbp
    3775:	48 83 ec 10          	sub    $0x10,%rsp
    3779:	48 89 7d f8          	mov    %rdi,-0x8(%rbp)
    377d:	48 89 75 f0          	mov    %rsi,-0x10(%rbp)
    3781:	48 8b 45 f8          	mov    -0x8(%rbp),%rax
    3785:	48 89 c7             	mov    %rax,%rdi
    3788:	e8 96 ff ff ff       	callq  3723 <_ZSt12__niter_baseIPSt4pairIiiESt6vectorIS1_SaIS1_EEET_N9__gnu_cxx17__normal_iteratorIS6_T0_EE>
    378d:	48 8b 55 f0          	mov    -0x10(%rbp),%rdx
    3791:	48 29 c2             	sub    %rax,%rdx
    3794:	48 89 d0             	mov    %rdx,%rax
    3797:	48 c1 f8 03          	sar    $0x3,%rax
    379b:	48 89 c2             	mov    %rax,%rdx
    379e:	48 8d 45 f8          	lea    -0x8(%rbp),%rax
    37a2:	48 89 d6             	mov    %rdx,%rsi
    37a5:	48 89 c7             	mov    %rax,%rdi
    37a8:	e8 1f f0 ff ff       	callq  27cc <_ZNK9__gnu_cxx17__normal_iteratorIPSt4pairIiiESt6vectorIS2_SaIS2_EEEplEl>
    37ad:	c9                   	leaveq 
    37ae:	c3                   	retq   

00000000000037af <_ZSt11__addressofISt4pairIiiEEPT_RS2_>:
    37af:	55                   	push   %rbp
    37b0:	48 89 e5             	mov    %rsp,%rbp
    37b3:	48 89 7d f8          	mov    %rdi,-0x8(%rbp)
    37b7:	48 8b 45 f8          	mov    -0x8(%rbp),%rax
    37bb:	5d                   	pop    %rbp
    37bc:	c3                   	retq   

00000000000037bd <_ZSt19__relocate_object_aISt4pairIiiES1_SaIS1_EEvPT_PT0_RT1_>:
    37bd:	55                   	push   %rbp
    37be:	48 89 e5             	mov    %rsp,%rbp
    37c1:	48 83 ec 20          	sub    $0x20,%rsp
    37c5:	48 89 7d f8          	mov    %rdi,-0x8(%rbp)
    37c9:	48 89 75 f0          	mov    %rsi,-0x10(%rbp)
    37cd:	48 89 55 e8          	mov    %rdx,-0x18(%rbp)
    37d1:	48 8b 45 f0          	mov    -0x10(%rbp),%rax
    37d5:	48 89 c7             	mov    %rax,%rdi
    37d8:	e8 e9 e5 ff ff       	callq  1dc6 <_ZSt4moveIRSt4pairIiiEEONSt16remove_referenceIT_E4typeEOS4_>
    37dd:	48 89 c2             	mov    %rax,%rdx
    37e0:	48 8b 4d f8          	mov    -0x8(%rbp),%rcx
    37e4:	48 8b 45 e8          	mov    -0x18(%rbp),%rax
    37e8:	48 89 ce             	mov    %rcx,%rsi
    37eb:	48 89 c7             	mov    %rax,%rdi
    37ee:	e8 d4 e7 ff ff       	callq  1fc7 <_ZNSt16allocator_traitsISaISt4pairIiiEEE9constructIS1_JS1_EEEvRS2_PT_DpOT0_>
    37f3:	48 8b 45 f0          	mov    -0x10(%rbp),%rax
    37f7:	48 89 c7             	mov    %rax,%rdi
    37fa:	e8 b0 ff ff ff       	callq  37af <_ZSt11__addressofISt4pairIiiEEPT_RS2_>
    37ff:	48 89 c2             	mov    %rax,%rdx
    3802:	48 8b 45 e8          	mov    -0x18(%rbp),%rax
    3806:	48 89 d6             	mov    %rdx,%rsi
    3809:	48 89 c7             	mov    %rax,%rdi
    380c:	e8 9f ee ff ff       	callq  26b0 <_ZNSt16allocator_traitsISaISt4pairIiiEEE7destroyIS1_EEvRS2_PT_>
    3811:	90                   	nop
    3812:	c9                   	leaveq 
    3813:	c3                   	retq   

0000000000003814 <_ZStneIPSt4pairIiiEEbRKSt13move_iteratorIT_ES7_>:
    3814:	55                   	push   %rbp
    3815:	48 89 e5             	mov    %rsp,%rbp
    3818:	48 83 ec 10          	sub    $0x10,%rsp
    381c:	48 89 7d f8          	mov    %rdi,-0x8(%rbp)
    3820:	48 89 75 f0          	mov    %rsi,-0x10(%rbp)
    3824:	48 8b 55 f0          	mov    -0x10(%rbp),%rdx
    3828:	48 8b 45 f8          	mov    -0x8(%rbp),%rax
    382c:	48 89 d6             	mov    %rdx,%rsi
    382f:	48 89 c7             	mov    %rax,%rdi
    3832:	e8 6c 02 00 00       	callq  3aa3 <_ZSteqIPSt4pairIiiEEbRKSt13move_iteratorIT_ES7_>
    3837:	83 f0 01             	xor    $0x1,%eax
    383a:	c9                   	leaveq 
    383b:	c3                   	retq   

000000000000383c <_ZNSt13move_iteratorIPSt4pairIiiEEppEv>:
    383c:	55                   	push   %rbp
    383d:	48 89 e5             	mov    %rsp,%rbp
    3840:	48 89 7d f8          	mov    %rdi,-0x8(%rbp)
    3844:	48 8b 45 f8          	mov    -0x8(%rbp),%rax
    3848:	48 8b 00             	mov    (%rax),%rax
    384b:	48 8d 50 08          	lea    0x8(%rax),%rdx
    384f:	48 8b 45 f8          	mov    -0x8(%rbp),%rax
    3853:	48 89 10             	mov    %rdx,(%rax)
    3856:	48 8b 45 f8          	mov    -0x8(%rbp),%rax
    385a:	5d                   	pop    %rbp
    385b:	c3                   	retq   

000000000000385c <_ZNKSt13move_iteratorIPSt4pairIiiEEdeEv>:
    385c:	55                   	push   %rbp
    385d:	48 89 e5             	mov    %rsp,%rbp
    3860:	48 89 7d f8          	mov    %rdi,-0x8(%rbp)
    3864:	48 8b 45 f8          	mov    -0x8(%rbp),%rax
    3868:	48 8b 00             	mov    (%rax),%rax
    386b:	5d                   	pop    %rbp
    386c:	c3                   	retq   

000000000000386d <_ZSt10_ConstructISt4pairIiiEJS1_EEvPT_DpOT0_>:
    386d:	55                   	push   %rbp
    386e:	48 89 e5             	mov    %rsp,%rbp
    3871:	53                   	push   %rbx
    3872:	48 83 ec 18          	sub    $0x18,%rsp
    3876:	48 89 7d e8          	mov    %rdi,-0x18(%rbp)
    387a:	48 89 75 e0          	mov    %rsi,-0x20(%rbp)
    387e:	48 8b 45 e0          	mov    -0x20(%rbp),%rax
    3882:	48 89 c7             	mov    %rax,%rdi
    3885:	e8 2f e7 ff ff       	callq  1fb9 <_ZSt7forwardISt4pairIiiEEOT_RNSt16remove_referenceIS2_E4typeE>
    388a:	48 89 c3             	mov    %rax,%rbx
    388d:	48 8b 45 e8          	mov    -0x18(%rbp),%rax
    3891:	48 89 c6             	mov    %rax,%rsi
    3894:	bf 08 00 00 00       	mov    $0x8,%edi
    3899:	e8 c4 de ff ff       	callq  1762 <_ZnwmPv>
    389e:	48 8b 13             	mov    (%rbx),%rdx
    38a1:	48 89 10             	mov    %rdx,(%rax)
    38a4:	90                   	nop
    38a5:	48 83 c4 18          	add    $0x18,%rsp
    38a9:	5b                   	pop    %rbx
    38aa:	5d                   	pop    %rbp
    38ab:	c3                   	retq   

00000000000038ac <_ZSt4moveIRN9__gnu_cxx5__ops15_Iter_less_iterEEONSt16remove_referenceIT_E4typeEOS5_>:
    38ac:	55                   	push   %rbp
    38ad:	48 89 e5             	mov    %rsp,%rbp
    38b0:	48 89 7d f8          	mov    %rdi,-0x8(%rbp)
    38b4:	48 8b 45 f8          	mov    -0x8(%rbp),%rax
    38b8:	5d                   	pop    %rbp
    38b9:	c3                   	retq   

00000000000038ba <_ZSt11__push_heapIN9__gnu_cxx17__normal_iteratorIPSt4pairIiiESt6vectorIS3_SaIS3_EEEElS3_NS0_5__ops14_Iter_less_valEEvT_T0_SC_T1_RT2_>:
    38ba:	55                   	push   %rbp
    38bb:	48 89 e5             	mov    %rsp,%rbp
    38be:	53                   	push   %rbx
    38bf:	48 83 ec 58          	sub    $0x58,%rsp
    38c3:	48 89 7d c8          	mov    %rdi,-0x38(%rbp)
    38c7:	48 89 75 c0          	mov    %rsi,-0x40(%rbp)
    38cb:	48 89 55 b8          	mov    %rdx,-0x48(%rbp)
    38cf:	48 89 4d b0          	mov    %rcx,-0x50(%rbp)
    38d3:	4c 89 45 a8          	mov    %r8,-0x58(%rbp)
    38d7:	48 8b 45 c0          	mov    -0x40(%rbp),%rax
    38db:	48 83 e8 01          	sub    $0x1,%rax
    38df:	48 89 c2             	mov    %rax,%rdx
    38e2:	48 c1 ea 3f          	shr    $0x3f,%rdx
    38e6:	48 01 d0             	add    %rdx,%rax
    38e9:	48 d1 f8             	sar    %rax
    38ec:	48 89 45 e8          	mov    %rax,-0x18(%rbp)
    38f0:	48 8b 45 c0          	mov    -0x40(%rbp),%rax
    38f4:	48 3b 45 b8          	cmp    -0x48(%rbp),%rax
    38f8:	7e 34                	jle    392e <_ZSt11__push_heapIN9__gnu_cxx17__normal_iteratorIPSt4pairIiiESt6vectorIS3_SaIS3_EEEElS3_NS0_5__ops14_Iter_less_valEEvT_T0_SC_T1_RT2_+0x74>
    38fa:	48 8b 55 e8          	mov    -0x18(%rbp),%rdx
    38fe:	48 8d 45 c8          	lea    -0x38(%rbp),%rax
    3902:	48 89 d6             	mov    %rdx,%rsi
    3905:	48 89 c7             	mov    %rax,%rdi
    3908:	e8 bf ee ff ff       	callq  27cc <_ZNK9__gnu_cxx17__normal_iteratorIPSt4pairIiiESt6vectorIS2_SaIS2_EEEplEl>
    390d:	48 89 c1             	mov    %rax,%rcx
    3910:	48 8d 55 b0          	lea    -0x50(%rbp),%rdx
    3914:	48 8b 45 a8          	mov    -0x58(%rbp),%rax
    3918:	48 89 ce             	mov    %rcx,%rsi
    391b:	48 89 c7             	mov    %rax,%rdi
    391e:	e8 b9 01 00 00       	callq  3adc <_ZNK9__gnu_cxx5__ops14_Iter_less_valclINS_17__normal_iteratorIPSt4pairIiiESt6vectorIS5_SaIS5_EEEES5_EEbT_RT0_>
    3923:	84 c0                	test   %al,%al
    3925:	74 07                	je     392e <_ZSt11__push_heapIN9__gnu_cxx17__normal_iteratorIPSt4pairIiiESt6vectorIS3_SaIS3_EEEElS3_NS0_5__ops14_Iter_less_valEEvT_T0_SC_T1_RT2_+0x74>
    3927:	b8 01 00 00 00       	mov    $0x1,%eax
    392c:	eb 05                	jmp    3933 <_ZSt11__push_heapIN9__gnu_cxx17__normal_iteratorIPSt4pairIiiESt6vectorIS3_SaIS3_EEEElS3_NS0_5__ops14_Iter_less_valEEvT_T0_SC_T1_RT2_+0x79>
    392e:	b8 00 00 00 00       	mov    $0x0,%eax
    3933:	84 c0                	test   %al,%al
    3935:	0f 84 82 00 00 00    	je     39bd <_ZSt11__push_heapIN9__gnu_cxx17__normal_iteratorIPSt4pairIiiESt6vectorIS3_SaIS3_EEEElS3_NS0_5__ops14_Iter_less_valEEvT_T0_SC_T1_RT2_+0x103>
    393b:	48 8b 55 e8          	mov    -0x18(%rbp),%rdx
    393f:	48 8d 45 c8          	lea    -0x38(%rbp),%rax
    3943:	48 89 d6             	mov    %rdx,%rsi
    3946:	48 89 c7             	mov    %rax,%rdi
    3949:	e8 7e ee ff ff       	callq  27cc <_ZNK9__gnu_cxx17__normal_iteratorIPSt4pairIiiESt6vectorIS2_SaIS2_EEEplEl>
    394e:	48 89 45 d0          	mov    %rax,-0x30(%rbp)
    3952:	48 8d 45 d0          	lea    -0x30(%rbp),%rax
    3956:	48 89 c7             	mov    %rax,%rdi
    3959:	e8 92 f4 ff ff       	callq  2df0 <_ZNK9__gnu_cxx17__normal_iteratorIPSt4pairIiiESt6vectorIS2_SaIS2_EEEdeEv>
    395e:	48 89 c7             	mov    %rax,%rdi
    3961:	e8 60 e4 ff ff       	callq  1dc6 <_ZSt4moveIRSt4pairIiiEEONSt16remove_referenceIT_E4typeEOS4_>
    3966:	48 89 c3             	mov    %rax,%rbx
    3969:	48 8b 55 c0          	mov    -0x40(%rbp),%rdx
    396d:	48 8d 45 c8          	lea    -0x38(%rbp),%rax
    3971:	48 89 d6             	mov    %rdx,%rsi
    3974:	48 89 c7             	mov    %rax,%rdi
    3977:	e8 50 ee ff ff       	callq  27cc <_ZNK9__gnu_cxx17__normal_iteratorIPSt4pairIiiESt6vectorIS2_SaIS2_EEEplEl>
    397c:	48 89 45 d8          	mov    %rax,-0x28(%rbp)
    3980:	48 8d 45 d8          	lea    -0x28(%rbp),%rax
    3984:	48 89 c7             	mov    %rax,%rdi
    3987:	e8 64 f4 ff ff       	callq  2df0 <_ZNK9__gnu_cxx17__normal_iteratorIPSt4pairIiiESt6vectorIS2_SaIS2_EEEdeEv>
    398c:	48 89 de             	mov    %rbx,%rsi
    398f:	48 89 c7             	mov    %rax,%rdi
    3992:	e8 b7 f4 ff ff       	callq  2e4e <_ZNSt4pairIiiEaSEOS0_>
    3997:	48 8b 45 e8          	mov    -0x18(%rbp),%rax
    399b:	48 89 45 c0          	mov    %rax,-0x40(%rbp)
    399f:	48 8b 45 c0          	mov    -0x40(%rbp),%rax
    39a3:	48 83 e8 01          	sub    $0x1,%rax
    39a7:	48 89 c2             	mov    %rax,%rdx
    39aa:	48 c1 ea 3f          	shr    $0x3f,%rdx
    39ae:	48 01 d0             	add    %rdx,%rax
    39b1:	48 d1 f8             	sar    %rax
    39b4:	48 89 45 e8          	mov    %rax,-0x18(%rbp)
    39b8:	e9 33 ff ff ff       	jmpq   38f0 <_ZSt11__push_heapIN9__gnu_cxx17__normal_iteratorIPSt4pairIiiESt6vectorIS3_SaIS3_EEEElS3_NS0_5__ops14_Iter_less_valEEvT_T0_SC_T1_RT2_+0x36>
    39bd:	48 8d 45 b0          	lea    -0x50(%rbp),%rax
    39c1:	48 89 c7             	mov    %rax,%rdi
    39c4:	e8 fd e3 ff ff       	callq  1dc6 <_ZSt4moveIRSt4pairIiiEEONSt16remove_referenceIT_E4typeEOS4_>
    39c9:	48 89 c3             	mov    %rax,%rbx
    39cc:	48 8b 55 c0          	mov    -0x40(%rbp),%rdx
    39d0:	48 8d 45 c8          	lea    -0x38(%rbp),%rax
    39d4:	48 89 d6             	mov    %rdx,%rsi
    39d7:	48 89 c7             	mov    %rax,%rdi
    39da:	e8 ed ed ff ff       	callq  27cc <_ZNK9__gnu_cxx17__normal_iteratorIPSt4pairIiiESt6vectorIS2_SaIS2_EEEplEl>
    39df:	48 89 45 e0          	mov    %rax,-0x20(%rbp)
    39e3:	48 8d 45 e0          	lea    -0x20(%rbp),%rax
    39e7:	48 89 c7             	mov    %rax,%rdi
    39ea:	e8 01 f4 ff ff       	callq  2df0 <_ZNK9__gnu_cxx17__normal_iteratorIPSt4pairIiiESt6vectorIS2_SaIS2_EEEdeEv>
    39ef:	48 89 de             	mov    %rbx,%rsi
    39f2:	48 89 c7             	mov    %rax,%rdi
    39f5:	e8 54 f4 ff ff       	callq  2e4e <_ZNSt4pairIiiEaSEOS0_>
    39fa:	90                   	nop
    39fb:	48 83 c4 58          	add    $0x58,%rsp
    39ff:	5b                   	pop    %rbx
    3a00:	5d                   	pop    %rbp
    3a01:	c3                   	retq   

0000000000003a02 <_ZNSt4pairIiiE4swapERS0_>:
    3a02:	55                   	push   %rbp
    3a03:	48 89 e5             	mov    %rsp,%rbp
    3a06:	48 83 ec 10          	sub    $0x10,%rsp
    3a0a:	48 89 7d f8          	mov    %rdi,-0x8(%rbp)
    3a0e:	48 89 75 f0          	mov    %rsi,-0x10(%rbp)
    3a12:	48 8b 55 f0          	mov    -0x10(%rbp),%rdx
    3a16:	48 8b 45 f8          	mov    -0x8(%rbp),%rax
    3a1a:	48 89 d6             	mov    %rdx,%rsi
    3a1d:	48 89 c7             	mov    %rax,%rdi
    3a20:	e8 f9 00 00 00       	callq  3b1e <_ZSt4swapIiENSt9enable_ifIXsrSt6__and_IJSt6__not_ISt15__is_tuple_likeIT_EESt21is_move_constructibleIS4_ESt18is_move_assignableIS4_EEE5valueEvE4typeERS4_SE_>
    3a25:	48 8b 45 f0          	mov    -0x10(%rbp),%rax
    3a29:	48 8d 50 04          	lea    0x4(%rax),%rdx
    3a2d:	48 8b 45 f8          	mov    -0x8(%rbp),%rax
    3a31:	48 83 c0 04          	add    $0x4,%rax
    3a35:	48 89 d6             	mov    %rdx,%rsi
    3a38:	48 89 c7             	mov    %rax,%rdi
    3a3b:	e8 de 00 00 00       	callq  3b1e <_ZSt4swapIiENSt9enable_ifIXsrSt6__and_IJSt6__not_ISt15__is_tuple_likeIT_EESt21is_move_constructibleIS4_ESt18is_move_assignableIS4_EEE5valueEvE4typeERS4_SE_>
    3a40:	90                   	nop
    3a41:	c9                   	leaveq 
    3a42:	c3                   	retq   

0000000000003a43 <_ZNSt20__copy_move_backwardILb1ELb0ESt26random_access_iterator_tagE13__copy_move_bIPSt4pairIiiES5_EET0_T_S7_S6_>:
    3a43:	55                   	push   %rbp
    3a44:	48 89 e5             	mov    %rsp,%rbp
    3a47:	48 83 ec 30          	sub    $0x30,%rsp
    3a4b:	48 89 7d e8          	mov    %rdi,-0x18(%rbp)
    3a4f:	48 89 75 e0          	mov    %rsi,-0x20(%rbp)
    3a53:	48 89 55 d8          	mov    %rdx,-0x28(%rbp)
    3a57:	48 8b 45 e0          	mov    -0x20(%rbp),%rax
    3a5b:	48 2b 45 e8          	sub    -0x18(%rbp),%rax
    3a5f:	48 c1 f8 03          	sar    $0x3,%rax
    3a63:	48 89 45 f8          	mov    %rax,-0x8(%rbp)
    3a67:	48 83 7d f8 00       	cmpq   $0x0,-0x8(%rbp)
    3a6c:	7e 2f                	jle    3a9d <_ZNSt20__copy_move_backwardILb1ELb0ESt26random_access_iterator_tagE13__copy_move_bIPSt4pairIiiES5_EET0_T_S7_S6_+0x5a>
    3a6e:	48 83 6d e0 08       	subq   $0x8,-0x20(%rbp)
    3a73:	48 8b 45 e0          	mov    -0x20(%rbp),%rax
    3a77:	48 89 c7             	mov    %rax,%rdi
    3a7a:	e8 47 e3 ff ff       	callq  1dc6 <_ZSt4moveIRSt4pairIiiEEONSt16remove_referenceIT_E4typeEOS4_>
    3a7f:	48 89 c2             	mov    %rax,%rdx
    3a82:	48 83 6d d8 08       	subq   $0x8,-0x28(%rbp)
    3a87:	48 8b 45 d8          	mov    -0x28(%rbp),%rax
    3a8b:	48 89 d6             	mov    %rdx,%rsi
    3a8e:	48 89 c7             	mov    %rax,%rdi
    3a91:	e8 b8 f3 ff ff       	callq  2e4e <_ZNSt4pairIiiEaSEOS0_>
    3a96:	48 83 6d f8 01       	subq   $0x1,-0x8(%rbp)
    3a9b:	eb ca                	jmp    3a67 <_ZNSt20__copy_move_backwardILb1ELb0ESt26random_access_iterator_tagE13__copy_move_bIPSt4pairIiiES5_EET0_T_S7_S6_+0x24>
    3a9d:	48 8b 45 d8          	mov    -0x28(%rbp),%rax
    3aa1:	c9                   	leaveq 
    3aa2:	c3                   	retq   

0000000000003aa3 <_ZSteqIPSt4pairIiiEEbRKSt13move_iteratorIT_ES7_>:
    3aa3:	55                   	push   %rbp
    3aa4:	48 89 e5             	mov    %rsp,%rbp
    3aa7:	53                   	push   %rbx
    3aa8:	48 83 ec 18          	sub    $0x18,%rsp
    3aac:	48 89 7d e8          	mov    %rdi,-0x18(%rbp)
    3ab0:	48 89 75 e0          	mov    %rsi,-0x20(%rbp)
    3ab4:	48 8b 45 e8          	mov    -0x18(%rbp),%rax
    3ab8:	48 89 c7             	mov    %rax,%rdi
    3abb:	e8 aa 00 00 00       	callq  3b6a <_ZNKSt13move_iteratorIPSt4pairIiiEE4baseEv>
    3ac0:	48 89 c3             	mov    %rax,%rbx
    3ac3:	48 8b 45 e0          	mov    -0x20(%rbp),%rax
    3ac7:	48 89 c7             	mov    %rax,%rdi
    3aca:	e8 9b 00 00 00       	callq  3b6a <_ZNKSt13move_iteratorIPSt4pairIiiEE4baseEv>
    3acf:	48 39 c3             	cmp    %rax,%rbx
    3ad2:	0f 94 c0             	sete   %al
    3ad5:	48 83 c4 18          	add    $0x18,%rsp
    3ad9:	5b                   	pop    %rbx
    3ada:	5d                   	pop    %rbp
    3adb:	c3                   	retq   

0000000000003adc <_ZNK9__gnu_cxx5__ops14_Iter_less_valclINS_17__normal_iteratorIPSt4pairIiiESt6vectorIS5_SaIS5_EEEES5_EEbT_RT0_>:
    3adc:	55                   	push   %rbp
    3add:	48 89 e5             	mov    %rsp,%rbp
    3ae0:	48 83 ec 20          	sub    $0x20,%rsp
    3ae4:	48 89 7d f8          	mov    %rdi,-0x8(%rbp)
    3ae8:	48 89 75 f0          	mov    %rsi,-0x10(%rbp)
    3aec:	48 89 55 e8          	mov    %rdx,-0x18(%rbp)
    3af0:	48 8d 45 f0          	lea    -0x10(%rbp),%rax
    3af4:	48 89 c7             	mov    %rax,%rdi
    3af7:	e8 f4 f2 ff ff       	callq  2df0 <_ZNK9__gnu_cxx17__normal_iteratorIPSt4pairIiiESt6vectorIS2_SaIS2_EEEdeEv>
    3afc:	48 89 c2             	mov    %rax,%rdx
    3aff:	48 8b 45 e8          	mov    -0x18(%rbp),%rax
    3b03:	48 89 c6             	mov    %rax,%rsi
    3b06:	48 89 d7             	mov    %rdx,%rdi
    3b09:	e8 5e f7 ff ff       	callq  326c <_ZStltIiiEbRKSt4pairIT_T0_ES5_>
    3b0e:	c9                   	leaveq 
    3b0f:	c3                   	retq   

0000000000003b10 <_ZSt4moveIRiEONSt16remove_referenceIT_E4typeEOS2_>:
    3b10:	55                   	push   %rbp
    3b11:	48 89 e5             	mov    %rsp,%rbp
    3b14:	48 89 7d f8          	mov    %rdi,-0x8(%rbp)
    3b18:	48 8b 45 f8          	mov    -0x8(%rbp),%rax
    3b1c:	5d                   	pop    %rbp
    3b1d:	c3                   	retq   

0000000000003b1e <_ZSt4swapIiENSt9enable_ifIXsrSt6__and_IJSt6__not_ISt15__is_tuple_likeIT_EESt21is_move_constructibleIS4_ESt18is_move_assignableIS4_EEE5valueEvE4typeERS4_SE_>:
    3b1e:	55                   	push   %rbp
    3b1f:	48 89 e5             	mov    %rsp,%rbp
    3b22:	48 83 ec 20          	sub    $0x20,%rsp
    3b26:	48 89 7d e8          	mov    %rdi,-0x18(%rbp)
    3b2a:	48 89 75 e0          	mov    %rsi,-0x20(%rbp)
    3b2e:	48 8b 45 e8          	mov    -0x18(%rbp),%rax
    3b32:	48 89 c7             	mov    %rax,%rdi
    3b35:	e8 d6 ff ff ff       	callq  3b10 <_ZSt4moveIRiEONSt16remove_referenceIT_E4typeEOS2_>
    3b3a:	8b 00                	mov    (%rax),%eax
    3b3c:	89 45 fc             	mov    %eax,-0x4(%rbp)
    3b3f:	48 8b 45 e0          	mov    -0x20(%rbp),%rax
    3b43:	48 89 c7             	mov    %rax,%rdi
    3b46:	e8 c5 ff ff ff       	callq  3b10 <_ZSt4moveIRiEONSt16remove_referenceIT_E4typeEOS2_>
    3b4b:	8b 10                	mov    (%rax),%edx
    3b4d:	48 8b 45 e8          	mov    -0x18(%rbp),%rax
    3b51:	89 10                	mov    %edx,(%rax)
    3b53:	48 8d 45 fc          	lea    -0x4(%rbp),%rax
    3b57:	48 89 c7             	mov    %rax,%rdi
    3b5a:	e8 b1 ff ff ff       	callq  3b10 <_ZSt4moveIRiEONSt16remove_referenceIT_E4typeEOS2_>
    3b5f:	8b 10                	mov    (%rax),%edx
    3b61:	48 8b 45 e0          	mov    -0x20(%rbp),%rax
    3b65:	89 10                	mov    %edx,(%rax)
    3b67:	90                   	nop
    3b68:	c9                   	leaveq 
    3b69:	c3                   	retq   

0000000000003b6a <_ZNKSt13move_iteratorIPSt4pairIiiEE4baseEv>:
    3b6a:	55                   	push   %rbp
    3b6b:	48 89 e5             	mov    %rsp,%rbp
    3b6e:	48 89 7d f8          	mov    %rdi,-0x8(%rbp)
    3b72:	48 8b 45 f8          	mov    -0x8(%rbp),%rax
    3b76:	48 8b 00             	mov    (%rax),%rax
    3b79:	5d                   	pop    %rbp
    3b7a:	c3                   	retq   
    3b7b:	0f 1f 44 00 00       	nopl   0x0(%rax,%rax,1)

0000000000003b80 <__libc_csu_init>:
    3b80:	41 57                	push   %r15
    3b82:	4c 8d 3d 27 32 00 00 	lea    0x3227(%rip),%r15        # 6db0 <__frame_dummy_init_array_entry>
    3b89:	41 56                	push   %r14
    3b8b:	49 89 d6             	mov    %rdx,%r14
    3b8e:	41 55                	push   %r13
    3b90:	49 89 f5             	mov    %rsi,%r13
    3b93:	41 54                	push   %r12
    3b95:	41 89 fc             	mov    %edi,%r12d
    3b98:	55                   	push   %rbp
    3b99:	48 8d 2d 20 32 00 00 	lea    0x3220(%rip),%rbp        # 6dc0 <__do_global_dtors_aux_fini_array_entry>
    3ba0:	53                   	push   %rbx
    3ba1:	4c 29 fd             	sub    %r15,%rbp
    3ba4:	48 83 ec 08          	sub    $0x8,%rsp
    3ba8:	e8 53 d4 ff ff       	callq  1000 <_init>
    3bad:	48 c1 fd 03          	sar    $0x3,%rbp
    3bb1:	74 1b                	je     3bce <__libc_csu_init+0x4e>
    3bb3:	31 db                	xor    %ebx,%ebx
    3bb5:	0f 1f 00             	nopl   (%rax)
    3bb8:	4c 89 f2             	mov    %r14,%rdx
    3bbb:	4c 89 ee             	mov    %r13,%rsi
    3bbe:	44 89 e7             	mov    %r12d,%edi
    3bc1:	41 ff 14 df          	callq  *(%r15,%rbx,8)
    3bc5:	48 83 c3 01          	add    $0x1,%rbx
    3bc9:	48 39 dd             	cmp    %rbx,%rbp
    3bcc:	75 ea                	jne    3bb8 <__libc_csu_init+0x38>
    3bce:	48 83 c4 08          	add    $0x8,%rsp
    3bd2:	5b                   	pop    %rbx
    3bd3:	5d                   	pop    %rbp
    3bd4:	41 5c                	pop    %r12
    3bd6:	41 5d                	pop    %r13
    3bd8:	41 5e                	pop    %r14
    3bda:	41 5f                	pop    %r15
    3bdc:	c3                   	retq   
    3bdd:	0f 1f 00             	nopl   (%rax)

0000000000003be0 <__libc_csu_fini>:
    3be0:	c3                   	retq   

Disassembly of section .fini:

0000000000003be4 <_fini>:
    3be4:	48 83 ec 08          	sub    $0x8,%rsp
    3be8:	48 83 c4 08          	add    $0x8,%rsp
    3bec:	c3                   	retq   
