
Sieve_of_Eratosthense.out:     file format elf64-x86-64


Disassembly of section .init:

0000000000001000 <_init>:
    1000:	48 83 ec 08          	sub    $0x8,%rsp
    1004:	48 8b 05 dd 2f 00 00 	mov    0x2fdd(%rip),%rax        # 3fe8 <__gmon_start__>
    100b:	48 85 c0             	test   %rax,%rax
    100e:	74 02                	je     1012 <_init+0x12>
    1010:	ff d0                	callq  *%rax
    1012:	48 83 c4 08          	add    $0x8,%rsp
    1016:	c3                   	retq   

Disassembly of section .plt:

0000000000001020 <.plt>:
    1020:	ff 35 e2 2f 00 00    	pushq  0x2fe2(%rip)        # 4008 <_GLOBAL_OFFSET_TABLE_+0x8>
    1026:	ff 25 e4 2f 00 00    	jmpq   *0x2fe4(%rip)        # 4010 <_GLOBAL_OFFSET_TABLE_+0x10>
    102c:	0f 1f 40 00          	nopl   0x0(%rax)

0000000000001030 <_ZNSolsEx@plt>:
    1030:	ff 25 e2 2f 00 00    	jmpq   *0x2fe2(%rip)        # 4018 <_ZNSolsEx@GLIBCXX_3.4>
    1036:	68 00 00 00 00       	pushq  $0x0
    103b:	e9 e0 ff ff ff       	jmpq   1020 <.plt>

0000000000001040 <__cxa_atexit@plt>:
    1040:	ff 25 da 2f 00 00    	jmpq   *0x2fda(%rip)        # 4020 <__cxa_atexit@GLIBC_2.2.5>
    1046:	68 01 00 00 00       	pushq  $0x1
    104b:	e9 d0 ff ff ff       	jmpq   1020 <.plt>

0000000000001050 <_ZStlsISt11char_traitsIcEERSt13basic_ostreamIcT_ES5_PKc@plt>:
    1050:	ff 25 d2 2f 00 00    	jmpq   *0x2fd2(%rip)        # 4028 <_ZStlsISt11char_traitsIcEERSt13basic_ostreamIcT_ES5_PKc@GLIBCXX_3.4>
    1056:	68 02 00 00 00       	pushq  $0x2
    105b:	e9 c0 ff ff ff       	jmpq   1020 <.plt>

0000000000001060 <_ZNSolsEPFRSoS_E@plt>:
    1060:	ff 25 ca 2f 00 00    	jmpq   *0x2fca(%rip)        # 4030 <_ZNSolsEPFRSoS_E@GLIBCXX_3.4>
    1066:	68 03 00 00 00       	pushq  $0x3
    106b:	e9 b0 ff ff ff       	jmpq   1020 <.plt>

0000000000001070 <_ZNSirsERx@plt>:
    1070:	ff 25 c2 2f 00 00    	jmpq   *0x2fc2(%rip)        # 4038 <_ZNSirsERx@GLIBCXX_3.4>
    1076:	68 04 00 00 00       	pushq  $0x4
    107b:	e9 a0 ff ff ff       	jmpq   1020 <.plt>

0000000000001080 <_ZNSt8ios_base4InitC1Ev@plt>:
    1080:	ff 25 ba 2f 00 00    	jmpq   *0x2fba(%rip)        # 4040 <_ZNSt8ios_base4InitC1Ev@GLIBCXX_3.4>
    1086:	68 05 00 00 00       	pushq  $0x5
    108b:	e9 90 ff ff ff       	jmpq   1020 <.plt>

Disassembly of section .plt.got:

0000000000001090 <__cxa_finalize@plt>:
    1090:	ff 25 32 2f 00 00    	jmpq   *0x2f32(%rip)        # 3fc8 <__cxa_finalize@GLIBC_2.2.5>
    1096:	66 90                	xchg   %ax,%ax

Disassembly of section .text:

00000000000010a0 <_start>:
    10a0:	31 ed                	xor    %ebp,%ebp
    10a2:	49 89 d1             	mov    %rdx,%r9
    10a5:	5e                   	pop    %rsi
    10a6:	48 89 e2             	mov    %rsp,%rdx
    10a9:	48 83 e4 f0          	and    $0xfffffffffffffff0,%rsp
    10ad:	50                   	push   %rax
    10ae:	54                   	push   %rsp
    10af:	4c 8d 05 7a 03 00 00 	lea    0x37a(%rip),%r8        # 1430 <__libc_csu_fini>
    10b6:	48 8d 0d 13 03 00 00 	lea    0x313(%rip),%rcx        # 13d0 <__libc_csu_init>
    10bd:	48 8d 3d e7 01 00 00 	lea    0x1e7(%rip),%rdi        # 12ab <main>
    10c4:	ff 15 16 2f 00 00    	callq  *0x2f16(%rip)        # 3fe0 <__libc_start_main@GLIBC_2.2.5>
    10ca:	f4                   	hlt    
    10cb:	0f 1f 44 00 00       	nopl   0x0(%rax,%rax,1)

00000000000010d0 <deregister_tm_clones>:
    10d0:	48 8d 3d 81 2f 00 00 	lea    0x2f81(%rip),%rdi        # 4058 <__TMC_END__>
    10d7:	48 8d 05 7a 2f 00 00 	lea    0x2f7a(%rip),%rax        # 4058 <__TMC_END__>
    10de:	48 39 f8             	cmp    %rdi,%rax
    10e1:	74 15                	je     10f8 <deregister_tm_clones+0x28>
    10e3:	48 8b 05 ee 2e 00 00 	mov    0x2eee(%rip),%rax        # 3fd8 <_ITM_deregisterTMCloneTable>
    10ea:	48 85 c0             	test   %rax,%rax
    10ed:	74 09                	je     10f8 <deregister_tm_clones+0x28>
    10ef:	ff e0                	jmpq   *%rax
    10f1:	0f 1f 80 00 00 00 00 	nopl   0x0(%rax)
    10f8:	c3                   	retq   
    10f9:	0f 1f 80 00 00 00 00 	nopl   0x0(%rax)

0000000000001100 <register_tm_clones>:
    1100:	48 8d 3d 51 2f 00 00 	lea    0x2f51(%rip),%rdi        # 4058 <__TMC_END__>
    1107:	48 8d 35 4a 2f 00 00 	lea    0x2f4a(%rip),%rsi        # 4058 <__TMC_END__>
    110e:	48 29 fe             	sub    %rdi,%rsi
    1111:	48 89 f0             	mov    %rsi,%rax
    1114:	48 c1 ee 3f          	shr    $0x3f,%rsi
    1118:	48 c1 f8 03          	sar    $0x3,%rax
    111c:	48 01 c6             	add    %rax,%rsi
    111f:	48 d1 fe             	sar    %rsi
    1122:	74 14                	je     1138 <register_tm_clones+0x38>
    1124:	48 8b 05 c5 2e 00 00 	mov    0x2ec5(%rip),%rax        # 3ff0 <_ITM_registerTMCloneTable>
    112b:	48 85 c0             	test   %rax,%rax
    112e:	74 08                	je     1138 <register_tm_clones+0x38>
    1130:	ff e0                	jmpq   *%rax
    1132:	66 0f 1f 44 00 00    	nopw   0x0(%rax,%rax,1)
    1138:	c3                   	retq   
    1139:	0f 1f 80 00 00 00 00 	nopl   0x0(%rax)

0000000000001140 <__do_global_dtors_aux>:
    1140:	80 3d 71 31 00 00 00 	cmpb   $0x0,0x3171(%rip)        # 42b8 <completed.7447>
    1147:	75 2f                	jne    1178 <__do_global_dtors_aux+0x38>
    1149:	55                   	push   %rbp
    114a:	48 83 3d 76 2e 00 00 	cmpq   $0x0,0x2e76(%rip)        # 3fc8 <__cxa_finalize@GLIBC_2.2.5>
    1151:	00 
    1152:	48 89 e5             	mov    %rsp,%rbp
    1155:	74 0c                	je     1163 <__do_global_dtors_aux+0x23>
    1157:	48 8b 3d f2 2e 00 00 	mov    0x2ef2(%rip),%rdi        # 4050 <__dso_handle>
    115e:	e8 2d ff ff ff       	callq  1090 <__cxa_finalize@plt>
    1163:	e8 68 ff ff ff       	callq  10d0 <deregister_tm_clones>
    1168:	c6 05 49 31 00 00 01 	movb   $0x1,0x3149(%rip)        # 42b8 <completed.7447>
    116f:	5d                   	pop    %rbp
    1170:	c3                   	retq   
    1171:	0f 1f 80 00 00 00 00 	nopl   0x0(%rax)
    1178:	c3                   	retq   
    1179:	0f 1f 80 00 00 00 00 	nopl   0x0(%rax)

0000000000001180 <frame_dummy>:
    1180:	e9 7b ff ff ff       	jmpq   1100 <register_tm_clones>

0000000000001185 <_Z7isPrimex>:
    1185:	55                   	push   %rbp
    1186:	48 89 e5             	mov    %rsp,%rbp
    1189:	48 89 7d f8          	mov    %rdi,-0x8(%rbp)
    118d:	48 83 7d f8 01       	cmpq   $0x1,-0x8(%rbp)
    1192:	7f 24                	jg     11b8 <_Z7isPrimex+0x33>
    1194:	48 8d 15 25 31 00 00 	lea    0x3125(%rip),%rdx        # 42c0 <markted>
    119b:	48 8b 45 f8          	mov    -0x8(%rbp),%rax
    119f:	48 01 d0             	add    %rdx,%rax
    11a2:	c6 00 01             	movb   $0x1,(%rax)
    11a5:	48 8d 15 14 31 00 00 	lea    0x3114(%rip),%rdx        # 42c0 <markted>
    11ac:	48 8b 45 f8          	mov    -0x8(%rbp),%rax
    11b0:	48 01 d0             	add    %rdx,%rax
    11b3:	0f b6 00             	movzbl (%rax),%eax
    11b6:	eb 7d                	jmp    1235 <_Z7isPrimex+0xb0>
    11b8:	48 83 7d f8 02       	cmpq   $0x2,-0x8(%rbp)
    11bd:	75 24                	jne    11e3 <_Z7isPrimex+0x5e>
    11bf:	48 8d 15 fa 30 00 00 	lea    0x30fa(%rip),%rdx        # 42c0 <markted>
    11c6:	48 8b 45 f8          	mov    -0x8(%rbp),%rax
    11ca:	48 01 d0             	add    %rdx,%rax
    11cd:	c6 00 00             	movb   $0x0,(%rax)
    11d0:	48 8d 15 e9 30 00 00 	lea    0x30e9(%rip),%rdx        # 42c0 <markted>
    11d7:	48 8b 45 f8          	mov    -0x8(%rbp),%rax
    11db:	48 01 d0             	add    %rdx,%rax
    11de:	0f b6 00             	movzbl (%rax),%eax
    11e1:	eb 52                	jmp    1235 <_Z7isPrimex+0xb0>
    11e3:	48 8b 45 f8          	mov    -0x8(%rbp),%rax
    11e7:	83 e0 01             	and    $0x1,%eax
    11ea:	48 85 c0             	test   %rax,%rax
    11ed:	75 24                	jne    1213 <_Z7isPrimex+0x8e>
    11ef:	48 8d 15 ca 30 00 00 	lea    0x30ca(%rip),%rdx        # 42c0 <markted>
    11f6:	48 8b 45 f8          	mov    -0x8(%rbp),%rax
    11fa:	48 01 d0             	add    %rdx,%rax
    11fd:	c6 00 01             	movb   $0x1,(%rax)
    1200:	48 8d 15 b9 30 00 00 	lea    0x30b9(%rip),%rdx        # 42c0 <markted>
    1207:	48 8b 45 f8          	mov    -0x8(%rbp),%rax
    120b:	48 01 d0             	add    %rdx,%rax
    120e:	0f b6 00             	movzbl (%rax),%eax
    1211:	eb 22                	jmp    1235 <_Z7isPrimex+0xb0>
    1213:	48 8d 15 a6 30 00 00 	lea    0x30a6(%rip),%rdx        # 42c0 <markted>
    121a:	48 8b 45 f8          	mov    -0x8(%rbp),%rax
    121e:	48 01 d0             	add    %rdx,%rax
    1221:	c6 00 00             	movb   $0x0,(%rax)
    1224:	48 8d 15 95 30 00 00 	lea    0x3095(%rip),%rdx        # 42c0 <markted>
    122b:	48 8b 45 f8          	mov    -0x8(%rbp),%rax
    122f:	48 01 d0             	add    %rdx,%rax
    1232:	0f b6 00             	movzbl (%rax),%eax
    1235:	5d                   	pop    %rbp
    1236:	c3                   	retq   

0000000000001237 <_Z18seive_eratosthensex>:
    1237:	55                   	push   %rbp
    1238:	48 89 e5             	mov    %rsp,%rbp
    123b:	48 89 7d e8          	mov    %rdi,-0x18(%rbp)
    123f:	48 c7 45 f8 03 00 00 	movq   $0x3,-0x8(%rbp)
    1246:	00 
    1247:	48 8b 45 f8          	mov    -0x8(%rbp),%rax
    124b:	48 0f af c0          	imul   %rax,%rax
    124f:	48 39 45 e8          	cmp    %rax,-0x18(%rbp)
    1253:	7e 53                	jle    12a8 <_Z18seive_eratosthensex+0x71>
    1255:	48 8d 15 64 30 00 00 	lea    0x3064(%rip),%rdx        # 42c0 <markted>
    125c:	48 8b 45 f8          	mov    -0x8(%rbp),%rax
    1260:	48 01 d0             	add    %rdx,%rax
    1263:	0f b6 00             	movzbl (%rax),%eax
    1266:	0f b6 c0             	movzbl %al,%eax
    1269:	85 c0                	test   %eax,%eax
    126b:	75 34                	jne    12a1 <_Z18seive_eratosthensex+0x6a>
    126d:	48 8b 45 f8          	mov    -0x8(%rbp),%rax
    1271:	48 0f af c0          	imul   %rax,%rax
    1275:	48 89 45 f0          	mov    %rax,-0x10(%rbp)
    1279:	48 8b 45 f0          	mov    -0x10(%rbp),%rax
    127d:	48 3b 45 e8          	cmp    -0x18(%rbp),%rax
    1281:	7d 1e                	jge    12a1 <_Z18seive_eratosthensex+0x6a>
    1283:	48 8d 15 36 30 00 00 	lea    0x3036(%rip),%rdx        # 42c0 <markted>
    128a:	48 8b 45 f0          	mov    -0x10(%rbp),%rax
    128e:	48 01 d0             	add    %rdx,%rax
    1291:	c6 00 01             	movb   $0x1,(%rax)
    1294:	48 8b 45 f8          	mov    -0x8(%rbp),%rax
    1298:	48 01 c0             	add    %rax,%rax
    129b:	48 01 45 f0          	add    %rax,-0x10(%rbp)
    129f:	eb d8                	jmp    1279 <_Z18seive_eratosthensex+0x42>
    12a1:	48 83 45 f8 01       	addq   $0x1,-0x8(%rbp)
    12a6:	eb 9f                	jmp    1247 <_Z18seive_eratosthensex+0x10>
    12a8:	90                   	nop
    12a9:	5d                   	pop    %rbp
    12aa:	c3                   	retq   

00000000000012ab <main>:
    12ab:	55                   	push   %rbp
    12ac:	48 89 e5             	mov    %rsp,%rbp
    12af:	48 83 ec 20          	sub    $0x20,%rsp
    12b3:	48 8d 45 e8          	lea    -0x18(%rbp),%rax
    12b7:	48 89 c6             	mov    %rax,%rsi
    12ba:	48 8d 3d df 2e 00 00 	lea    0x2edf(%rip),%rdi        # 41a0 <_ZSt3cin@@GLIBCXX_3.4>
    12c1:	e8 aa fd ff ff       	callq  1070 <_ZNSirsERx@plt>
    12c6:	48 c7 45 f8 00 00 00 	movq   $0x0,-0x8(%rbp)
    12cd:	00 
    12ce:	48 8b 45 e8          	mov    -0x18(%rbp),%rax
    12d2:	48 39 45 f8          	cmp    %rax,-0x8(%rbp)
    12d6:	7d 13                	jge    12eb <main+0x40>
    12d8:	48 8b 45 f8          	mov    -0x8(%rbp),%rax
    12dc:	48 89 c7             	mov    %rax,%rdi
    12df:	e8 a1 fe ff ff       	callq  1185 <_Z7isPrimex>
    12e4:	48 83 45 f8 01       	addq   $0x1,-0x8(%rbp)
    12e9:	eb e3                	jmp    12ce <main+0x23>
    12eb:	48 8b 45 e8          	mov    -0x18(%rbp),%rax
    12ef:	48 89 c7             	mov    %rax,%rdi
    12f2:	e8 40 ff ff ff       	callq  1237 <_Z18seive_eratosthensex>
    12f7:	48 c7 45 f0 00 00 00 	movq   $0x0,-0x10(%rbp)
    12fe:	00 
    12ff:	48 8b 45 e8          	mov    -0x18(%rbp),%rax
    1303:	48 39 45 f0          	cmp    %rax,-0x10(%rbp)
    1307:	7d 5c                	jge    1365 <main+0xba>
    1309:	48 8d 15 b0 2f 00 00 	lea    0x2fb0(%rip),%rdx        # 42c0 <markted>
    1310:	48 8b 45 f0          	mov    -0x10(%rbp),%rax
    1314:	48 01 d0             	add    %rdx,%rax
    1317:	0f b6 00             	movzbl (%rax),%eax
    131a:	0f b6 c0             	movzbl %al,%eax
    131d:	85 c0                	test   %eax,%eax
    131f:	75 2a                	jne    134b <main+0xa0>
    1321:	48 8b 45 f0          	mov    -0x10(%rbp),%rax
    1325:	48 89 c6             	mov    %rax,%rsi
    1328:	48 8d 3d 51 2d 00 00 	lea    0x2d51(%rip),%rdi        # 4080 <_ZSt4cout@@GLIBCXX_3.4>
    132f:	e8 fc fc ff ff       	callq  1030 <_ZNSolsEx@plt>
    1334:	48 89 c2             	mov    %rax,%rdx
    1337:	48 8b 05 92 2c 00 00 	mov    0x2c92(%rip),%rax        # 3fd0 <_ZSt4endlIcSt11char_traitsIcEERSt13basic_ostreamIT_T0_ES6_@GLIBCXX_3.4>
    133e:	48 89 c6             	mov    %rax,%rsi
    1341:	48 89 d7             	mov    %rdx,%rdi
    1344:	e8 17 fd ff ff       	callq  1060 <_ZNSolsEPFRSoS_E@plt>
    1349:	eb 13                	jmp    135e <main+0xb3>
    134b:	48 8d 35 5e 0d 00 00 	lea    0xd5e(%rip),%rsi        # 20b0 <_ZNSt8__detailL19_S_invalid_state_idE+0x8>
    1352:	48 8d 3d 27 2d 00 00 	lea    0x2d27(%rip),%rdi        # 4080 <_ZSt4cout@@GLIBCXX_3.4>
    1359:	e8 f2 fc ff ff       	callq  1050 <_ZStlsISt11char_traitsIcEERSt13basic_ostreamIcT_ES5_PKc@plt>
    135e:	48 83 45 f0 01       	addq   $0x1,-0x10(%rbp)
    1363:	eb 9a                	jmp    12ff <main+0x54>
    1365:	b8 00 00 00 00       	mov    $0x0,%eax
    136a:	c9                   	leaveq 
    136b:	c3                   	retq   

000000000000136c <_Z41__static_initialization_and_destruction_0ii>:
    136c:	55                   	push   %rbp
    136d:	48 89 e5             	mov    %rsp,%rbp
    1370:	48 83 ec 10          	sub    $0x10,%rsp
    1374:	89 7d fc             	mov    %edi,-0x4(%rbp)
    1377:	89 75 f8             	mov    %esi,-0x8(%rbp)
    137a:	83 7d fc 01          	cmpl   $0x1,-0x4(%rbp)
    137e:	75 32                	jne    13b2 <_Z41__static_initialization_and_destruction_0ii+0x46>
    1380:	81 7d f8 ff ff 00 00 	cmpl   $0xffff,-0x8(%rbp)
    1387:	75 29                	jne    13b2 <_Z41__static_initialization_and_destruction_0ii+0x46>
    1389:	48 8d 3d 30 10 f6 05 	lea    0x5f61030(%rip),%rdi        # 5f623c0 <_ZStL8__ioinit>
    1390:	e8 eb fc ff ff       	callq  1080 <_ZNSt8ios_base4InitC1Ev@plt>
    1395:	48 8d 15 b4 2c 00 00 	lea    0x2cb4(%rip),%rdx        # 4050 <__dso_handle>
    139c:	48 8d 35 1d 10 f6 05 	lea    0x5f6101d(%rip),%rsi        # 5f623c0 <_ZStL8__ioinit>
    13a3:	48 8b 05 4e 2c 00 00 	mov    0x2c4e(%rip),%rax        # 3ff8 <_ZNSt8ios_base4InitD1Ev@GLIBCXX_3.4>
    13aa:	48 89 c7             	mov    %rax,%rdi
    13ad:	e8 8e fc ff ff       	callq  1040 <__cxa_atexit@plt>
    13b2:	90                   	nop
    13b3:	c9                   	leaveq 
    13b4:	c3                   	retq   

00000000000013b5 <_GLOBAL__sub_I_markted>:
    13b5:	55                   	push   %rbp
    13b6:	48 89 e5             	mov    %rsp,%rbp
    13b9:	be ff ff 00 00       	mov    $0xffff,%esi
    13be:	bf 01 00 00 00       	mov    $0x1,%edi
    13c3:	e8 a4 ff ff ff       	callq  136c <_Z41__static_initialization_and_destruction_0ii>
    13c8:	5d                   	pop    %rbp
    13c9:	c3                   	retq   
    13ca:	66 0f 1f 44 00 00    	nopw   0x0(%rax,%rax,1)

00000000000013d0 <__libc_csu_init>:
    13d0:	41 57                	push   %r15
    13d2:	4c 8d 3d e7 29 00 00 	lea    0x29e7(%rip),%r15        # 3dc0 <__frame_dummy_init_array_entry>
    13d9:	41 56                	push   %r14
    13db:	49 89 d6             	mov    %rdx,%r14
    13de:	41 55                	push   %r13
    13e0:	49 89 f5             	mov    %rsi,%r13
    13e3:	41 54                	push   %r12
    13e5:	41 89 fc             	mov    %edi,%r12d
    13e8:	55                   	push   %rbp
    13e9:	48 8d 2d e0 29 00 00 	lea    0x29e0(%rip),%rbp        # 3dd0 <__do_global_dtors_aux_fini_array_entry>
    13f0:	53                   	push   %rbx
    13f1:	4c 29 fd             	sub    %r15,%rbp
    13f4:	48 83 ec 08          	sub    $0x8,%rsp
    13f8:	e8 03 fc ff ff       	callq  1000 <_init>
    13fd:	48 c1 fd 03          	sar    $0x3,%rbp
    1401:	74 1b                	je     141e <__libc_csu_init+0x4e>
    1403:	31 db                	xor    %ebx,%ebx
    1405:	0f 1f 00             	nopl   (%rax)
    1408:	4c 89 f2             	mov    %r14,%rdx
    140b:	4c 89 ee             	mov    %r13,%rsi
    140e:	44 89 e7             	mov    %r12d,%edi
    1411:	41 ff 14 df          	callq  *(%r15,%rbx,8)
    1415:	48 83 c3 01          	add    $0x1,%rbx
    1419:	48 39 dd             	cmp    %rbx,%rbp
    141c:	75 ea                	jne    1408 <__libc_csu_init+0x38>
    141e:	48 83 c4 08          	add    $0x8,%rsp
    1422:	5b                   	pop    %rbx
    1423:	5d                   	pop    %rbp
    1424:	41 5c                	pop    %r12
    1426:	41 5d                	pop    %r13
    1428:	41 5e                	pop    %r14
    142a:	41 5f                	pop    %r15
    142c:	c3                   	retq   
    142d:	0f 1f 00             	nopl   (%rax)

0000000000001430 <__libc_csu_fini>:
    1430:	c3                   	retq   

Disassembly of section .fini:

0000000000001434 <_fini>:
    1434:	48 83 ec 08          	sub    $0x8,%rsp
    1438:	48 83 c4 08          	add    $0x8,%rsp
    143c:	c3                   	retq   
