
U - Pairs.out:     file format elf64-x86-64


Disassembly of section .init:

0000000000001000 <_init>:
    1000:	48 83 ec 08          	sub    $0x8,%rsp
    1004:	48 8b 05 dd 4f 00 00 	mov    0x4fdd(%rip),%rax        # 5fe8 <__gmon_start__>
    100b:	48 85 c0             	test   %rax,%rax
    100e:	74 02                	je     1012 <_init+0x12>
    1010:	ff d0                	callq  *%rax
    1012:	48 83 c4 08          	add    $0x8,%rsp
    1016:	c3                   	retq   

Disassembly of section .plt:

0000000000001020 <.plt>:
    1020:	ff 35 e2 4f 00 00    	pushq  0x4fe2(%rip)        # 6008 <_GLOBAL_OFFSET_TABLE_+0x8>
    1026:	ff 25 e4 4f 00 00    	jmpq   *0x4fe4(%rip)        # 6010 <_GLOBAL_OFFSET_TABLE_+0x10>
    102c:	0f 1f 40 00          	nopl   0x0(%rax)

0000000000001030 <_ZSt17__throw_bad_allocv@plt>:
    1030:	ff 25 e2 4f 00 00    	jmpq   *0x4fe2(%rip)        # 6018 <_ZSt17__throw_bad_allocv@GLIBCXX_3.4>
    1036:	68 00 00 00 00       	pushq  $0x0
    103b:	e9 e0 ff ff ff       	jmpq   1020 <.plt>

0000000000001040 <__cxa_begin_catch@plt>:
    1040:	ff 25 da 4f 00 00    	jmpq   *0x4fda(%rip)        # 6020 <__cxa_begin_catch@CXXABI_1.3>
    1046:	68 01 00 00 00       	pushq  $0x1
    104b:	e9 d0 ff ff ff       	jmpq   1020 <.plt>

0000000000001050 <_ZNSt8ios_base15sync_with_stdioEb@plt>:
    1050:	ff 25 d2 4f 00 00    	jmpq   *0x4fd2(%rip)        # 6028 <_ZNSt8ios_base15sync_with_stdioEb@GLIBCXX_3.4>
    1056:	68 02 00 00 00       	pushq  $0x2
    105b:	e9 c0 ff ff ff       	jmpq   1020 <.plt>

0000000000001060 <_ZSt20__throw_length_errorPKc@plt>:
    1060:	ff 25 ca 4f 00 00    	jmpq   *0x4fca(%rip)        # 6030 <_ZSt20__throw_length_errorPKc@GLIBCXX_3.4>
    1066:	68 03 00 00 00       	pushq  $0x3
    106b:	e9 b0 ff ff ff       	jmpq   1020 <.plt>

0000000000001070 <_ZNSirsERi@plt>:
    1070:	ff 25 c2 4f 00 00    	jmpq   *0x4fc2(%rip)        # 6038 <_ZNSirsERi@GLIBCXX_3.4>
    1076:	68 04 00 00 00       	pushq  $0x4
    107b:	e9 a0 ff ff ff       	jmpq   1020 <.plt>

0000000000001080 <_ZNSt9basic_iosIcSt11char_traitsIcEE3tieEPSo@plt>:
    1080:	ff 25 ba 4f 00 00    	jmpq   *0x4fba(%rip)        # 6040 <_ZNSt9basic_iosIcSt11char_traitsIcEE3tieEPSo@GLIBCXX_3.4>
    1086:	68 05 00 00 00       	pushq  $0x5
    108b:	e9 90 ff ff ff       	jmpq   1020 <.plt>

0000000000001090 <__cxa_atexit@plt>:
    1090:	ff 25 b2 4f 00 00    	jmpq   *0x4fb2(%rip)        # 6048 <__cxa_atexit@GLIBC_2.2.5>
    1096:	68 06 00 00 00       	pushq  $0x6
    109b:	e9 80 ff ff ff       	jmpq   1020 <.plt>

00000000000010a0 <_ZdlPv@plt>:
    10a0:	ff 25 aa 4f 00 00    	jmpq   *0x4faa(%rip)        # 6050 <_ZdlPv@GLIBCXX_3.4>
    10a6:	68 07 00 00 00       	pushq  $0x7
    10ab:	e9 70 ff ff ff       	jmpq   1020 <.plt>

00000000000010b0 <_ZStlsISt11char_traitsIcEERSt13basic_ostreamIcT_ES5_PKc@plt>:
    10b0:	ff 25 a2 4f 00 00    	jmpq   *0x4fa2(%rip)        # 6058 <_ZStlsISt11char_traitsIcEERSt13basic_ostreamIcT_ES5_PKc@GLIBCXX_3.4>
    10b6:	68 08 00 00 00       	pushq  $0x8
    10bb:	e9 60 ff ff ff       	jmpq   1020 <.plt>

00000000000010c0 <_Znwm@plt>:
    10c0:	ff 25 9a 4f 00 00    	jmpq   *0x4f9a(%rip)        # 6060 <_Znwm@GLIBCXX_3.4>
    10c6:	68 09 00 00 00       	pushq  $0x9
    10cb:	e9 50 ff ff ff       	jmpq   1020 <.plt>

00000000000010d0 <_ZNSolsEPFRSoS_E@plt>:
    10d0:	ff 25 92 4f 00 00    	jmpq   *0x4f92(%rip)        # 6068 <_ZNSolsEPFRSoS_E@GLIBCXX_3.4>
    10d6:	68 0a 00 00 00       	pushq  $0xa
    10db:	e9 40 ff ff ff       	jmpq   1020 <.plt>

00000000000010e0 <__cxa_rethrow@plt>:
    10e0:	ff 25 8a 4f 00 00    	jmpq   *0x4f8a(%rip)        # 6070 <__cxa_rethrow@CXXABI_1.3>
    10e6:	68 0b 00 00 00       	pushq  $0xb
    10eb:	e9 30 ff ff ff       	jmpq   1020 <.plt>

00000000000010f0 <_ZNSt8ios_base4InitC1Ev@plt>:
    10f0:	ff 25 82 4f 00 00    	jmpq   *0x4f82(%rip)        # 6078 <_ZNSt8ios_base4InitC1Ev@GLIBCXX_3.4>
    10f6:	68 0c 00 00 00       	pushq  $0xc
    10fb:	e9 20 ff ff ff       	jmpq   1020 <.plt>

0000000000001100 <__cxa_end_catch@plt>:
    1100:	ff 25 7a 4f 00 00    	jmpq   *0x4f7a(%rip)        # 6080 <__cxa_end_catch@CXXABI_1.3>
    1106:	68 0d 00 00 00       	pushq  $0xd
    110b:	e9 10 ff ff ff       	jmpq   1020 <.plt>

0000000000001110 <_Unwind_Resume@plt>:
    1110:	ff 25 72 4f 00 00    	jmpq   *0x4f72(%rip)        # 6088 <_Unwind_Resume@GCC_3.0>
    1116:	68 0e 00 00 00       	pushq  $0xe
    111b:	e9 00 ff ff ff       	jmpq   1020 <.plt>

Disassembly of section .plt.got:

0000000000001120 <__cxa_finalize@plt>:
    1120:	ff 25 a2 4e 00 00    	jmpq   *0x4ea2(%rip)        # 5fc8 <__cxa_finalize@GLIBC_2.2.5>
    1126:	66 90                	xchg   %ax,%ax

Disassembly of section .text:

0000000000001130 <_start>:
    1130:	31 ed                	xor    %ebp,%ebp
    1132:	49 89 d1             	mov    %rdx,%r9
    1135:	5e                   	pop    %rsi
    1136:	48 89 e2             	mov    %rsp,%rdx
    1139:	48 83 e4 f0          	and    $0xfffffffffffffff0,%rsp
    113d:	50                   	push   %rax
    113e:	54                   	push   %rsp
    113f:	4c 8d 05 5a 16 00 00 	lea    0x165a(%rip),%r8        # 27a0 <__libc_csu_fini>
    1146:	48 8d 0d f3 15 00 00 	lea    0x15f3(%rip),%rcx        # 2740 <__libc_csu_init>
    114d:	48 8d 3d b2 01 00 00 	lea    0x1b2(%rip),%rdi        # 1306 <main>
    1154:	ff 15 86 4e 00 00    	callq  *0x4e86(%rip)        # 5fe0 <__libc_start_main@GLIBC_2.2.5>
    115a:	f4                   	hlt    
    115b:	0f 1f 44 00 00       	nopl   0x0(%rax,%rax,1)

0000000000001160 <deregister_tm_clones>:
    1160:	48 8d 3d 41 4f 00 00 	lea    0x4f41(%rip),%rdi        # 60a8 <__TMC_END__>
    1167:	48 8d 05 3a 4f 00 00 	lea    0x4f3a(%rip),%rax        # 60a8 <__TMC_END__>
    116e:	48 39 f8             	cmp    %rdi,%rax
    1171:	74 15                	je     1188 <deregister_tm_clones+0x28>
    1173:	48 8b 05 5e 4e 00 00 	mov    0x4e5e(%rip),%rax        # 5fd8 <_ITM_deregisterTMCloneTable>
    117a:	48 85 c0             	test   %rax,%rax
    117d:	74 09                	je     1188 <deregister_tm_clones+0x28>
    117f:	ff e0                	jmpq   *%rax
    1181:	0f 1f 80 00 00 00 00 	nopl   0x0(%rax)
    1188:	c3                   	retq   
    1189:	0f 1f 80 00 00 00 00 	nopl   0x0(%rax)

0000000000001190 <register_tm_clones>:
    1190:	48 8d 3d 11 4f 00 00 	lea    0x4f11(%rip),%rdi        # 60a8 <__TMC_END__>
    1197:	48 8d 35 0a 4f 00 00 	lea    0x4f0a(%rip),%rsi        # 60a8 <__TMC_END__>
    119e:	48 29 fe             	sub    %rdi,%rsi
    11a1:	48 89 f0             	mov    %rsi,%rax
    11a4:	48 c1 ee 3f          	shr    $0x3f,%rsi
    11a8:	48 c1 f8 03          	sar    $0x3,%rax
    11ac:	48 01 c6             	add    %rax,%rsi
    11af:	48 d1 fe             	sar    %rsi
    11b2:	74 14                	je     11c8 <register_tm_clones+0x38>
    11b4:	48 8b 05 35 4e 00 00 	mov    0x4e35(%rip),%rax        # 5ff0 <_ITM_registerTMCloneTable>
    11bb:	48 85 c0             	test   %rax,%rax
    11be:	74 08                	je     11c8 <register_tm_clones+0x38>
    11c0:	ff e0                	jmpq   *%rax
    11c2:	66 0f 1f 44 00 00    	nopw   0x0(%rax,%rax,1)
    11c8:	c3                   	retq   
    11c9:	0f 1f 80 00 00 00 00 	nopl   0x0(%rax)

00000000000011d0 <__do_global_dtors_aux>:
    11d0:	80 3d 21 51 00 00 00 	cmpb   $0x0,0x5121(%rip)        # 62f8 <completed.7447>
    11d7:	75 2f                	jne    1208 <__do_global_dtors_aux+0x38>
    11d9:	55                   	push   %rbp
    11da:	48 83 3d e6 4d 00 00 	cmpq   $0x0,0x4de6(%rip)        # 5fc8 <__cxa_finalize@GLIBC_2.2.5>
    11e1:	00 
    11e2:	48 89 e5             	mov    %rsp,%rbp
    11e5:	74 0c                	je     11f3 <__do_global_dtors_aux+0x23>
    11e7:	48 8b 3d aa 4e 00 00 	mov    0x4eaa(%rip),%rdi        # 6098 <__dso_handle>
    11ee:	e8 2d ff ff ff       	callq  1120 <__cxa_finalize@plt>
    11f3:	e8 68 ff ff ff       	callq  1160 <deregister_tm_clones>
    11f8:	c6 05 f9 50 00 00 01 	movb   $0x1,0x50f9(%rip)        # 62f8 <completed.7447>
    11ff:	5d                   	pop    %rbp
    1200:	c3                   	retq   
    1201:	0f 1f 80 00 00 00 00 	nopl   0x0(%rax)
    1208:	c3                   	retq   
    1209:	0f 1f 80 00 00 00 00 	nopl   0x0(%rax)

0000000000001210 <frame_dummy>:
    1210:	e9 7b ff ff ff       	jmpq   1190 <register_tm_clones>

0000000000001215 <_Z7decSortxx>:
    1215:	55                   	push   %rbp
    1216:	48 89 e5             	mov    %rsp,%rbp
    1219:	48 89 7d f8          	mov    %rdi,-0x8(%rbp)
    121d:	48 89 75 f0          	mov    %rsi,-0x10(%rbp)
    1221:	48 8b 45 f8          	mov    -0x8(%rbp),%rax
    1225:	48 3b 45 f0          	cmp    -0x10(%rbp),%rax
    1229:	0f 9f c0             	setg   %al
    122c:	5d                   	pop    %rbp
    122d:	c3                   	retq   

000000000000122e <_Z12max_of_arrayPxx>:
    122e:	55                   	push   %rbp
    122f:	48 89 e5             	mov    %rsp,%rbp
    1232:	48 89 7d e8          	mov    %rdi,-0x18(%rbp)
    1236:	48 89 75 e0          	mov    %rsi,-0x20(%rbp)
    123a:	48 8b 45 e8          	mov    -0x18(%rbp),%rax
    123e:	48 8b 00             	mov    (%rax),%rax
    1241:	48 89 45 f8          	mov    %rax,-0x8(%rbp)
    1245:	48 c7 45 f0 00 00 00 	movq   $0x0,-0x10(%rbp)
    124c:	00 
    124d:	48 8b 45 f0          	mov    -0x10(%rbp),%rax
    1251:	48 3b 45 e0          	cmp    -0x20(%rbp),%rax
    1255:	7d 3d                	jge    1294 <_Z12max_of_arrayPxx+0x66>
    1257:	48 8b 45 f0          	mov    -0x10(%rbp),%rax
    125b:	48 8d 14 c5 00 00 00 	lea    0x0(,%rax,8),%rdx
    1262:	00 
    1263:	48 8b 45 e8          	mov    -0x18(%rbp),%rax
    1267:	48 01 d0             	add    %rdx,%rax
    126a:	48 8b 00             	mov    (%rax),%rax
    126d:	48 39 45 f8          	cmp    %rax,-0x8(%rbp)
    1271:	7d 1a                	jge    128d <_Z12max_of_arrayPxx+0x5f>
    1273:	48 8b 45 f0          	mov    -0x10(%rbp),%rax
    1277:	48 8d 14 c5 00 00 00 	lea    0x0(,%rax,8),%rdx
    127e:	00 
    127f:	48 8b 45 e8          	mov    -0x18(%rbp),%rax
    1283:	48 01 d0             	add    %rdx,%rax
    1286:	48 8b 00             	mov    (%rax),%rax
    1289:	48 89 45 f8          	mov    %rax,-0x8(%rbp)
    128d:	48 83 45 f0 01       	addq   $0x1,-0x10(%rbp)
    1292:	eb b9                	jmp    124d <_Z12max_of_arrayPxx+0x1f>
    1294:	48 8b 45 f8          	mov    -0x8(%rbp),%rax
    1298:	5d                   	pop    %rbp
    1299:	c3                   	retq   

000000000000129a <_Z12min_of_arrayPxx>:
    129a:	55                   	push   %rbp
    129b:	48 89 e5             	mov    %rsp,%rbp
    129e:	48 89 7d e8          	mov    %rdi,-0x18(%rbp)
    12a2:	48 89 75 e0          	mov    %rsi,-0x20(%rbp)
    12a6:	48 8b 45 e8          	mov    -0x18(%rbp),%rax
    12aa:	48 8b 00             	mov    (%rax),%rax
    12ad:	48 89 45 f8          	mov    %rax,-0x8(%rbp)
    12b1:	48 c7 45 f0 00 00 00 	movq   $0x0,-0x10(%rbp)
    12b8:	00 
    12b9:	48 8b 45 f0          	mov    -0x10(%rbp),%rax
    12bd:	48 3b 45 e0          	cmp    -0x20(%rbp),%rax
    12c1:	7d 3d                	jge    1300 <_Z12min_of_arrayPxx+0x66>
    12c3:	48 8b 45 f0          	mov    -0x10(%rbp),%rax
    12c7:	48 8d 14 c5 00 00 00 	lea    0x0(,%rax,8),%rdx
    12ce:	00 
    12cf:	48 8b 45 e8          	mov    -0x18(%rbp),%rax
    12d3:	48 01 d0             	add    %rdx,%rax
    12d6:	48 8b 00             	mov    (%rax),%rax
    12d9:	48 39 45 f8          	cmp    %rax,-0x8(%rbp)
    12dd:	7e 1a                	jle    12f9 <_Z12min_of_arrayPxx+0x5f>
    12df:	48 8b 45 f0          	mov    -0x10(%rbp),%rax
    12e3:	48 8d 14 c5 00 00 00 	lea    0x0(,%rax,8),%rdx
    12ea:	00 
    12eb:	48 8b 45 e8          	mov    -0x18(%rbp),%rax
    12ef:	48 01 d0             	add    %rdx,%rax
    12f2:	48 8b 00             	mov    (%rax),%rax
    12f5:	48 89 45 f8          	mov    %rax,-0x8(%rbp)
    12f9:	48 83 45 f0 01       	addq   $0x1,-0x10(%rbp)
    12fe:	eb b9                	jmp    12b9 <_Z12min_of_arrayPxx+0x1f>
    1300:	48 8b 45 f8          	mov    -0x8(%rbp),%rax
    1304:	5d                   	pop    %rbp
    1305:	c3                   	retq   

0000000000001306 <main>:
    1306:	55                   	push   %rbp
    1307:	48 89 e5             	mov    %rsp,%rbp
    130a:	53                   	push   %rbx
    130b:	48 83 ec 68          	sub    $0x68,%rsp
    130f:	bf 00 00 00 00       	mov    $0x0,%edi
    1314:	e8 37 fd ff ff       	callq  1050 <_ZNSt8ios_base15sync_with_stdioEb@plt>
    1319:	be 00 00 00 00       	mov    $0x0,%esi
    131e:	48 8d 3d cb 4e 00 00 	lea    0x4ecb(%rip),%rdi        # 61f0 <_ZSt3cin@@GLIBCXX_3.4+0x10>
    1325:	e8 56 fd ff ff       	callq  1080 <_ZNSt9basic_iosIcSt11char_traitsIcEE3tieEPSo@plt>
    132a:	48 8d 45 cc          	lea    -0x34(%rbp),%rax
    132e:	48 89 c6             	mov    %rax,%rsi
    1331:	48 8d 3d a8 4e 00 00 	lea    0x4ea8(%rip),%rdi        # 61e0 <_ZSt3cin@@GLIBCXX_3.4>
    1338:	e8 33 fd ff ff       	callq  1070 <_ZNSirsERi@plt>
    133d:	48 89 c2             	mov    %rax,%rdx
    1340:	48 8d 45 c8          	lea    -0x38(%rbp),%rax
    1344:	48 89 c6             	mov    %rax,%rsi
    1347:	48 89 d7             	mov    %rdx,%rdi
    134a:	e8 21 fd ff ff       	callq  1070 <_ZNSirsERi@plt>
    134f:	48 8d 45 b0          	lea    -0x50(%rbp),%rax
    1353:	48 89 c7             	mov    %rax,%rdi
    1356:	e8 23 05 00 00       	callq  187e <_ZNSt6vectorISt4pairIiiESaIS1_EEC1Ev>
    135b:	c7 45 ec 00 00 00 00 	movl   $0x0,-0x14(%rbp)
    1362:	8b 45 c8             	mov    -0x38(%rbp),%eax
    1365:	39 45 ec             	cmp    %eax,-0x14(%rbp)
    1368:	7d 55                	jge    13bf <main+0xb9>
    136a:	48 8d 45 ac          	lea    -0x54(%rbp),%rax
    136e:	48 89 c6             	mov    %rax,%rsi
    1371:	48 8d 3d 68 4e 00 00 	lea    0x4e68(%rip),%rdi        # 61e0 <_ZSt3cin@@GLIBCXX_3.4>
    1378:	e8 f3 fc ff ff       	callq  1070 <_ZNSirsERi@plt>
    137d:	48 89 c2             	mov    %rax,%rdx
    1380:	48 8d 45 a8          	lea    -0x58(%rbp),%rax
    1384:	48 89 c6             	mov    %rax,%rsi
    1387:	48 89 d7             	mov    %rdx,%rdi
    138a:	e8 e1 fc ff ff       	callq  1070 <_ZNSirsERi@plt>
    138f:	48 8d 55 a8          	lea    -0x58(%rbp),%rdx
    1393:	48 8d 45 ac          	lea    -0x54(%rbp),%rax
    1397:	48 89 d6             	mov    %rdx,%rsi
    139a:	48 89 c7             	mov    %rax,%rdi
    139d:	e8 f8 05 00 00       	callq  199a <_ZSt9make_pairIRiS0_ESt4pairINSt17__decay_and_stripIT_E6__typeENS2_IT0_E6__typeEEOS3_OS6_>
    13a2:	48 89 45 d0          	mov    %rax,-0x30(%rbp)
    13a6:	48 8d 55 d0          	lea    -0x30(%rbp),%rdx
    13aa:	48 8d 45 b0          	lea    -0x50(%rbp),%rax
    13ae:	48 89 d6             	mov    %rdx,%rsi
    13b1:	48 89 c7             	mov    %rax,%rdi
    13b4:	e8 2d 06 00 00       	callq  19e6 <_ZNSt6vectorISt4pairIiiESaIS1_EE9push_backEOS1_>
    13b9:	83 45 ec 01          	addl   $0x1,-0x14(%rbp)
    13bd:	eb a3                	jmp    1362 <main+0x5c>
    13bf:	c6 45 eb 00          	movb   $0x0,-0x15(%rbp)
    13c3:	48 8d 45 b0          	lea    -0x50(%rbp),%rax
    13c7:	48 89 c7             	mov    %rax,%rdi
    13ca:	e8 49 06 00 00       	callq  1a18 <_ZNKSt6vectorISt4pairIiiESaIS1_EE4sizeEv>
    13cf:	48 83 f8 01          	cmp    $0x1,%rax
    13d3:	0f 94 c0             	sete   %al
    13d6:	84 c0                	test   %al,%al
    13d8:	74 09                	je     13e3 <main+0xdd>
    13da:	c6 45 eb 01          	movb   $0x1,-0x15(%rbp)
    13de:	e9 39 03 00 00       	jmpq   171c <main+0x416>
    13e3:	48 8d 45 b0          	lea    -0x50(%rbp),%rax
    13e7:	48 89 c7             	mov    %rax,%rdi
    13ea:	e8 29 06 00 00       	callq  1a18 <_ZNKSt6vectorISt4pairIiiESaIS1_EE4sizeEv>
    13ef:	48 83 f8 01          	cmp    $0x1,%rax
    13f3:	0f 94 c0             	sete   %al
    13f6:	84 c0                	test   %al,%al
    13f8:	0f 84 ce 00 00 00    	je     14cc <main+0x1c6>
    13fe:	48 8d 45 b0          	lea    -0x50(%rbp),%rax
    1402:	be 00 00 00 00       	mov    $0x0,%esi
    1407:	48 89 c7             	mov    %rax,%rdi
    140a:	e8 2d 06 00 00       	callq  1a3c <_ZNSt6vectorISt4pairIiiESaIS1_EEixEm>
    140f:	8b 18                	mov    (%rax),%ebx
    1411:	48 8d 45 b0          	lea    -0x50(%rbp),%rax
    1415:	be 01 00 00 00       	mov    $0x1,%esi
    141a:	48 89 c7             	mov    %rax,%rdi
    141d:	e8 1a 06 00 00       	callq  1a3c <_ZNSt6vectorISt4pairIiiESaIS1_EEixEm>
    1422:	8b 00                	mov    (%rax),%eax
    1424:	39 c3                	cmp    %eax,%ebx
    1426:	74 2b                	je     1453 <main+0x14d>
    1428:	48 8d 45 b0          	lea    -0x50(%rbp),%rax
    142c:	be 00 00 00 00       	mov    $0x0,%esi
    1431:	48 89 c7             	mov    %rax,%rdi
    1434:	e8 03 06 00 00       	callq  1a3c <_ZNSt6vectorISt4pairIiiESaIS1_EEixEm>
    1439:	8b 18                	mov    (%rax),%ebx
    143b:	48 8d 45 b0          	lea    -0x50(%rbp),%rax
    143f:	be 01 00 00 00       	mov    $0x1,%esi
    1444:	48 89 c7             	mov    %rax,%rdi
    1447:	e8 f0 05 00 00       	callq  1a3c <_ZNSt6vectorISt4pairIiiESaIS1_EEixEm>
    144c:	8b 40 04             	mov    0x4(%rax),%eax
    144f:	39 c3                	cmp    %eax,%ebx
    1451:	75 5e                	jne    14b1 <main+0x1ab>
    1453:	48 8d 45 b0          	lea    -0x50(%rbp),%rax
    1457:	be 00 00 00 00       	mov    $0x0,%esi
    145c:	48 89 c7             	mov    %rax,%rdi
    145f:	e8 d8 05 00 00       	callq  1a3c <_ZNSt6vectorISt4pairIiiESaIS1_EEixEm>
    1464:	8b 58 04             	mov    0x4(%rax),%ebx
    1467:	48 8d 45 b0          	lea    -0x50(%rbp),%rax
    146b:	be 01 00 00 00       	mov    $0x1,%esi
    1470:	48 89 c7             	mov    %rax,%rdi
    1473:	e8 c4 05 00 00       	callq  1a3c <_ZNSt6vectorISt4pairIiiESaIS1_EEixEm>
    1478:	8b 40 04             	mov    0x4(%rax),%eax
    147b:	39 c3                	cmp    %eax,%ebx
    147d:	74 2b                	je     14aa <main+0x1a4>
    147f:	48 8d 45 b0          	lea    -0x50(%rbp),%rax
    1483:	be 00 00 00 00       	mov    $0x0,%esi
    1488:	48 89 c7             	mov    %rax,%rdi
    148b:	e8 ac 05 00 00       	callq  1a3c <_ZNSt6vectorISt4pairIiiESaIS1_EEixEm>
    1490:	8b 58 04             	mov    0x4(%rax),%ebx
    1493:	48 8d 45 b0          	lea    -0x50(%rbp),%rax
    1497:	be 01 00 00 00       	mov    $0x1,%esi
    149c:	48 89 c7             	mov    %rax,%rdi
    149f:	e8 98 05 00 00       	callq  1a3c <_ZNSt6vectorISt4pairIiiESaIS1_EEixEm>
    14a4:	8b 00                	mov    (%rax),%eax
    14a6:	39 c3                	cmp    %eax,%ebx
    14a8:	75 07                	jne    14b1 <main+0x1ab>
    14aa:	b8 01 00 00 00       	mov    $0x1,%eax
    14af:	eb 05                	jmp    14b6 <main+0x1b0>
    14b1:	b8 00 00 00 00       	mov    $0x0,%eax
    14b6:	84 c0                	test   %al,%al
    14b8:	74 09                	je     14c3 <main+0x1bd>
    14ba:	c6 45 eb 01          	movb   $0x1,-0x15(%rbp)
    14be:	e9 59 02 00 00       	jmpq   171c <main+0x416>
    14c3:	c6 45 eb 00          	movb   $0x0,-0x15(%rbp)
    14c7:	e9 50 02 00 00       	jmpq   171c <main+0x416>
    14cc:	48 8d 45 b0          	lea    -0x50(%rbp),%rax
    14d0:	be 00 00 00 00       	mov    $0x0,%esi
    14d5:	48 89 c7             	mov    %rax,%rdi
    14d8:	e8 5f 05 00 00       	callq  1a3c <_ZNSt6vectorISt4pairIiiESaIS1_EEixEm>
    14dd:	8b 00                	mov    (%rax),%eax
    14df:	89 45 90             	mov    %eax,-0x70(%rbp)
    14e2:	48 8d 45 b0          	lea    -0x50(%rbp),%rax
    14e6:	be 00 00 00 00       	mov    $0x0,%esi
    14eb:	48 89 c7             	mov    %rax,%rdi
    14ee:	e8 49 05 00 00       	callq  1a3c <_ZNSt6vectorISt4pairIiiESaIS1_EEixEm>
    14f3:	8b 40 04             	mov    0x4(%rax),%eax
    14f6:	89 45 94             	mov    %eax,-0x6c(%rbp)
    14f9:	c7 45 e4 01 00 00 00 	movl   $0x1,-0x1c(%rbp)
    1500:	8b 45 e4             	mov    -0x1c(%rbp),%eax
    1503:	48 63 d8             	movslq %eax,%rbx
    1506:	48 8d 45 b0          	lea    -0x50(%rbp),%rax
    150a:	48 89 c7             	mov    %rax,%rdi
    150d:	e8 06 05 00 00       	callq  1a18 <_ZNKSt6vectorISt4pairIiiESaIS1_EE4sizeEv>
    1512:	48 39 c3             	cmp    %rax,%rbx
    1515:	0f 92 c0             	setb   %al
    1518:	84 c0                	test   %al,%al
    151a:	0f 84 ca 00 00 00    	je     15ea <main+0x2e4>
    1520:	8b 45 e4             	mov    -0x1c(%rbp),%eax
    1523:	48 63 d0             	movslq %eax,%rdx
    1526:	48 8d 45 b0          	lea    -0x50(%rbp),%rax
    152a:	48 89 d6             	mov    %rdx,%rsi
    152d:	48 89 c7             	mov    %rax,%rdi
    1530:	e8 07 05 00 00       	callq  1a3c <_ZNSt6vectorISt4pairIiiESaIS1_EEixEm>
    1535:	8b 10                	mov    (%rax),%edx
    1537:	8b 45 90             	mov    -0x70(%rbp),%eax
    153a:	39 c2                	cmp    %eax,%edx
    153c:	74 63                	je     15a1 <main+0x29b>
    153e:	8b 45 e4             	mov    -0x1c(%rbp),%eax
    1541:	48 63 d0             	movslq %eax,%rdx
    1544:	48 8d 45 b0          	lea    -0x50(%rbp),%rax
    1548:	48 89 d6             	mov    %rdx,%rsi
    154b:	48 89 c7             	mov    %rax,%rdi
    154e:	e8 e9 04 00 00       	callq  1a3c <_ZNSt6vectorISt4pairIiiESaIS1_EEixEm>
    1553:	8b 10                	mov    (%rax),%edx
    1555:	8b 45 94             	mov    -0x6c(%rbp),%eax
    1558:	39 c2                	cmp    %eax,%edx
    155a:	74 45                	je     15a1 <main+0x29b>
    155c:	8b 45 e4             	mov    -0x1c(%rbp),%eax
    155f:	48 63 d0             	movslq %eax,%rdx
    1562:	48 8d 45 b0          	lea    -0x50(%rbp),%rax
    1566:	48 89 d6             	mov    %rdx,%rsi
    1569:	48 89 c7             	mov    %rax,%rdi
    156c:	e8 cb 04 00 00       	callq  1a3c <_ZNSt6vectorISt4pairIiiESaIS1_EEixEm>
    1571:	8b 50 04             	mov    0x4(%rax),%edx
    1574:	8b 45 90             	mov    -0x70(%rbp),%eax
    1577:	39 c2                	cmp    %eax,%edx
    1579:	74 26                	je     15a1 <main+0x29b>
    157b:	8b 45 e4             	mov    -0x1c(%rbp),%eax
    157e:	48 63 d0             	movslq %eax,%rdx
    1581:	48 8d 45 b0          	lea    -0x50(%rbp),%rax
    1585:	48 89 d6             	mov    %rdx,%rsi
    1588:	48 89 c7             	mov    %rax,%rdi
    158b:	e8 ac 04 00 00       	callq  1a3c <_ZNSt6vectorISt4pairIiiESaIS1_EEixEm>
    1590:	8b 50 04             	mov    0x4(%rax),%edx
    1593:	8b 45 94             	mov    -0x6c(%rbp),%eax
    1596:	39 c2                	cmp    %eax,%edx
    1598:	74 07                	je     15a1 <main+0x29b>
    159a:	b8 01 00 00 00       	mov    $0x1,%eax
    159f:	eb 05                	jmp    15a6 <main+0x2a0>
    15a1:	b8 00 00 00 00       	mov    $0x0,%eax
    15a6:	84 c0                	test   %al,%al
    15a8:	74 37                	je     15e1 <main+0x2db>
    15aa:	8b 45 e4             	mov    -0x1c(%rbp),%eax
    15ad:	48 63 d0             	movslq %eax,%rdx
    15b0:	48 8d 45 b0          	lea    -0x50(%rbp),%rax
    15b4:	48 89 d6             	mov    %rdx,%rsi
    15b7:	48 89 c7             	mov    %rax,%rdi
    15ba:	e8 7d 04 00 00       	callq  1a3c <_ZNSt6vectorISt4pairIiiESaIS1_EEixEm>
    15bf:	8b 00                	mov    (%rax),%eax
    15c1:	89 45 98             	mov    %eax,-0x68(%rbp)
    15c4:	8b 45 e4             	mov    -0x1c(%rbp),%eax
    15c7:	48 63 d0             	movslq %eax,%rdx
    15ca:	48 8d 45 b0          	lea    -0x50(%rbp),%rax
    15ce:	48 89 d6             	mov    %rdx,%rsi
    15d1:	48 89 c7             	mov    %rax,%rdi
    15d4:	e8 63 04 00 00       	callq  1a3c <_ZNSt6vectorISt4pairIiiESaIS1_EEixEm>
    15d9:	8b 40 04             	mov    0x4(%rax),%eax
    15dc:	89 45 9c             	mov    %eax,-0x64(%rbp)
    15df:	eb 09                	jmp    15ea <main+0x2e4>
    15e1:	83 45 e4 01          	addl   $0x1,-0x1c(%rbp)
    15e5:	e9 16 ff ff ff       	jmpq   1500 <main+0x1fa>
    15ea:	c7 45 e0 00 00 00 00 	movl   $0x0,-0x20(%rbp)
    15f1:	83 7d e0 03          	cmpl   $0x3,-0x20(%rbp)
    15f5:	0f 8f 21 01 00 00    	jg     171c <main+0x416>
    15fb:	8b 45 e0             	mov    -0x20(%rbp),%eax
    15fe:	83 c0 01             	add    $0x1,%eax
    1601:	89 45 dc             	mov    %eax,-0x24(%rbp)
    1604:	83 7d dc 03          	cmpl   $0x3,-0x24(%rbp)
    1608:	0f 8f fe 00 00 00    	jg     170c <main+0x406>
    160e:	c7 45 d8 00 00 00 00 	movl   $0x0,-0x28(%rbp)
    1615:	8b 45 d8             	mov    -0x28(%rbp),%eax
    1618:	48 63 d8             	movslq %eax,%rbx
    161b:	48 8d 45 b0          	lea    -0x50(%rbp),%rax
    161f:	48 89 c7             	mov    %rax,%rdi
    1622:	e8 f1 03 00 00       	callq  1a18 <_ZNKSt6vectorISt4pairIiiESaIS1_EE4sizeEv>
    1627:	48 39 c3             	cmp    %rax,%rbx
    162a:	0f 92 c0             	setb   %al
    162d:	84 c0                	test   %al,%al
    162f:	0f 84 ac 00 00 00    	je     16e1 <main+0x3db>
    1635:	8b 45 d8             	mov    -0x28(%rbp),%eax
    1638:	48 63 d0             	movslq %eax,%rdx
    163b:	48 8d 45 b0          	lea    -0x50(%rbp),%rax
    163f:	48 89 d6             	mov    %rdx,%rsi
    1642:	48 89 c7             	mov    %rax,%rdi
    1645:	e8 f2 03 00 00       	callq  1a3c <_ZNSt6vectorISt4pairIiiESaIS1_EEixEm>
    164a:	8b 10                	mov    (%rax),%edx
    164c:	8b 45 e0             	mov    -0x20(%rbp),%eax
    164f:	48 98                	cltq   
    1651:	8b 44 85 90          	mov    -0x70(%rbp,%rax,4),%eax
    1655:	39 c2                	cmp    %eax,%edx
    1657:	74 75                	je     16ce <main+0x3c8>
    1659:	8b 45 d8             	mov    -0x28(%rbp),%eax
    165c:	48 63 d0             	movslq %eax,%rdx
    165f:	48 8d 45 b0          	lea    -0x50(%rbp),%rax
    1663:	48 89 d6             	mov    %rdx,%rsi
    1666:	48 89 c7             	mov    %rax,%rdi
    1669:	e8 ce 03 00 00       	callq  1a3c <_ZNSt6vectorISt4pairIiiESaIS1_EEixEm>
    166e:	8b 50 04             	mov    0x4(%rax),%edx
    1671:	8b 45 e0             	mov    -0x20(%rbp),%eax
    1674:	48 98                	cltq   
    1676:	8b 44 85 90          	mov    -0x70(%rbp,%rax,4),%eax
    167a:	39 c2                	cmp    %eax,%edx
    167c:	74 50                	je     16ce <main+0x3c8>
    167e:	8b 45 d8             	mov    -0x28(%rbp),%eax
    1681:	48 63 d0             	movslq %eax,%rdx
    1684:	48 8d 45 b0          	lea    -0x50(%rbp),%rax
    1688:	48 89 d6             	mov    %rdx,%rsi
    168b:	48 89 c7             	mov    %rax,%rdi
    168e:	e8 a9 03 00 00       	callq  1a3c <_ZNSt6vectorISt4pairIiiESaIS1_EEixEm>
    1693:	8b 10                	mov    (%rax),%edx
    1695:	8b 45 dc             	mov    -0x24(%rbp),%eax
    1698:	48 98                	cltq   
    169a:	8b 44 85 90          	mov    -0x70(%rbp,%rax,4),%eax
    169e:	39 c2                	cmp    %eax,%edx
    16a0:	74 2c                	je     16ce <main+0x3c8>
    16a2:	8b 45 d8             	mov    -0x28(%rbp),%eax
    16a5:	48 63 d0             	movslq %eax,%rdx
    16a8:	48 8d 45 b0          	lea    -0x50(%rbp),%rax
    16ac:	48 89 d6             	mov    %rdx,%rsi
    16af:	48 89 c7             	mov    %rax,%rdi
    16b2:	e8 85 03 00 00       	callq  1a3c <_ZNSt6vectorISt4pairIiiESaIS1_EEixEm>
    16b7:	8b 50 04             	mov    0x4(%rax),%edx
    16ba:	8b 45 dc             	mov    -0x24(%rbp),%eax
    16bd:	48 98                	cltq   
    16bf:	8b 44 85 90          	mov    -0x70(%rbp,%rax,4),%eax
    16c3:	39 c2                	cmp    %eax,%edx
    16c5:	74 07                	je     16ce <main+0x3c8>
    16c7:	b8 01 00 00 00       	mov    $0x1,%eax
    16cc:	eb 05                	jmp    16d3 <main+0x3cd>
    16ce:	b8 00 00 00 00       	mov    $0x0,%eax
    16d3:	84 c0                	test   %al,%al
    16d5:	75 09                	jne    16e0 <main+0x3da>
    16d7:	83 45 d8 01          	addl   $0x1,-0x28(%rbp)
    16db:	e9 35 ff ff ff       	jmpq   1615 <main+0x30f>
    16e0:	90                   	nop
    16e1:	8b 45 d8             	mov    -0x28(%rbp),%eax
    16e4:	48 63 d8             	movslq %eax,%rbx
    16e7:	48 8d 45 b0          	lea    -0x50(%rbp),%rax
    16eb:	48 89 c7             	mov    %rax,%rdi
    16ee:	e8 25 03 00 00       	callq  1a18 <_ZNKSt6vectorISt4pairIiiESaIS1_EE4sizeEv>
    16f3:	48 39 c3             	cmp    %rax,%rbx
    16f6:	0f 94 c0             	sete   %al
    16f9:	84 c0                	test   %al,%al
    16fb:	74 06                	je     1703 <main+0x3fd>
    16fd:	c6 45 eb 01          	movb   $0x1,-0x15(%rbp)
    1701:	eb 09                	jmp    170c <main+0x406>
    1703:	83 45 dc 01          	addl   $0x1,-0x24(%rbp)
    1707:	e9 f8 fe ff ff       	jmpq   1604 <main+0x2fe>
    170c:	80 7d eb 00          	cmpb   $0x0,-0x15(%rbp)
    1710:	75 09                	jne    171b <main+0x415>
    1712:	83 45 e0 01          	addl   $0x1,-0x20(%rbp)
    1716:	e9 d6 fe ff ff       	jmpq   15f1 <main+0x2eb>
    171b:	90                   	nop
    171c:	80 7d eb 00          	cmpb   $0x0,-0x15(%rbp)
    1720:	74 2a                	je     174c <main+0x446>
    1722:	48 8d 35 87 19 00 00 	lea    0x1987(%rip),%rsi        # 30b0 <_ZNSt8__detailL19_S_invalid_state_idE+0x8>
    1729:	48 8d 3d 90 49 00 00 	lea    0x4990(%rip),%rdi        # 60c0 <_ZSt4cout@@GLIBCXX_3.4>
    1730:	e8 7b f9 ff ff       	callq  10b0 <_ZStlsISt11char_traitsIcEERSt13basic_ostreamIcT_ES5_PKc@plt>
    1735:	48 89 c2             	mov    %rax,%rdx
    1738:	48 8b 05 91 48 00 00 	mov    0x4891(%rip),%rax        # 5fd0 <_ZSt4endlIcSt11char_traitsIcEERSt13basic_ostreamIT_T0_ES6_@GLIBCXX_3.4>
    173f:	48 89 c6             	mov    %rax,%rsi
    1742:	48 89 d7             	mov    %rdx,%rdi
    1745:	e8 86 f9 ff ff       	callq  10d0 <_ZNSolsEPFRSoS_E@plt>
    174a:	eb 28                	jmp    1774 <main+0x46e>
    174c:	48 8d 35 61 19 00 00 	lea    0x1961(%rip),%rsi        # 30b4 <_ZNSt8__detailL19_S_invalid_state_idE+0xc>
    1753:	48 8d 3d 66 49 00 00 	lea    0x4966(%rip),%rdi        # 60c0 <_ZSt4cout@@GLIBCXX_3.4>
    175a:	e8 51 f9 ff ff       	callq  10b0 <_ZStlsISt11char_traitsIcEERSt13basic_ostreamIcT_ES5_PKc@plt>
    175f:	48 89 c2             	mov    %rax,%rdx
    1762:	48 8b 05 67 48 00 00 	mov    0x4867(%rip),%rax        # 5fd0 <_ZSt4endlIcSt11char_traitsIcEERSt13basic_ostreamIT_T0_ES6_@GLIBCXX_3.4>
    1769:	48 89 c6             	mov    %rax,%rsi
    176c:	48 89 d7             	mov    %rdx,%rdi
    176f:	e8 5c f9 ff ff       	callq  10d0 <_ZNSolsEPFRSoS_E@plt>
    1774:	bb 00 00 00 00       	mov    $0x0,%ebx
    1779:	48 8d 45 b0          	lea    -0x50(%rbp),%rax
    177d:	48 89 c7             	mov    %rax,%rdi
    1780:	e8 d1 01 00 00       	callq  1956 <_ZNSt6vectorISt4pairIiiESaIS1_EED1Ev>
    1785:	89 d8                	mov    %ebx,%eax
    1787:	eb 1a                	jmp    17a3 <main+0x49d>
    1789:	48 89 c3             	mov    %rax,%rbx
    178c:	48 8d 45 b0          	lea    -0x50(%rbp),%rax
    1790:	48 89 c7             	mov    %rax,%rdi
    1793:	e8 be 01 00 00       	callq  1956 <_ZNSt6vectorISt4pairIiiESaIS1_EED1Ev>
    1798:	48 89 d8             	mov    %rbx,%rax
    179b:	48 89 c7             	mov    %rax,%rdi
    179e:	e8 6d f9 ff ff       	callq  1110 <_Unwind_Resume@plt>
    17a3:	48 83 c4 68          	add    $0x68,%rsp
    17a7:	5b                   	pop    %rbx
    17a8:	5d                   	pop    %rbp
    17a9:	c3                   	retq   

00000000000017aa <_Z41__static_initialization_and_destruction_0ii>:
    17aa:	55                   	push   %rbp
    17ab:	48 89 e5             	mov    %rsp,%rbp
    17ae:	48 83 ec 10          	sub    $0x10,%rsp
    17b2:	89 7d fc             	mov    %edi,-0x4(%rbp)
    17b5:	89 75 f8             	mov    %esi,-0x8(%rbp)
    17b8:	83 7d fc 01          	cmpl   $0x1,-0x4(%rbp)
    17bc:	75 32                	jne    17f0 <_Z41__static_initialization_and_destruction_0ii+0x46>
    17be:	81 7d f8 ff ff 00 00 	cmpl   $0xffff,-0x8(%rbp)
    17c5:	75 29                	jne    17f0 <_Z41__static_initialization_and_destruction_0ii+0x46>
    17c7:	48 8d 3d 2b 4b 00 00 	lea    0x4b2b(%rip),%rdi        # 62f9 <_ZStL8__ioinit>
    17ce:	e8 1d f9 ff ff       	callq  10f0 <_ZNSt8ios_base4InitC1Ev@plt>
    17d3:	48 8d 15 be 48 00 00 	lea    0x48be(%rip),%rdx        # 6098 <__dso_handle>
    17da:	48 8d 35 18 4b 00 00 	lea    0x4b18(%rip),%rsi        # 62f9 <_ZStL8__ioinit>
    17e1:	48 8b 05 10 48 00 00 	mov    0x4810(%rip),%rax        # 5ff8 <_ZNSt8ios_base4InitD1Ev@GLIBCXX_3.4>
    17e8:	48 89 c7             	mov    %rax,%rdi
    17eb:	e8 a0 f8 ff ff       	callq  1090 <__cxa_atexit@plt>
    17f0:	90                   	nop
    17f1:	c9                   	leaveq 
    17f2:	c3                   	retq   

00000000000017f3 <_GLOBAL__sub_I__Z7decSortxx>:
    17f3:	55                   	push   %rbp
    17f4:	48 89 e5             	mov    %rsp,%rbp
    17f7:	be ff ff 00 00       	mov    $0xffff,%esi
    17fc:	bf 01 00 00 00       	mov    $0x1,%edi
    1801:	e8 a4 ff ff ff       	callq  17aa <_Z41__static_initialization_and_destruction_0ii>
    1806:	5d                   	pop    %rbp
    1807:	c3                   	retq   

0000000000001808 <_ZnwmPv>:
    1808:	55                   	push   %rbp
    1809:	48 89 e5             	mov    %rsp,%rbp
    180c:	48 89 7d f8          	mov    %rdi,-0x8(%rbp)
    1810:	48 89 75 f0          	mov    %rsi,-0x10(%rbp)
    1814:	48 8b 45 f0          	mov    -0x10(%rbp),%rax
    1818:	5d                   	pop    %rbp
    1819:	c3                   	retq   

000000000000181a <_ZSt3minImERKT_S2_S2_>:
    181a:	55                   	push   %rbp
    181b:	48 89 e5             	mov    %rsp,%rbp
    181e:	48 89 7d f8          	mov    %rdi,-0x8(%rbp)
    1822:	48 89 75 f0          	mov    %rsi,-0x10(%rbp)
    1826:	48 8b 45 f0          	mov    -0x10(%rbp),%rax
    182a:	48 8b 10             	mov    (%rax),%rdx
    182d:	48 8b 45 f8          	mov    -0x8(%rbp),%rax
    1831:	48 8b 00             	mov    (%rax),%rax
    1834:	48 39 c2             	cmp    %rax,%rdx
    1837:	73 06                	jae    183f <_ZSt3minImERKT_S2_S2_+0x25>
    1839:	48 8b 45 f0          	mov    -0x10(%rbp),%rax
    183d:	eb 04                	jmp    1843 <_ZSt3minImERKT_S2_S2_+0x29>
    183f:	48 8b 45 f8          	mov    -0x8(%rbp),%rax
    1843:	5d                   	pop    %rbp
    1844:	c3                   	retq   
    1845:	90                   	nop

0000000000001846 <_ZNSt12_Vector_baseISt4pairIiiESaIS1_EE12_Vector_implD1Ev>:
    1846:	55                   	push   %rbp
    1847:	48 89 e5             	mov    %rsp,%rbp
    184a:	48 83 ec 10          	sub    $0x10,%rsp
    184e:	48 89 7d f8          	mov    %rdi,-0x8(%rbp)
    1852:	48 8b 45 f8          	mov    -0x8(%rbp),%rax
    1856:	48 89 c7             	mov    %rax,%rdi
    1859:	e8 8e 00 00 00       	callq  18ec <_ZNSaISt4pairIiiEED1Ev>
    185e:	90                   	nop
    185f:	c9                   	leaveq 
    1860:	c3                   	retq   
    1861:	90                   	nop

0000000000001862 <_ZNSt12_Vector_baseISt4pairIiiESaIS1_EEC1Ev>:
    1862:	55                   	push   %rbp
    1863:	48 89 e5             	mov    %rsp,%rbp
    1866:	48 83 ec 10          	sub    $0x10,%rsp
    186a:	48 89 7d f8          	mov    %rdi,-0x8(%rbp)
    186e:	48 8b 45 f8          	mov    -0x8(%rbp),%rax
    1872:	48 89 c7             	mov    %rax,%rdi
    1875:	e8 4a 00 00 00       	callq  18c4 <_ZNSt12_Vector_baseISt4pairIiiESaIS1_EE12_Vector_implC1Ev>
    187a:	90                   	nop
    187b:	c9                   	leaveq 
    187c:	c3                   	retq   
    187d:	90                   	nop

000000000000187e <_ZNSt6vectorISt4pairIiiESaIS1_EEC1Ev>:
    187e:	55                   	push   %rbp
    187f:	48 89 e5             	mov    %rsp,%rbp
    1882:	48 83 ec 10          	sub    $0x10,%rsp
    1886:	48 89 7d f8          	mov    %rdi,-0x8(%rbp)
    188a:	48 8b 45 f8          	mov    -0x8(%rbp),%rax
    188e:	48 89 c7             	mov    %rax,%rdi
    1891:	e8 cc ff ff ff       	callq  1862 <_ZNSt12_Vector_baseISt4pairIiiESaIS1_EEC1Ev>
    1896:	90                   	nop
    1897:	c9                   	leaveq 
    1898:	c3                   	retq   

0000000000001899 <_ZSt3maxImERKT_S2_S2_>:
    1899:	55                   	push   %rbp
    189a:	48 89 e5             	mov    %rsp,%rbp
    189d:	48 89 7d f8          	mov    %rdi,-0x8(%rbp)
    18a1:	48 89 75 f0          	mov    %rsi,-0x10(%rbp)
    18a5:	48 8b 45 f8          	mov    -0x8(%rbp),%rax
    18a9:	48 8b 10             	mov    (%rax),%rdx
    18ac:	48 8b 45 f0          	mov    -0x10(%rbp),%rax
    18b0:	48 8b 00             	mov    (%rax),%rax
    18b3:	48 39 c2             	cmp    %rax,%rdx
    18b6:	73 06                	jae    18be <_ZSt3maxImERKT_S2_S2_+0x25>
    18b8:	48 8b 45 f0          	mov    -0x10(%rbp),%rax
    18bc:	eb 04                	jmp    18c2 <_ZSt3maxImERKT_S2_S2_+0x29>
    18be:	48 8b 45 f8          	mov    -0x8(%rbp),%rax
    18c2:	5d                   	pop    %rbp
    18c3:	c3                   	retq   

00000000000018c4 <_ZNSt12_Vector_baseISt4pairIiiESaIS1_EE12_Vector_implC1Ev>:
    18c4:	55                   	push   %rbp
    18c5:	48 89 e5             	mov    %rsp,%rbp
    18c8:	48 83 ec 10          	sub    $0x10,%rsp
    18cc:	48 89 7d f8          	mov    %rdi,-0x8(%rbp)
    18d0:	48 8b 45 f8          	mov    -0x8(%rbp),%rax
    18d4:	48 89 c7             	mov    %rax,%rdi
    18d7:	e8 80 01 00 00       	callq  1a5c <_ZNSaISt4pairIiiEEC1Ev>
    18dc:	48 8b 45 f8          	mov    -0x8(%rbp),%rax
    18e0:	48 89 c7             	mov    %rax,%rdi
    18e3:	e8 90 01 00 00       	callq  1a78 <_ZNSt12_Vector_baseISt4pairIiiESaIS1_EE17_Vector_impl_dataC1Ev>
    18e8:	90                   	nop
    18e9:	c9                   	leaveq 
    18ea:	c3                   	retq   
    18eb:	90                   	nop

00000000000018ec <_ZNSaISt4pairIiiEED1Ev>:
    18ec:	55                   	push   %rbp
    18ed:	48 89 e5             	mov    %rsp,%rbp
    18f0:	48 83 ec 10          	sub    $0x10,%rsp
    18f4:	48 89 7d f8          	mov    %rdi,-0x8(%rbp)
    18f8:	48 8b 45 f8          	mov    -0x8(%rbp),%rax
    18fc:	48 89 c7             	mov    %rax,%rdi
    18ff:	e8 a2 01 00 00       	callq  1aa6 <_ZN9__gnu_cxx13new_allocatorISt4pairIiiEED1Ev>
    1904:	90                   	nop
    1905:	c9                   	leaveq 
    1906:	c3                   	retq   
    1907:	90                   	nop

0000000000001908 <_ZNSt12_Vector_baseISt4pairIiiESaIS1_EED1Ev>:
    1908:	55                   	push   %rbp
    1909:	48 89 e5             	mov    %rsp,%rbp
    190c:	48 83 ec 10          	sub    $0x10,%rsp
    1910:	48 89 7d f8          	mov    %rdi,-0x8(%rbp)
    1914:	48 8b 45 f8          	mov    -0x8(%rbp),%rax
    1918:	48 8b 50 10          	mov    0x10(%rax),%rdx
    191c:	48 8b 45 f8          	mov    -0x8(%rbp),%rax
    1920:	48 8b 00             	mov    (%rax),%rax
    1923:	48 29 c2             	sub    %rax,%rdx
    1926:	48 89 d0             	mov    %rdx,%rax
    1929:	48 c1 f8 03          	sar    $0x3,%rax
    192d:	48 89 c2             	mov    %rax,%rdx
    1930:	48 8b 45 f8          	mov    -0x8(%rbp),%rax
    1934:	48 8b 08             	mov    (%rax),%rcx
    1937:	48 8b 45 f8          	mov    -0x8(%rbp),%rax
    193b:	48 89 ce             	mov    %rcx,%rsi
    193e:	48 89 c7             	mov    %rax,%rdi
    1941:	e8 6c 01 00 00       	callq  1ab2 <_ZNSt12_Vector_baseISt4pairIiiESaIS1_EE13_M_deallocateEPS1_m>
    1946:	48 8b 45 f8          	mov    -0x8(%rbp),%rax
    194a:	48 89 c7             	mov    %rax,%rdi
    194d:	e8 f4 fe ff ff       	callq  1846 <_ZNSt12_Vector_baseISt4pairIiiESaIS1_EE12_Vector_implD1Ev>
    1952:	90                   	nop
    1953:	c9                   	leaveq 
    1954:	c3                   	retq   
    1955:	90                   	nop

0000000000001956 <_ZNSt6vectorISt4pairIiiESaIS1_EED1Ev>:
    1956:	55                   	push   %rbp
    1957:	48 89 e5             	mov    %rsp,%rbp
    195a:	48 83 ec 10          	sub    $0x10,%rsp
    195e:	48 89 7d f8          	mov    %rdi,-0x8(%rbp)
    1962:	48 8b 45 f8          	mov    -0x8(%rbp),%rax
    1966:	48 89 c7             	mov    %rax,%rdi
    1969:	e8 7a 01 00 00       	callq  1ae8 <_ZNSt12_Vector_baseISt4pairIiiESaIS1_EE19_M_get_Tp_allocatorEv>
    196e:	48 89 c2             	mov    %rax,%rdx
    1971:	48 8b 45 f8          	mov    -0x8(%rbp),%rax
    1975:	48 8b 48 08          	mov    0x8(%rax),%rcx
    1979:	48 8b 45 f8          	mov    -0x8(%rbp),%rax
    197d:	48 8b 00             	mov    (%rax),%rax
    1980:	48 89 ce             	mov    %rcx,%rsi
    1983:	48 89 c7             	mov    %rax,%rdi
    1986:	e8 6b 01 00 00       	callq  1af6 <_ZSt8_DestroyIPSt4pairIiiES1_EvT_S3_RSaIT0_E>
    198b:	48 8b 45 f8          	mov    -0x8(%rbp),%rax
    198f:	48 89 c7             	mov    %rax,%rdi
    1992:	e8 71 ff ff ff       	callq  1908 <_ZNSt12_Vector_baseISt4pairIiiESaIS1_EED1Ev>
    1997:	90                   	nop
    1998:	c9                   	leaveq 
    1999:	c3                   	retq   

000000000000199a <_ZSt9make_pairIRiS0_ESt4pairINSt17__decay_and_stripIT_E6__typeENS2_IT0_E6__typeEEOS3_OS6_>:
    199a:	55                   	push   %rbp
    199b:	48 89 e5             	mov    %rsp,%rbp
    199e:	53                   	push   %rbx
    199f:	48 83 ec 28          	sub    $0x28,%rsp
    19a3:	48 89 7d d8          	mov    %rdi,-0x28(%rbp)
    19a7:	48 89 75 d0          	mov    %rsi,-0x30(%rbp)
    19ab:	48 8b 45 d0          	mov    -0x30(%rbp),%rax
    19af:	48 89 c7             	mov    %rax,%rdi
    19b2:	e8 69 01 00 00       	callq  1b20 <_ZSt7forwardIRiEOT_RNSt16remove_referenceIS1_E4typeE>
    19b7:	48 89 c3             	mov    %rax,%rbx
    19ba:	48 8b 45 d8          	mov    -0x28(%rbp),%rax
    19be:	48 89 c7             	mov    %rax,%rdi
    19c1:	e8 5a 01 00 00       	callq  1b20 <_ZSt7forwardIRiEOT_RNSt16remove_referenceIS1_E4typeE>
    19c6:	48 89 c1             	mov    %rax,%rcx
    19c9:	48 8d 45 e8          	lea    -0x18(%rbp),%rax
    19cd:	48 89 da             	mov    %rbx,%rdx
    19d0:	48 89 ce             	mov    %rcx,%rsi
    19d3:	48 89 c7             	mov    %rax,%rdi
    19d6:	e8 53 01 00 00       	callq  1b2e <_ZNSt4pairIiiEC1IRiS2_Lb1EEEOT_OT0_>
    19db:	48 8b 45 e8          	mov    -0x18(%rbp),%rax
    19df:	48 83 c4 28          	add    $0x28,%rsp
    19e3:	5b                   	pop    %rbx
    19e4:	5d                   	pop    %rbp
    19e5:	c3                   	retq   

00000000000019e6 <_ZNSt6vectorISt4pairIiiESaIS1_EE9push_backEOS1_>:
    19e6:	55                   	push   %rbp
    19e7:	48 89 e5             	mov    %rsp,%rbp
    19ea:	48 83 ec 10          	sub    $0x10,%rsp
    19ee:	48 89 7d f8          	mov    %rdi,-0x8(%rbp)
    19f2:	48 89 75 f0          	mov    %rsi,-0x10(%rbp)
    19f6:	48 8b 45 f0          	mov    -0x10(%rbp),%rax
    19fa:	48 89 c7             	mov    %rax,%rdi
    19fd:	e8 6c 01 00 00       	callq  1b6e <_ZSt4moveIRSt4pairIiiEEONSt16remove_referenceIT_E4typeEOS4_>
    1a02:	48 89 c2             	mov    %rax,%rdx
    1a05:	48 8b 45 f8          	mov    -0x8(%rbp),%rax
    1a09:	48 89 d6             	mov    %rdx,%rsi
    1a0c:	48 89 c7             	mov    %rax,%rdi
    1a0f:	e8 68 01 00 00       	callq  1b7c <_ZNSt6vectorISt4pairIiiESaIS1_EE12emplace_backIJS1_EEEvDpOT_>
    1a14:	90                   	nop
    1a15:	c9                   	leaveq 
    1a16:	c3                   	retq   
    1a17:	90                   	nop

0000000000001a18 <_ZNKSt6vectorISt4pairIiiESaIS1_EE4sizeEv>:
    1a18:	55                   	push   %rbp
    1a19:	48 89 e5             	mov    %rsp,%rbp
    1a1c:	48 89 7d f8          	mov    %rdi,-0x8(%rbp)
    1a20:	48 8b 45 f8          	mov    -0x8(%rbp),%rax
    1a24:	48 8b 50 08          	mov    0x8(%rax),%rdx
    1a28:	48 8b 45 f8          	mov    -0x8(%rbp),%rax
    1a2c:	48 8b 00             	mov    (%rax),%rax
    1a2f:	48 29 c2             	sub    %rax,%rdx
    1a32:	48 89 d0             	mov    %rdx,%rax
    1a35:	48 c1 f8 03          	sar    $0x3,%rax
    1a39:	5d                   	pop    %rbp
    1a3a:	c3                   	retq   
    1a3b:	90                   	nop

0000000000001a3c <_ZNSt6vectorISt4pairIiiESaIS1_EEixEm>:
    1a3c:	55                   	push   %rbp
    1a3d:	48 89 e5             	mov    %rsp,%rbp
    1a40:	48 89 7d f8          	mov    %rdi,-0x8(%rbp)
    1a44:	48 89 75 f0          	mov    %rsi,-0x10(%rbp)
    1a48:	48 8b 45 f8          	mov    -0x8(%rbp),%rax
    1a4c:	48 8b 00             	mov    (%rax),%rax
    1a4f:	48 8b 55 f0          	mov    -0x10(%rbp),%rdx
    1a53:	48 c1 e2 03          	shl    $0x3,%rdx
    1a57:	48 01 d0             	add    %rdx,%rax
    1a5a:	5d                   	pop    %rbp
    1a5b:	c3                   	retq   

0000000000001a5c <_ZNSaISt4pairIiiEEC1Ev>:
    1a5c:	55                   	push   %rbp
    1a5d:	48 89 e5             	mov    %rsp,%rbp
    1a60:	48 83 ec 10          	sub    $0x10,%rsp
    1a64:	48 89 7d f8          	mov    %rdi,-0x8(%rbp)
    1a68:	48 8b 45 f8          	mov    -0x8(%rbp),%rax
    1a6c:	48 89 c7             	mov    %rax,%rdi
    1a6f:	e8 a2 01 00 00       	callq  1c16 <_ZN9__gnu_cxx13new_allocatorISt4pairIiiEEC1Ev>
    1a74:	90                   	nop
    1a75:	c9                   	leaveq 
    1a76:	c3                   	retq   
    1a77:	90                   	nop

0000000000001a78 <_ZNSt12_Vector_baseISt4pairIiiESaIS1_EE17_Vector_impl_dataC1Ev>:
    1a78:	55                   	push   %rbp
    1a79:	48 89 e5             	mov    %rsp,%rbp
    1a7c:	48 89 7d f8          	mov    %rdi,-0x8(%rbp)
    1a80:	48 8b 45 f8          	mov    -0x8(%rbp),%rax
    1a84:	48 c7 00 00 00 00 00 	movq   $0x0,(%rax)
    1a8b:	48 8b 45 f8          	mov    -0x8(%rbp),%rax
    1a8f:	48 c7 40 08 00 00 00 	movq   $0x0,0x8(%rax)
    1a96:	00 
    1a97:	48 8b 45 f8          	mov    -0x8(%rbp),%rax
    1a9b:	48 c7 40 10 00 00 00 	movq   $0x0,0x10(%rax)
    1aa2:	00 
    1aa3:	90                   	nop
    1aa4:	5d                   	pop    %rbp
    1aa5:	c3                   	retq   

0000000000001aa6 <_ZN9__gnu_cxx13new_allocatorISt4pairIiiEED1Ev>:
    1aa6:	55                   	push   %rbp
    1aa7:	48 89 e5             	mov    %rsp,%rbp
    1aaa:	48 89 7d f8          	mov    %rdi,-0x8(%rbp)
    1aae:	90                   	nop
    1aaf:	5d                   	pop    %rbp
    1ab0:	c3                   	retq   
    1ab1:	90                   	nop

0000000000001ab2 <_ZNSt12_Vector_baseISt4pairIiiESaIS1_EE13_M_deallocateEPS1_m>:
    1ab2:	55                   	push   %rbp
    1ab3:	48 89 e5             	mov    %rsp,%rbp
    1ab6:	48 83 ec 20          	sub    $0x20,%rsp
    1aba:	48 89 7d f8          	mov    %rdi,-0x8(%rbp)
    1abe:	48 89 75 f0          	mov    %rsi,-0x10(%rbp)
    1ac2:	48 89 55 e8          	mov    %rdx,-0x18(%rbp)
    1ac6:	48 83 7d f0 00       	cmpq   $0x0,-0x10(%rbp)
    1acb:	74 17                	je     1ae4 <_ZNSt12_Vector_baseISt4pairIiiESaIS1_EE13_M_deallocateEPS1_m+0x32>
    1acd:	48 8b 45 f8          	mov    -0x8(%rbp),%rax
    1ad1:	48 8b 55 e8          	mov    -0x18(%rbp),%rdx
    1ad5:	48 8b 4d f0          	mov    -0x10(%rbp),%rcx
    1ad9:	48 89 ce             	mov    %rcx,%rsi
    1adc:	48 89 c7             	mov    %rax,%rdi
    1adf:	e8 3d 01 00 00       	callq  1c21 <_ZNSt16allocator_traitsISaISt4pairIiiEEE10deallocateERS2_PS1_m>
    1ae4:	90                   	nop
    1ae5:	c9                   	leaveq 
    1ae6:	c3                   	retq   
    1ae7:	90                   	nop

0000000000001ae8 <_ZNSt12_Vector_baseISt4pairIiiESaIS1_EE19_M_get_Tp_allocatorEv>:
    1ae8:	55                   	push   %rbp
    1ae9:	48 89 e5             	mov    %rsp,%rbp
    1aec:	48 89 7d f8          	mov    %rdi,-0x8(%rbp)
    1af0:	48 8b 45 f8          	mov    -0x8(%rbp),%rax
    1af4:	5d                   	pop    %rbp
    1af5:	c3                   	retq   

0000000000001af6 <_ZSt8_DestroyIPSt4pairIiiES1_EvT_S3_RSaIT0_E>:
    1af6:	55                   	push   %rbp
    1af7:	48 89 e5             	mov    %rsp,%rbp
    1afa:	48 83 ec 20          	sub    $0x20,%rsp
    1afe:	48 89 7d f8          	mov    %rdi,-0x8(%rbp)
    1b02:	48 89 75 f0          	mov    %rsi,-0x10(%rbp)
    1b06:	48 89 55 e8          	mov    %rdx,-0x18(%rbp)
    1b0a:	48 8b 55 f0          	mov    -0x10(%rbp),%rdx
    1b0e:	48 8b 45 f8          	mov    -0x8(%rbp),%rax
    1b12:	48 89 d6             	mov    %rdx,%rsi
    1b15:	48 89 c7             	mov    %rax,%rdi
    1b18:	e8 32 01 00 00       	callq  1c4f <_ZSt8_DestroyIPSt4pairIiiEEvT_S3_>
    1b1d:	90                   	nop
    1b1e:	c9                   	leaveq 
    1b1f:	c3                   	retq   

0000000000001b20 <_ZSt7forwardIRiEOT_RNSt16remove_referenceIS1_E4typeE>:
    1b20:	55                   	push   %rbp
    1b21:	48 89 e5             	mov    %rsp,%rbp
    1b24:	48 89 7d f8          	mov    %rdi,-0x8(%rbp)
    1b28:	48 8b 45 f8          	mov    -0x8(%rbp),%rax
    1b2c:	5d                   	pop    %rbp
    1b2d:	c3                   	retq   

0000000000001b2e <_ZNSt4pairIiiEC1IRiS2_Lb1EEEOT_OT0_>:
    1b2e:	55                   	push   %rbp
    1b2f:	48 89 e5             	mov    %rsp,%rbp
    1b32:	48 83 ec 20          	sub    $0x20,%rsp
    1b36:	48 89 7d f8          	mov    %rdi,-0x8(%rbp)
    1b3a:	48 89 75 f0          	mov    %rsi,-0x10(%rbp)
    1b3e:	48 89 55 e8          	mov    %rdx,-0x18(%rbp)
    1b42:	48 8b 45 f0          	mov    -0x10(%rbp),%rax
    1b46:	48 89 c7             	mov    %rax,%rdi
    1b49:	e8 d2 ff ff ff       	callq  1b20 <_ZSt7forwardIRiEOT_RNSt16remove_referenceIS1_E4typeE>
    1b4e:	8b 10                	mov    (%rax),%edx
    1b50:	48 8b 45 f8          	mov    -0x8(%rbp),%rax
    1b54:	89 10                	mov    %edx,(%rax)
    1b56:	48 8b 45 e8          	mov    -0x18(%rbp),%rax
    1b5a:	48 89 c7             	mov    %rax,%rdi
    1b5d:	e8 be ff ff ff       	callq  1b20 <_ZSt7forwardIRiEOT_RNSt16remove_referenceIS1_E4typeE>
    1b62:	8b 10                	mov    (%rax),%edx
    1b64:	48 8b 45 f8          	mov    -0x8(%rbp),%rax
    1b68:	89 50 04             	mov    %edx,0x4(%rax)
    1b6b:	90                   	nop
    1b6c:	c9                   	leaveq 
    1b6d:	c3                   	retq   

0000000000001b6e <_ZSt4moveIRSt4pairIiiEEONSt16remove_referenceIT_E4typeEOS4_>:
    1b6e:	55                   	push   %rbp
    1b6f:	48 89 e5             	mov    %rsp,%rbp
    1b72:	48 89 7d f8          	mov    %rdi,-0x8(%rbp)
    1b76:	48 8b 45 f8          	mov    -0x8(%rbp),%rax
    1b7a:	5d                   	pop    %rbp
    1b7b:	c3                   	retq   

0000000000001b7c <_ZNSt6vectorISt4pairIiiESaIS1_EE12emplace_backIJS1_EEEvDpOT_>:
    1b7c:	55                   	push   %rbp
    1b7d:	48 89 e5             	mov    %rsp,%rbp
    1b80:	53                   	push   %rbx
    1b81:	48 83 ec 18          	sub    $0x18,%rsp
    1b85:	48 89 7d e8          	mov    %rdi,-0x18(%rbp)
    1b89:	48 89 75 e0          	mov    %rsi,-0x20(%rbp)
    1b8d:	48 8b 45 e8          	mov    -0x18(%rbp),%rax
    1b91:	48 8b 50 08          	mov    0x8(%rax),%rdx
    1b95:	48 8b 45 e8          	mov    -0x18(%rbp),%rax
    1b99:	48 8b 40 10          	mov    0x10(%rax),%rax
    1b9d:	48 39 c2             	cmp    %rax,%rdx
    1ba0:	74 3c                	je     1bde <_ZNSt6vectorISt4pairIiiESaIS1_EE12emplace_backIJS1_EEEvDpOT_+0x62>
    1ba2:	48 8b 45 e0          	mov    -0x20(%rbp),%rax
    1ba6:	48 89 c7             	mov    %rax,%rdi
    1ba9:	e8 c7 00 00 00       	callq  1c75 <_ZSt7forwardISt4pairIiiEEOT_RNSt16remove_referenceIS2_E4typeE>
    1bae:	48 89 c2             	mov    %rax,%rdx
    1bb1:	48 8b 45 e8          	mov    -0x18(%rbp),%rax
    1bb5:	48 8b 48 08          	mov    0x8(%rax),%rcx
    1bb9:	48 8b 45 e8          	mov    -0x18(%rbp),%rax
    1bbd:	48 89 ce             	mov    %rcx,%rsi
    1bc0:	48 89 c7             	mov    %rax,%rdi
    1bc3:	e8 bb 00 00 00       	callq  1c83 <_ZNSt16allocator_traitsISaISt4pairIiiEEE9constructIS1_JS1_EEEvRS2_PT_DpOT0_>
    1bc8:	48 8b 45 e8          	mov    -0x18(%rbp),%rax
    1bcc:	48 8b 40 08          	mov    0x8(%rax),%rax
    1bd0:	48 8d 50 08          	lea    0x8(%rax),%rdx
    1bd4:	48 8b 45 e8          	mov    -0x18(%rbp),%rax
    1bd8:	48 89 50 08          	mov    %rdx,0x8(%rax)
    1bdc:	eb 30                	jmp    1c0e <_ZNSt6vectorISt4pairIiiESaIS1_EE12emplace_backIJS1_EEEvDpOT_+0x92>
    1bde:	48 8b 45 e0          	mov    -0x20(%rbp),%rax
    1be2:	48 89 c7             	mov    %rax,%rdi
    1be5:	e8 8b 00 00 00       	callq  1c75 <_ZSt7forwardISt4pairIiiEEOT_RNSt16remove_referenceIS2_E4typeE>
    1bea:	48 89 c3             	mov    %rax,%rbx
    1bed:	48 8b 45 e8          	mov    -0x18(%rbp),%rax
    1bf1:	48 89 c7             	mov    %rax,%rdi
    1bf4:	e8 c3 00 00 00       	callq  1cbc <_ZNSt6vectorISt4pairIiiESaIS1_EE3endEv>
    1bf9:	48 89 c1             	mov    %rax,%rcx
    1bfc:	48 8b 45 e8          	mov    -0x18(%rbp),%rax
    1c00:	48 89 da             	mov    %rbx,%rdx
    1c03:	48 89 ce             	mov    %rcx,%rsi
    1c06:	48 89 c7             	mov    %rax,%rdi
    1c09:	e8 f2 00 00 00       	callq  1d00 <_ZNSt6vectorISt4pairIiiESaIS1_EE17_M_realloc_insertIJS1_EEEvN9__gnu_cxx17__normal_iteratorIPS1_S3_EEDpOT_>
    1c0e:	90                   	nop
    1c0f:	48 83 c4 18          	add    $0x18,%rsp
    1c13:	5b                   	pop    %rbx
    1c14:	5d                   	pop    %rbp
    1c15:	c3                   	retq   

0000000000001c16 <_ZN9__gnu_cxx13new_allocatorISt4pairIiiEEC1Ev>:
    1c16:	55                   	push   %rbp
    1c17:	48 89 e5             	mov    %rsp,%rbp
    1c1a:	48 89 7d f8          	mov    %rdi,-0x8(%rbp)
    1c1e:	90                   	nop
    1c1f:	5d                   	pop    %rbp
    1c20:	c3                   	retq   

0000000000001c21 <_ZNSt16allocator_traitsISaISt4pairIiiEEE10deallocateERS2_PS1_m>:
    1c21:	55                   	push   %rbp
    1c22:	48 89 e5             	mov    %rsp,%rbp
    1c25:	48 83 ec 20          	sub    $0x20,%rsp
    1c29:	48 89 7d f8          	mov    %rdi,-0x8(%rbp)
    1c2d:	48 89 75 f0          	mov    %rsi,-0x10(%rbp)
    1c31:	48 89 55 e8          	mov    %rdx,-0x18(%rbp)
    1c35:	48 8b 55 e8          	mov    -0x18(%rbp),%rdx
    1c39:	48 8b 4d f0          	mov    -0x10(%rbp),%rcx
    1c3d:	48 8b 45 f8          	mov    -0x8(%rbp),%rax
    1c41:	48 89 ce             	mov    %rcx,%rsi
    1c44:	48 89 c7             	mov    %rax,%rdi
    1c47:	e8 78 03 00 00       	callq  1fc4 <_ZN9__gnu_cxx13new_allocatorISt4pairIiiEE10deallocateEPS2_m>
    1c4c:	90                   	nop
    1c4d:	c9                   	leaveq 
    1c4e:	c3                   	retq   

0000000000001c4f <_ZSt8_DestroyIPSt4pairIiiEEvT_S3_>:
    1c4f:	55                   	push   %rbp
    1c50:	48 89 e5             	mov    %rsp,%rbp
    1c53:	48 83 ec 10          	sub    $0x10,%rsp
    1c57:	48 89 7d f8          	mov    %rdi,-0x8(%rbp)
    1c5b:	48 89 75 f0          	mov    %rsi,-0x10(%rbp)
    1c5f:	48 8b 55 f0          	mov    -0x10(%rbp),%rdx
    1c63:	48 8b 45 f8          	mov    -0x8(%rbp),%rax
    1c67:	48 89 d6             	mov    %rdx,%rsi
    1c6a:	48 89 c7             	mov    %rax,%rdi
    1c6d:	e8 75 03 00 00       	callq  1fe7 <_ZNSt12_Destroy_auxILb1EE9__destroyIPSt4pairIiiEEEvT_S5_>
    1c72:	90                   	nop
    1c73:	c9                   	leaveq 
    1c74:	c3                   	retq   

0000000000001c75 <_ZSt7forwardISt4pairIiiEEOT_RNSt16remove_referenceIS2_E4typeE>:
    1c75:	55                   	push   %rbp
    1c76:	48 89 e5             	mov    %rsp,%rbp
    1c79:	48 89 7d f8          	mov    %rdi,-0x8(%rbp)
    1c7d:	48 8b 45 f8          	mov    -0x8(%rbp),%rax
    1c81:	5d                   	pop    %rbp
    1c82:	c3                   	retq   

0000000000001c83 <_ZNSt16allocator_traitsISaISt4pairIiiEEE9constructIS1_JS1_EEEvRS2_PT_DpOT0_>:
    1c83:	55                   	push   %rbp
    1c84:	48 89 e5             	mov    %rsp,%rbp
    1c87:	48 83 ec 20          	sub    $0x20,%rsp
    1c8b:	48 89 7d f8          	mov    %rdi,-0x8(%rbp)
    1c8f:	48 89 75 f0          	mov    %rsi,-0x10(%rbp)
    1c93:	48 89 55 e8          	mov    %rdx,-0x18(%rbp)
    1c97:	48 8b 45 e8          	mov    -0x18(%rbp),%rax
    1c9b:	48 89 c7             	mov    %rax,%rdi
    1c9e:	e8 d2 ff ff ff       	callq  1c75 <_ZSt7forwardISt4pairIiiEEOT_RNSt16remove_referenceIS2_E4typeE>
    1ca3:	48 89 c2             	mov    %rax,%rdx
    1ca6:	48 8b 4d f0          	mov    -0x10(%rbp),%rcx
    1caa:	48 8b 45 f8          	mov    -0x8(%rbp),%rax
    1cae:	48 89 ce             	mov    %rcx,%rsi
    1cb1:	48 89 c7             	mov    %rax,%rdi
    1cb4:	e8 3d 03 00 00       	callq  1ff6 <_ZN9__gnu_cxx13new_allocatorISt4pairIiiEE9constructIS2_JS2_EEEvPT_DpOT0_>
    1cb9:	90                   	nop
    1cba:	c9                   	leaveq 
    1cbb:	c3                   	retq   

0000000000001cbc <_ZNSt6vectorISt4pairIiiESaIS1_EE3endEv>:
    1cbc:	55                   	push   %rbp
    1cbd:	48 89 e5             	mov    %rsp,%rbp
    1cc0:	48 83 ec 20          	sub    $0x20,%rsp
    1cc4:	48 89 7d e8          	mov    %rdi,-0x18(%rbp)
    1cc8:	48 8b 45 e8          	mov    -0x18(%rbp),%rax
    1ccc:	48 8d 50 08          	lea    0x8(%rax),%rdx
    1cd0:	48 8d 45 f8          	lea    -0x8(%rbp),%rax
    1cd4:	48 89 d6             	mov    %rdx,%rsi
    1cd7:	48 89 c7             	mov    %rax,%rdi
    1cda:	e8 5b 03 00 00       	callq  203a <_ZN9__gnu_cxx17__normal_iteratorIPSt4pairIiiESt6vectorIS2_SaIS2_EEEC1ERKS3_>
    1cdf:	48 8b 45 f8          	mov    -0x8(%rbp),%rax
    1ce3:	c9                   	leaveq 
    1ce4:	c3                   	retq   

0000000000001ce5 <_ZNSt6vectorISt4pairIiiESaIS1_EE15_S_use_relocateEv>:
    1ce5:	55                   	push   %rbp
    1ce6:	48 89 e5             	mov    %rsp,%rbp
    1ce9:	48 83 ec 10          	sub    $0x10,%rsp
    1ced:	e8 02 00 00 00       	callq  1cf4 <_ZNSt6vectorISt4pairIiiESaIS1_EE19_S_nothrow_relocateESt17integral_constantIbLb1EE>
    1cf2:	c9                   	leaveq 
    1cf3:	c3                   	retq   

0000000000001cf4 <_ZNSt6vectorISt4pairIiiESaIS1_EE19_S_nothrow_relocateESt17integral_constantIbLb1EE>:
    1cf4:	55                   	push   %rbp
    1cf5:	48 89 e5             	mov    %rsp,%rbp
    1cf8:	b8 01 00 00 00       	mov    $0x1,%eax
    1cfd:	5d                   	pop    %rbp
    1cfe:	c3                   	retq   
    1cff:	90                   	nop

0000000000001d00 <_ZNSt6vectorISt4pairIiiESaIS1_EE17_M_realloc_insertIJS1_EEEvN9__gnu_cxx17__normal_iteratorIPS1_S3_EEDpOT_>:
    1d00:	55                   	push   %rbp
    1d01:	48 89 e5             	mov    %rsp,%rbp
    1d04:	53                   	push   %rbx
    1d05:	48 83 ec 68          	sub    $0x68,%rsp
    1d09:	48 89 7d a8          	mov    %rdi,-0x58(%rbp)
    1d0d:	48 89 75 a0          	mov    %rsi,-0x60(%rbp)
    1d11:	48 89 55 98          	mov    %rdx,-0x68(%rbp)
    1d15:	48 8b 45 a8          	mov    -0x58(%rbp),%rax
    1d19:	48 8d 15 97 13 00 00 	lea    0x1397(%rip),%rdx        # 30b7 <_ZNSt8__detailL19_S_invalid_state_idE+0xf>
    1d20:	be 01 00 00 00       	mov    $0x1,%esi
    1d25:	48 89 c7             	mov    %rax,%rdi
    1d28:	e8 2b 03 00 00       	callq  2058 <_ZNKSt6vectorISt4pairIiiESaIS1_EE12_M_check_lenEmPKc>
    1d2d:	48 89 45 e0          	mov    %rax,-0x20(%rbp)
    1d31:	48 8b 45 a8          	mov    -0x58(%rbp),%rax
    1d35:	48 8b 00             	mov    (%rax),%rax
    1d38:	48 89 45 d8          	mov    %rax,-0x28(%rbp)
    1d3c:	48 8b 45 a8          	mov    -0x58(%rbp),%rax
    1d40:	48 8b 40 08          	mov    0x8(%rax),%rax
    1d44:	48 89 45 d0          	mov    %rax,-0x30(%rbp)
    1d48:	48 8b 45 a8          	mov    -0x58(%rbp),%rax
    1d4c:	48 89 c7             	mov    %rax,%rdi
    1d4f:	e8 ce 03 00 00       	callq  2122 <_ZNSt6vectorISt4pairIiiESaIS1_EE5beginEv>
    1d54:	48 89 45 b8          	mov    %rax,-0x48(%rbp)
    1d58:	48 8d 55 b8          	lea    -0x48(%rbp),%rdx
    1d5c:	48 8d 45 a0          	lea    -0x60(%rbp),%rax
    1d60:	48 89 d6             	mov    %rdx,%rsi
    1d63:	48 89 c7             	mov    %rax,%rdi
    1d66:	e8 dc 03 00 00       	callq  2147 <_ZN9__gnu_cxxmiIPSt4pairIiiESt6vectorIS2_SaIS2_EEEENS_17__normal_iteratorIT_T0_E15difference_typeERKSA_SD_>
    1d6b:	48 89 45 c8          	mov    %rax,-0x38(%rbp)
    1d6f:	48 8b 45 a8          	mov    -0x58(%rbp),%rax
    1d73:	48 8b 55 e0          	mov    -0x20(%rbp),%rdx
    1d77:	48 89 d6             	mov    %rdx,%rsi
    1d7a:	48 89 c7             	mov    %rax,%rdi
    1d7d:	e8 06 04 00 00       	callq  2188 <_ZNSt12_Vector_baseISt4pairIiiESaIS1_EE11_M_allocateEm>
    1d82:	48 89 45 c0          	mov    %rax,-0x40(%rbp)
    1d86:	48 8b 45 c0          	mov    -0x40(%rbp),%rax
    1d8a:	48 89 45 e8          	mov    %rax,-0x18(%rbp)
    1d8e:	48 8b 45 98          	mov    -0x68(%rbp),%rax
    1d92:	48 89 c7             	mov    %rax,%rdi
    1d95:	e8 db fe ff ff       	callq  1c75 <_ZSt7forwardISt4pairIiiEEOT_RNSt16remove_referenceIS2_E4typeE>
    1d9a:	48 89 c2             	mov    %rax,%rdx
    1d9d:	48 8b 45 c8          	mov    -0x38(%rbp),%rax
    1da1:	48 8d 0c c5 00 00 00 	lea    0x0(,%rax,8),%rcx
    1da8:	00 
    1da9:	48 8b 45 c0          	mov    -0x40(%rbp),%rax
    1dad:	48 01 c1             	add    %rax,%rcx
    1db0:	48 8b 45 a8          	mov    -0x58(%rbp),%rax
    1db4:	48 89 ce             	mov    %rcx,%rsi
    1db7:	48 89 c7             	mov    %rax,%rdi
    1dba:	e8 c4 fe ff ff       	callq  1c83 <_ZNSt16allocator_traitsISaISt4pairIiiEEE9constructIS1_JS1_EEEvRS2_PT_DpOT0_>
    1dbf:	48 c7 45 e8 00 00 00 	movq   $0x0,-0x18(%rbp)
    1dc6:	00 
    1dc7:	e8 19 ff ff ff       	callq  1ce5 <_ZNSt6vectorISt4pairIiiESaIS1_EE15_S_use_relocateEv>
    1dcc:	84 c0                	test   %al,%al
    1dce:	74 71                	je     1e41 <_ZNSt6vectorISt4pairIiiESaIS1_EE17_M_realloc_insertIJS1_EEEvN9__gnu_cxx17__normal_iteratorIPS1_S3_EEDpOT_+0x141>
    1dd0:	48 8b 45 a8          	mov    -0x58(%rbp),%rax
    1dd4:	48 89 c7             	mov    %rax,%rdi
    1dd7:	e8 0c fd ff ff       	callq  1ae8 <_ZNSt12_Vector_baseISt4pairIiiESaIS1_EE19_M_get_Tp_allocatorEv>
    1ddc:	48 89 c3             	mov    %rax,%rbx
    1ddf:	48 8d 45 a0          	lea    -0x60(%rbp),%rax
    1de3:	48 89 c7             	mov    %rax,%rdi
    1de6:	e8 03 04 00 00       	callq  21ee <_ZNK9__gnu_cxx17__normal_iteratorIPSt4pairIiiESt6vectorIS2_SaIS2_EEE4baseEv>
    1deb:	48 8b 30             	mov    (%rax),%rsi
    1dee:	48 8b 55 c0          	mov    -0x40(%rbp),%rdx
    1df2:	48 8b 45 d8          	mov    -0x28(%rbp),%rax
    1df6:	48 89 d9             	mov    %rbx,%rcx
    1df9:	48 89 c7             	mov    %rax,%rdi
    1dfc:	e8 ba 03 00 00       	callq  21bb <_ZNSt6vectorISt4pairIiiESaIS1_EE11_S_relocateEPS1_S4_S4_RS2_>
    1e01:	48 89 45 e8          	mov    %rax,-0x18(%rbp)
    1e05:	48 83 45 e8 08       	addq   $0x8,-0x18(%rbp)
    1e0a:	48 8b 45 a8          	mov    -0x58(%rbp),%rax
    1e0e:	48 89 c7             	mov    %rax,%rdi
    1e11:	e8 d2 fc ff ff       	callq  1ae8 <_ZNSt12_Vector_baseISt4pairIiiESaIS1_EE19_M_get_Tp_allocatorEv>
    1e16:	48 89 c3             	mov    %rax,%rbx
    1e19:	48 8d 45 a0          	lea    -0x60(%rbp),%rax
    1e1d:	48 89 c7             	mov    %rax,%rdi
    1e20:	e8 c9 03 00 00       	callq  21ee <_ZNK9__gnu_cxx17__normal_iteratorIPSt4pairIiiESt6vectorIS2_SaIS2_EEE4baseEv>
    1e25:	48 8b 00             	mov    (%rax),%rax
    1e28:	48 8b 55 e8          	mov    -0x18(%rbp),%rdx
    1e2c:	48 8b 75 d0          	mov    -0x30(%rbp),%rsi
    1e30:	48 89 d9             	mov    %rbx,%rcx
    1e33:	48 89 c7             	mov    %rax,%rdi
    1e36:	e8 80 03 00 00       	callq  21bb <_ZNSt6vectorISt4pairIiiESaIS1_EE11_S_relocateEPS1_S4_S4_RS2_>
    1e3b:	48 89 45 e8          	mov    %rax,-0x18(%rbp)
    1e3f:	eb 6f                	jmp    1eb0 <_ZNSt6vectorISt4pairIiiESaIS1_EE17_M_realloc_insertIJS1_EEEvN9__gnu_cxx17__normal_iteratorIPS1_S3_EEDpOT_+0x1b0>
    1e41:	48 8b 45 a8          	mov    -0x58(%rbp),%rax
    1e45:	48 89 c7             	mov    %rax,%rdi
    1e48:	e8 9b fc ff ff       	callq  1ae8 <_ZNSt12_Vector_baseISt4pairIiiESaIS1_EE19_M_get_Tp_allocatorEv>
    1e4d:	48 89 c3             	mov    %rax,%rbx
    1e50:	48 8d 45 a0          	lea    -0x60(%rbp),%rax
    1e54:	48 89 c7             	mov    %rax,%rdi
    1e57:	e8 92 03 00 00       	callq  21ee <_ZNK9__gnu_cxx17__normal_iteratorIPSt4pairIiiESt6vectorIS2_SaIS2_EEE4baseEv>
    1e5c:	48 8b 30             	mov    (%rax),%rsi
    1e5f:	48 8b 55 c0          	mov    -0x40(%rbp),%rdx
    1e63:	48 8b 45 d8          	mov    -0x28(%rbp),%rax
    1e67:	48 89 d9             	mov    %rbx,%rcx
    1e6a:	48 89 c7             	mov    %rax,%rdi
    1e6d:	e8 8a 03 00 00       	callq  21fc <_ZSt34__uninitialized_move_if_noexcept_aIPSt4pairIiiES2_SaIS1_EET0_T_S5_S4_RT1_>
    1e72:	48 89 45 e8          	mov    %rax,-0x18(%rbp)
    1e76:	48 83 45 e8 08       	addq   $0x8,-0x18(%rbp)
    1e7b:	48 8b 45 a8          	mov    -0x58(%rbp),%rax
    1e7f:	48 89 c7             	mov    %rax,%rdi
    1e82:	e8 61 fc ff ff       	callq  1ae8 <_ZNSt12_Vector_baseISt4pairIiiESaIS1_EE19_M_get_Tp_allocatorEv>
    1e87:	48 89 c3             	mov    %rax,%rbx
    1e8a:	48 8d 45 a0          	lea    -0x60(%rbp),%rax
    1e8e:	48 89 c7             	mov    %rax,%rdi
    1e91:	e8 58 03 00 00       	callq  21ee <_ZNK9__gnu_cxx17__normal_iteratorIPSt4pairIiiESt6vectorIS2_SaIS2_EEE4baseEv>
    1e96:	48 8b 00             	mov    (%rax),%rax
    1e99:	48 8b 55 e8          	mov    -0x18(%rbp),%rdx
    1e9d:	48 8b 75 d0          	mov    -0x30(%rbp),%rsi
    1ea1:	48 89 d9             	mov    %rbx,%rcx
    1ea4:	48 89 c7             	mov    %rax,%rdi
    1ea7:	e8 50 03 00 00       	callq  21fc <_ZSt34__uninitialized_move_if_noexcept_aIPSt4pairIiiES2_SaIS1_EET0_T_S5_S4_RT1_>
    1eac:	48 89 45 e8          	mov    %rax,-0x18(%rbp)
    1eb0:	e8 30 fe ff ff       	callq  1ce5 <_ZNSt6vectorISt4pairIiiESaIS1_EE15_S_use_relocateEv>
    1eb5:	83 f0 01             	xor    $0x1,%eax
    1eb8:	84 c0                	test   %al,%al
    1eba:	74 22                	je     1ede <_ZNSt6vectorISt4pairIiiESaIS1_EE17_M_realloc_insertIJS1_EEEvN9__gnu_cxx17__normal_iteratorIPS1_S3_EEDpOT_+0x1de>
    1ebc:	48 8b 45 a8          	mov    -0x58(%rbp),%rax
    1ec0:	48 89 c7             	mov    %rax,%rdi
    1ec3:	e8 20 fc ff ff       	callq  1ae8 <_ZNSt12_Vector_baseISt4pairIiiESaIS1_EE19_M_get_Tp_allocatorEv>
    1ec8:	48 89 c2             	mov    %rax,%rdx
    1ecb:	48 8b 4d d0          	mov    -0x30(%rbp),%rcx
    1ecf:	48 8b 45 d8          	mov    -0x28(%rbp),%rax
    1ed3:	48 89 ce             	mov    %rcx,%rsi
    1ed6:	48 89 c7             	mov    %rax,%rdi
    1ed9:	e8 18 fc ff ff       	callq  1af6 <_ZSt8_DestroyIPSt4pairIiiES1_EvT_S3_RSaIT0_E>
    1ede:	48 8b 45 a8          	mov    -0x58(%rbp),%rax
    1ee2:	48 8b 55 a8          	mov    -0x58(%rbp),%rdx
    1ee6:	48 8b 52 10          	mov    0x10(%rdx),%rdx
    1eea:	48 2b 55 d8          	sub    -0x28(%rbp),%rdx
    1eee:	48 c1 fa 03          	sar    $0x3,%rdx
    1ef2:	48 8b 4d d8          	mov    -0x28(%rbp),%rcx
    1ef6:	48 89 ce             	mov    %rcx,%rsi
    1ef9:	48 89 c7             	mov    %rax,%rdi
    1efc:	e8 b1 fb ff ff       	callq  1ab2 <_ZNSt12_Vector_baseISt4pairIiiESaIS1_EE13_M_deallocateEPS1_m>
    1f01:	48 8b 45 a8          	mov    -0x58(%rbp),%rax
    1f05:	48 8b 55 c0          	mov    -0x40(%rbp),%rdx
    1f09:	48 89 10             	mov    %rdx,(%rax)
    1f0c:	48 8b 45 a8          	mov    -0x58(%rbp),%rax
    1f10:	48 8b 55 e8          	mov    -0x18(%rbp),%rdx
    1f14:	48 89 50 08          	mov    %rdx,0x8(%rax)
    1f18:	48 8b 45 e0          	mov    -0x20(%rbp),%rax
    1f1c:	48 8d 14 c5 00 00 00 	lea    0x0(,%rax,8),%rdx
    1f23:	00 
    1f24:	48 8b 45 c0          	mov    -0x40(%rbp),%rax
    1f28:	48 01 c2             	add    %rax,%rdx
    1f2b:	48 8b 45 a8          	mov    -0x58(%rbp),%rax
    1f2f:	48 89 50 10          	mov    %rdx,0x10(%rax)
    1f33:	e9 84 00 00 00       	jmpq   1fbc <_ZNSt6vectorISt4pairIiiESaIS1_EE17_M_realloc_insertIJS1_EEEvN9__gnu_cxx17__normal_iteratorIPS1_S3_EEDpOT_+0x2bc>
    1f38:	48 89 c7             	mov    %rax,%rdi
    1f3b:	e8 00 f1 ff ff       	callq  1040 <__cxa_begin_catch@plt>
    1f40:	48 83 7d e8 00       	cmpq   $0x0,-0x18(%rbp)
    1f45:	75 24                	jne    1f6b <_ZNSt6vectorISt4pairIiiESaIS1_EE17_M_realloc_insertIJS1_EEEvN9__gnu_cxx17__normal_iteratorIPS1_S3_EEDpOT_+0x26b>
    1f47:	48 8b 45 c8          	mov    -0x38(%rbp),%rax
    1f4b:	48 8d 14 c5 00 00 00 	lea    0x0(,%rax,8),%rdx
    1f52:	00 
    1f53:	48 8b 45 c0          	mov    -0x40(%rbp),%rax
    1f57:	48 01 c2             	add    %rax,%rdx
    1f5a:	48 8b 45 a8          	mov    -0x58(%rbp),%rax
    1f5e:	48 89 d6             	mov    %rdx,%rsi
    1f61:	48 89 c7             	mov    %rax,%rdi
    1f64:	e8 e7 02 00 00       	callq  2250 <_ZNSt16allocator_traitsISaISt4pairIiiEEE7destroyIS1_EEvRS2_PT_>
    1f69:	eb 22                	jmp    1f8d <_ZNSt6vectorISt4pairIiiESaIS1_EE17_M_realloc_insertIJS1_EEEvN9__gnu_cxx17__normal_iteratorIPS1_S3_EEDpOT_+0x28d>
    1f6b:	48 8b 45 a8          	mov    -0x58(%rbp),%rax
    1f6f:	48 89 c7             	mov    %rax,%rdi
    1f72:	e8 71 fb ff ff       	callq  1ae8 <_ZNSt12_Vector_baseISt4pairIiiESaIS1_EE19_M_get_Tp_allocatorEv>
    1f77:	48 89 c2             	mov    %rax,%rdx
    1f7a:	48 8b 4d e8          	mov    -0x18(%rbp),%rcx
    1f7e:	48 8b 45 c0          	mov    -0x40(%rbp),%rax
    1f82:	48 89 ce             	mov    %rcx,%rsi
    1f85:	48 89 c7             	mov    %rax,%rdi
    1f88:	e8 69 fb ff ff       	callq  1af6 <_ZSt8_DestroyIPSt4pairIiiES1_EvT_S3_RSaIT0_E>
    1f8d:	48 8b 45 a8          	mov    -0x58(%rbp),%rax
    1f91:	48 8b 55 e0          	mov    -0x20(%rbp),%rdx
    1f95:	48 8b 4d c0          	mov    -0x40(%rbp),%rcx
    1f99:	48 89 ce             	mov    %rcx,%rsi
    1f9c:	48 89 c7             	mov    %rax,%rdi
    1f9f:	e8 0e fb ff ff       	callq  1ab2 <_ZNSt12_Vector_baseISt4pairIiiESaIS1_EE13_M_deallocateEPS1_m>
    1fa4:	e8 37 f1 ff ff       	callq  10e0 <__cxa_rethrow@plt>
    1fa9:	48 89 c3             	mov    %rax,%rbx
    1fac:	e8 4f f1 ff ff       	callq  1100 <__cxa_end_catch@plt>
    1fb1:	48 89 d8             	mov    %rbx,%rax
    1fb4:	48 89 c7             	mov    %rax,%rdi
    1fb7:	e8 54 f1 ff ff       	callq  1110 <_Unwind_Resume@plt>
    1fbc:	48 83 c4 68          	add    $0x68,%rsp
    1fc0:	5b                   	pop    %rbx
    1fc1:	5d                   	pop    %rbp
    1fc2:	c3                   	retq   
    1fc3:	90                   	nop

0000000000001fc4 <_ZN9__gnu_cxx13new_allocatorISt4pairIiiEE10deallocateEPS2_m>:
    1fc4:	55                   	push   %rbp
    1fc5:	48 89 e5             	mov    %rsp,%rbp
    1fc8:	48 83 ec 20          	sub    $0x20,%rsp
    1fcc:	48 89 7d f8          	mov    %rdi,-0x8(%rbp)
    1fd0:	48 89 75 f0          	mov    %rsi,-0x10(%rbp)
    1fd4:	48 89 55 e8          	mov    %rdx,-0x18(%rbp)
    1fd8:	48 8b 45 f0          	mov    -0x10(%rbp),%rax
    1fdc:	48 89 c7             	mov    %rax,%rdi
    1fdf:	e8 bc f0 ff ff       	callq  10a0 <_ZdlPv@plt>
    1fe4:	90                   	nop
    1fe5:	c9                   	leaveq 
    1fe6:	c3                   	retq   

0000000000001fe7 <_ZNSt12_Destroy_auxILb1EE9__destroyIPSt4pairIiiEEEvT_S5_>:
    1fe7:	55                   	push   %rbp
    1fe8:	48 89 e5             	mov    %rsp,%rbp
    1feb:	48 89 7d f8          	mov    %rdi,-0x8(%rbp)
    1fef:	48 89 75 f0          	mov    %rsi,-0x10(%rbp)
    1ff3:	90                   	nop
    1ff4:	5d                   	pop    %rbp
    1ff5:	c3                   	retq   

0000000000001ff6 <_ZN9__gnu_cxx13new_allocatorISt4pairIiiEE9constructIS2_JS2_EEEvPT_DpOT0_>:
    1ff6:	55                   	push   %rbp
    1ff7:	48 89 e5             	mov    %rsp,%rbp
    1ffa:	53                   	push   %rbx
    1ffb:	48 83 ec 28          	sub    $0x28,%rsp
    1fff:	48 89 7d e8          	mov    %rdi,-0x18(%rbp)
    2003:	48 89 75 e0          	mov    %rsi,-0x20(%rbp)
    2007:	48 89 55 d8          	mov    %rdx,-0x28(%rbp)
    200b:	48 8b 45 d8          	mov    -0x28(%rbp),%rax
    200f:	48 89 c7             	mov    %rax,%rdi
    2012:	e8 5e fc ff ff       	callq  1c75 <_ZSt7forwardISt4pairIiiEEOT_RNSt16remove_referenceIS2_E4typeE>
    2017:	48 89 c3             	mov    %rax,%rbx
    201a:	48 8b 45 e0          	mov    -0x20(%rbp),%rax
    201e:	48 89 c6             	mov    %rax,%rsi
    2021:	bf 08 00 00 00       	mov    $0x8,%edi
    2026:	e8 dd f7 ff ff       	callq  1808 <_ZnwmPv>
    202b:	48 8b 13             	mov    (%rbx),%rdx
    202e:	48 89 10             	mov    %rdx,(%rax)
    2031:	90                   	nop
    2032:	48 83 c4 28          	add    $0x28,%rsp
    2036:	5b                   	pop    %rbx
    2037:	5d                   	pop    %rbp
    2038:	c3                   	retq   
    2039:	90                   	nop

000000000000203a <_ZN9__gnu_cxx17__normal_iteratorIPSt4pairIiiESt6vectorIS2_SaIS2_EEEC1ERKS3_>:
    203a:	55                   	push   %rbp
    203b:	48 89 e5             	mov    %rsp,%rbp
    203e:	48 89 7d f8          	mov    %rdi,-0x8(%rbp)
    2042:	48 89 75 f0          	mov    %rsi,-0x10(%rbp)
    2046:	48 8b 45 f0          	mov    -0x10(%rbp),%rax
    204a:	48 8b 10             	mov    (%rax),%rdx
    204d:	48 8b 45 f8          	mov    -0x8(%rbp),%rax
    2051:	48 89 10             	mov    %rdx,(%rax)
    2054:	90                   	nop
    2055:	5d                   	pop    %rbp
    2056:	c3                   	retq   
    2057:	90                   	nop

0000000000002058 <_ZNKSt6vectorISt4pairIiiESaIS1_EE12_M_check_lenEmPKc>:
    2058:	55                   	push   %rbp
    2059:	48 89 e5             	mov    %rsp,%rbp
    205c:	53                   	push   %rbx
    205d:	48 83 ec 38          	sub    $0x38,%rsp
    2061:	48 89 7d d8          	mov    %rdi,-0x28(%rbp)
    2065:	48 89 75 d0          	mov    %rsi,-0x30(%rbp)
    2069:	48 89 55 c8          	mov    %rdx,-0x38(%rbp)
    206d:	48 8b 45 d8          	mov    -0x28(%rbp),%rax
    2071:	48 89 c7             	mov    %rax,%rdi
    2074:	e8 fd 01 00 00       	callq  2276 <_ZNKSt6vectorISt4pairIiiESaIS1_EE8max_sizeEv>
    2079:	48 89 c3             	mov    %rax,%rbx
    207c:	48 8b 45 d8          	mov    -0x28(%rbp),%rax
    2080:	48 89 c7             	mov    %rax,%rdi
    2083:	e8 90 f9 ff ff       	callq  1a18 <_ZNKSt6vectorISt4pairIiiESaIS1_EE4sizeEv>
    2088:	48 29 c3             	sub    %rax,%rbx
    208b:	48 89 da             	mov    %rbx,%rdx
    208e:	48 8b 45 d0          	mov    -0x30(%rbp),%rax
    2092:	48 39 c2             	cmp    %rax,%rdx
    2095:	0f 92 c0             	setb   %al
    2098:	84 c0                	test   %al,%al
    209a:	74 0c                	je     20a8 <_ZNKSt6vectorISt4pairIiiESaIS1_EE12_M_check_lenEmPKc+0x50>
    209c:	48 8b 45 c8          	mov    -0x38(%rbp),%rax
    20a0:	48 89 c7             	mov    %rax,%rdi
    20a3:	e8 b8 ef ff ff       	callq  1060 <_ZSt20__throw_length_errorPKc@plt>
    20a8:	48 8b 45 d8          	mov    -0x28(%rbp),%rax
    20ac:	48 89 c7             	mov    %rax,%rdi
    20af:	e8 64 f9 ff ff       	callq  1a18 <_ZNKSt6vectorISt4pairIiiESaIS1_EE4sizeEv>
    20b4:	48 89 c3             	mov    %rax,%rbx
    20b7:	48 8b 45 d8          	mov    -0x28(%rbp),%rax
    20bb:	48 89 c7             	mov    %rax,%rdi
    20be:	e8 55 f9 ff ff       	callq  1a18 <_ZNKSt6vectorISt4pairIiiESaIS1_EE4sizeEv>
    20c3:	48 89 45 e0          	mov    %rax,-0x20(%rbp)
    20c7:	48 8d 55 d0          	lea    -0x30(%rbp),%rdx
    20cb:	48 8d 45 e0          	lea    -0x20(%rbp),%rax
    20cf:	48 89 d6             	mov    %rdx,%rsi
    20d2:	48 89 c7             	mov    %rax,%rdi
    20d5:	e8 bf f7 ff ff       	callq  1899 <_ZSt3maxImERKT_S2_S2_>
    20da:	48 8b 00             	mov    (%rax),%rax
    20dd:	48 01 d8             	add    %rbx,%rax
    20e0:	48 89 45 e8          	mov    %rax,-0x18(%rbp)
    20e4:	48 8b 45 d8          	mov    -0x28(%rbp),%rax
    20e8:	48 89 c7             	mov    %rax,%rdi
    20eb:	e8 28 f9 ff ff       	callq  1a18 <_ZNKSt6vectorISt4pairIiiESaIS1_EE4sizeEv>
    20f0:	48 39 45 e8          	cmp    %rax,-0x18(%rbp)
    20f4:	72 12                	jb     2108 <_ZNKSt6vectorISt4pairIiiESaIS1_EE12_M_check_lenEmPKc+0xb0>
    20f6:	48 8b 45 d8          	mov    -0x28(%rbp),%rax
    20fa:	48 89 c7             	mov    %rax,%rdi
    20fd:	e8 74 01 00 00       	callq  2276 <_ZNKSt6vectorISt4pairIiiESaIS1_EE8max_sizeEv>
    2102:	48 39 45 e8          	cmp    %rax,-0x18(%rbp)
    2106:	76 0e                	jbe    2116 <_ZNKSt6vectorISt4pairIiiESaIS1_EE12_M_check_lenEmPKc+0xbe>
    2108:	48 8b 45 d8          	mov    -0x28(%rbp),%rax
    210c:	48 89 c7             	mov    %rax,%rdi
    210f:	e8 62 01 00 00       	callq  2276 <_ZNKSt6vectorISt4pairIiiESaIS1_EE8max_sizeEv>
    2114:	eb 04                	jmp    211a <_ZNKSt6vectorISt4pairIiiESaIS1_EE12_M_check_lenEmPKc+0xc2>
    2116:	48 8b 45 e8          	mov    -0x18(%rbp),%rax
    211a:	48 83 c4 38          	add    $0x38,%rsp
    211e:	5b                   	pop    %rbx
    211f:	5d                   	pop    %rbp
    2120:	c3                   	retq   
    2121:	90                   	nop

0000000000002122 <_ZNSt6vectorISt4pairIiiESaIS1_EE5beginEv>:
    2122:	55                   	push   %rbp
    2123:	48 89 e5             	mov    %rsp,%rbp
    2126:	48 83 ec 20          	sub    $0x20,%rsp
    212a:	48 89 7d e8          	mov    %rdi,-0x18(%rbp)
    212e:	48 8b 55 e8          	mov    -0x18(%rbp),%rdx
    2132:	48 8d 45 f8          	lea    -0x8(%rbp),%rax
    2136:	48 89 d6             	mov    %rdx,%rsi
    2139:	48 89 c7             	mov    %rax,%rdi
    213c:	e8 f9 fe ff ff       	callq  203a <_ZN9__gnu_cxx17__normal_iteratorIPSt4pairIiiESt6vectorIS2_SaIS2_EEEC1ERKS3_>
    2141:	48 8b 45 f8          	mov    -0x8(%rbp),%rax
    2145:	c9                   	leaveq 
    2146:	c3                   	retq   

0000000000002147 <_ZN9__gnu_cxxmiIPSt4pairIiiESt6vectorIS2_SaIS2_EEEENS_17__normal_iteratorIT_T0_E15difference_typeERKSA_SD_>:
    2147:	55                   	push   %rbp
    2148:	48 89 e5             	mov    %rsp,%rbp
    214b:	53                   	push   %rbx
    214c:	48 83 ec 18          	sub    $0x18,%rsp
    2150:	48 89 7d e8          	mov    %rdi,-0x18(%rbp)
    2154:	48 89 75 e0          	mov    %rsi,-0x20(%rbp)
    2158:	48 8b 45 e8          	mov    -0x18(%rbp),%rax
    215c:	48 89 c7             	mov    %rax,%rdi
    215f:	e8 8a 00 00 00       	callq  21ee <_ZNK9__gnu_cxx17__normal_iteratorIPSt4pairIiiESt6vectorIS2_SaIS2_EEE4baseEv>
    2164:	48 8b 18             	mov    (%rax),%rbx
    2167:	48 8b 45 e0          	mov    -0x20(%rbp),%rax
    216b:	48 89 c7             	mov    %rax,%rdi
    216e:	e8 7b 00 00 00       	callq  21ee <_ZNK9__gnu_cxx17__normal_iteratorIPSt4pairIiiESt6vectorIS2_SaIS2_EEE4baseEv>
    2173:	48 8b 00             	mov    (%rax),%rax
    2176:	48 29 c3             	sub    %rax,%rbx
    2179:	48 89 d8             	mov    %rbx,%rax
    217c:	48 c1 f8 03          	sar    $0x3,%rax
    2180:	48 83 c4 18          	add    $0x18,%rsp
    2184:	5b                   	pop    %rbx
    2185:	5d                   	pop    %rbp
    2186:	c3                   	retq   
    2187:	90                   	nop

0000000000002188 <_ZNSt12_Vector_baseISt4pairIiiESaIS1_EE11_M_allocateEm>:
    2188:	55                   	push   %rbp
    2189:	48 89 e5             	mov    %rsp,%rbp
    218c:	48 83 ec 10          	sub    $0x10,%rsp
    2190:	48 89 7d f8          	mov    %rdi,-0x8(%rbp)
    2194:	48 89 75 f0          	mov    %rsi,-0x10(%rbp)
    2198:	48 83 7d f0 00       	cmpq   $0x0,-0x10(%rbp)
    219d:	74 15                	je     21b4 <_ZNSt12_Vector_baseISt4pairIiiESaIS1_EE11_M_allocateEm+0x2c>
    219f:	48 8b 45 f8          	mov    -0x8(%rbp),%rax
    21a3:	48 8b 55 f0          	mov    -0x10(%rbp),%rdx
    21a7:	48 89 d6             	mov    %rdx,%rsi
    21aa:	48 89 c7             	mov    %rax,%rdi
    21ad:	e8 e6 00 00 00       	callq  2298 <_ZNSt16allocator_traitsISaISt4pairIiiEEE8allocateERS2_m>
    21b2:	eb 05                	jmp    21b9 <_ZNSt12_Vector_baseISt4pairIiiESaIS1_EE11_M_allocateEm+0x31>
    21b4:	b8 00 00 00 00       	mov    $0x0,%eax
    21b9:	c9                   	leaveq 
    21ba:	c3                   	retq   

00000000000021bb <_ZNSt6vectorISt4pairIiiESaIS1_EE11_S_relocateEPS1_S4_S4_RS2_>:
    21bb:	55                   	push   %rbp
    21bc:	48 89 e5             	mov    %rsp,%rbp
    21bf:	48 83 ec 30          	sub    $0x30,%rsp
    21c3:	48 89 7d e8          	mov    %rdi,-0x18(%rbp)
    21c7:	48 89 75 e0          	mov    %rsi,-0x20(%rbp)
    21cb:	48 89 55 d8          	mov    %rdx,-0x28(%rbp)
    21cf:	48 89 4d d0          	mov    %rcx,-0x30(%rbp)
    21d3:	48 8b 4d d0          	mov    -0x30(%rbp),%rcx
    21d7:	48 8b 55 d8          	mov    -0x28(%rbp),%rdx
    21db:	48 8b 75 e0          	mov    -0x20(%rbp),%rsi
    21df:	48 8b 45 e8          	mov    -0x18(%rbp),%rax
    21e3:	48 89 c7             	mov    %rax,%rdi
    21e6:	e8 d7 00 00 00       	callq  22c2 <_ZNSt6vectorISt4pairIiiESaIS1_EE14_S_do_relocateEPS1_S4_S4_RS2_St17integral_constantIbLb1EE>
    21eb:	c9                   	leaveq 
    21ec:	c3                   	retq   
    21ed:	90                   	nop

00000000000021ee <_ZNK9__gnu_cxx17__normal_iteratorIPSt4pairIiiESt6vectorIS2_SaIS2_EEE4baseEv>:
    21ee:	55                   	push   %rbp
    21ef:	48 89 e5             	mov    %rsp,%rbp
    21f2:	48 89 7d f8          	mov    %rdi,-0x8(%rbp)
    21f6:	48 8b 45 f8          	mov    -0x8(%rbp),%rax
    21fa:	5d                   	pop    %rbp
    21fb:	c3                   	retq   

00000000000021fc <_ZSt34__uninitialized_move_if_noexcept_aIPSt4pairIiiES2_SaIS1_EET0_T_S5_S4_RT1_>:
    21fc:	55                   	push   %rbp
    21fd:	48 89 e5             	mov    %rsp,%rbp
    2200:	53                   	push   %rbx
    2201:	48 83 ec 28          	sub    $0x28,%rsp
    2205:	48 89 7d e8          	mov    %rdi,-0x18(%rbp)
    2209:	48 89 75 e0          	mov    %rsi,-0x20(%rbp)
    220d:	48 89 55 d8          	mov    %rdx,-0x28(%rbp)
    2211:	48 89 4d d0          	mov    %rcx,-0x30(%rbp)
    2215:	48 8b 45 e0          	mov    -0x20(%rbp),%rax
    2219:	48 89 c7             	mov    %rax,%rdi
    221c:	e8 d3 00 00 00       	callq  22f4 <_ZSt32__make_move_if_noexcept_iteratorISt4pairIiiESt13move_iteratorIPS1_EET0_PT_>
    2221:	48 89 c3             	mov    %rax,%rbx
    2224:	48 8b 45 e8          	mov    -0x18(%rbp),%rax
    2228:	48 89 c7             	mov    %rax,%rdi
    222b:	e8 c4 00 00 00       	callq  22f4 <_ZSt32__make_move_if_noexcept_iteratorISt4pairIiiESt13move_iteratorIPS1_EET0_PT_>
    2230:	48 89 c7             	mov    %rax,%rdi
    2233:	48 8b 55 d0          	mov    -0x30(%rbp),%rdx
    2237:	48 8b 45 d8          	mov    -0x28(%rbp),%rax
    223b:	48 89 d1             	mov    %rdx,%rcx
    223e:	48 89 c2             	mov    %rax,%rdx
    2241:	48 89 de             	mov    %rbx,%rsi
    2244:	e8 d0 00 00 00       	callq  2319 <_ZSt22__uninitialized_copy_aISt13move_iteratorIPSt4pairIiiEES3_S2_ET0_T_S6_S5_RSaIT1_E>
    2249:	48 83 c4 28          	add    $0x28,%rsp
    224d:	5b                   	pop    %rbx
    224e:	5d                   	pop    %rbp
    224f:	c3                   	retq   

0000000000002250 <_ZNSt16allocator_traitsISaISt4pairIiiEEE7destroyIS1_EEvRS2_PT_>:
    2250:	55                   	push   %rbp
    2251:	48 89 e5             	mov    %rsp,%rbp
    2254:	48 83 ec 10          	sub    $0x10,%rsp
    2258:	48 89 7d f8          	mov    %rdi,-0x8(%rbp)
    225c:	48 89 75 f0          	mov    %rsi,-0x10(%rbp)
    2260:	48 8b 55 f0          	mov    -0x10(%rbp),%rdx
    2264:	48 8b 45 f8          	mov    -0x8(%rbp),%rax
    2268:	48 89 d6             	mov    %rdx,%rsi
    226b:	48 89 c7             	mov    %rax,%rdi
    226e:	e8 d7 00 00 00       	callq  234a <_ZN9__gnu_cxx13new_allocatorISt4pairIiiEE7destroyIS2_EEvPT_>
    2273:	90                   	nop
    2274:	c9                   	leaveq 
    2275:	c3                   	retq   

0000000000002276 <_ZNKSt6vectorISt4pairIiiESaIS1_EE8max_sizeEv>:
    2276:	55                   	push   %rbp
    2277:	48 89 e5             	mov    %rsp,%rbp
    227a:	48 83 ec 10          	sub    $0x10,%rsp
    227e:	48 89 7d f8          	mov    %rdi,-0x8(%rbp)
    2282:	48 8b 45 f8          	mov    -0x8(%rbp),%rax
    2286:	48 89 c7             	mov    %rax,%rdi
    2289:	e8 0e 01 00 00       	callq  239c <_ZNKSt12_Vector_baseISt4pairIiiESaIS1_EE19_M_get_Tp_allocatorEv>
    228e:	48 89 c7             	mov    %rax,%rdi
    2291:	e8 c3 00 00 00       	callq  2359 <_ZNSt6vectorISt4pairIiiESaIS1_EE11_S_max_sizeERKS2_>
    2296:	c9                   	leaveq 
    2297:	c3                   	retq   

0000000000002298 <_ZNSt16allocator_traitsISaISt4pairIiiEEE8allocateERS2_m>:
    2298:	55                   	push   %rbp
    2299:	48 89 e5             	mov    %rsp,%rbp
    229c:	48 83 ec 10          	sub    $0x10,%rsp
    22a0:	48 89 7d f8          	mov    %rdi,-0x8(%rbp)
    22a4:	48 89 75 f0          	mov    %rsi,-0x10(%rbp)
    22a8:	48 8b 4d f0          	mov    -0x10(%rbp),%rcx
    22ac:	48 8b 45 f8          	mov    -0x8(%rbp),%rax
    22b0:	ba 00 00 00 00       	mov    $0x0,%edx
    22b5:	48 89 ce             	mov    %rcx,%rsi
    22b8:	48 89 c7             	mov    %rax,%rdi
    22bb:	e8 ea 00 00 00       	callq  23aa <_ZN9__gnu_cxx13new_allocatorISt4pairIiiEE8allocateEmPKv>
    22c0:	c9                   	leaveq 
    22c1:	c3                   	retq   

00000000000022c2 <_ZNSt6vectorISt4pairIiiESaIS1_EE14_S_do_relocateEPS1_S4_S4_RS2_St17integral_constantIbLb1EE>:
    22c2:	55                   	push   %rbp
    22c3:	48 89 e5             	mov    %rsp,%rbp
    22c6:	48 83 ec 20          	sub    $0x20,%rsp
    22ca:	48 89 7d f8          	mov    %rdi,-0x8(%rbp)
    22ce:	48 89 75 f0          	mov    %rsi,-0x10(%rbp)
    22d2:	48 89 55 e8          	mov    %rdx,-0x18(%rbp)
    22d6:	48 89 4d e0          	mov    %rcx,-0x20(%rbp)
    22da:	48 8b 4d e0          	mov    -0x20(%rbp),%rcx
    22de:	48 8b 55 e8          	mov    -0x18(%rbp),%rdx
    22e2:	48 8b 75 f0          	mov    -0x10(%rbp),%rsi
    22e6:	48 8b 45 f8          	mov    -0x8(%rbp),%rax
    22ea:	48 89 c7             	mov    %rax,%rdi
    22ed:	e8 fa 00 00 00       	callq  23ec <_ZSt12__relocate_aIPSt4pairIiiES2_SaIS1_EET0_T_S5_S4_RT1_>
    22f2:	c9                   	leaveq 
    22f3:	c3                   	retq   

00000000000022f4 <_ZSt32__make_move_if_noexcept_iteratorISt4pairIiiESt13move_iteratorIPS1_EET0_PT_>:
    22f4:	55                   	push   %rbp
    22f5:	48 89 e5             	mov    %rsp,%rbp
    22f8:	48 83 ec 20          	sub    $0x20,%rsp
    22fc:	48 89 7d e8          	mov    %rdi,-0x18(%rbp)
    2300:	48 8b 55 e8          	mov    -0x18(%rbp),%rdx
    2304:	48 8d 45 f8          	lea    -0x8(%rbp),%rax
    2308:	48 89 d6             	mov    %rdx,%rsi
    230b:	48 89 c7             	mov    %rax,%rdi
    230e:	e8 3d 01 00 00       	callq  2450 <_ZNSt13move_iteratorIPSt4pairIiiEEC1ES2_>
    2313:	48 8b 45 f8          	mov    -0x8(%rbp),%rax
    2317:	c9                   	leaveq 
    2318:	c3                   	retq   

0000000000002319 <_ZSt22__uninitialized_copy_aISt13move_iteratorIPSt4pairIiiEES3_S2_ET0_T_S6_S5_RSaIT1_E>:
    2319:	55                   	push   %rbp
    231a:	48 89 e5             	mov    %rsp,%rbp
    231d:	48 83 ec 20          	sub    $0x20,%rsp
    2321:	48 89 7d f8          	mov    %rdi,-0x8(%rbp)
    2325:	48 89 75 f0          	mov    %rsi,-0x10(%rbp)
    2329:	48 89 55 e8          	mov    %rdx,-0x18(%rbp)
    232d:	48 89 4d e0          	mov    %rcx,-0x20(%rbp)
    2331:	48 8b 55 e8          	mov    -0x18(%rbp),%rdx
    2335:	48 8b 4d f0          	mov    -0x10(%rbp),%rcx
    2339:	48 8b 45 f8          	mov    -0x8(%rbp),%rax
    233d:	48 89 ce             	mov    %rcx,%rsi
    2340:	48 89 c7             	mov    %rax,%rdi
    2343:	e8 22 01 00 00       	callq  246a <_ZSt18uninitialized_copyISt13move_iteratorIPSt4pairIiiEES3_ET0_T_S6_S5_>
    2348:	c9                   	leaveq 
    2349:	c3                   	retq   

000000000000234a <_ZN9__gnu_cxx13new_allocatorISt4pairIiiEE7destroyIS2_EEvPT_>:
    234a:	55                   	push   %rbp
    234b:	48 89 e5             	mov    %rsp,%rbp
    234e:	48 89 7d f8          	mov    %rdi,-0x8(%rbp)
    2352:	48 89 75 f0          	mov    %rsi,-0x10(%rbp)
    2356:	90                   	nop
    2357:	5d                   	pop    %rbp
    2358:	c3                   	retq   

0000000000002359 <_ZNSt6vectorISt4pairIiiESaIS1_EE11_S_max_sizeERKS2_>:
    2359:	55                   	push   %rbp
    235a:	48 89 e5             	mov    %rsp,%rbp
    235d:	48 83 ec 20          	sub    $0x20,%rsp
    2361:	48 89 7d e8          	mov    %rdi,-0x18(%rbp)
    2365:	48 b8 ff ff ff ff ff 	movabs $0xfffffffffffffff,%rax
    236c:	ff ff 0f 
    236f:	48 89 45 f8          	mov    %rax,-0x8(%rbp)
    2373:	48 8b 45 e8          	mov    -0x18(%rbp),%rax
    2377:	48 89 c7             	mov    %rax,%rdi
    237a:	e8 1c 01 00 00       	callq  249b <_ZNSt16allocator_traitsISaISt4pairIiiEEE8max_sizeERKS2_>
    237f:	48 89 45 f0          	mov    %rax,-0x10(%rbp)
    2383:	48 8d 55 f0          	lea    -0x10(%rbp),%rdx
    2387:	48 8d 45 f8          	lea    -0x8(%rbp),%rax
    238b:	48 89 d6             	mov    %rdx,%rsi
    238e:	48 89 c7             	mov    %rax,%rdi
    2391:	e8 84 f4 ff ff       	callq  181a <_ZSt3minImERKT_S2_S2_>
    2396:	48 8b 00             	mov    (%rax),%rax
    2399:	c9                   	leaveq 
    239a:	c3                   	retq   
    239b:	90                   	nop

000000000000239c <_ZNKSt12_Vector_baseISt4pairIiiESaIS1_EE19_M_get_Tp_allocatorEv>:
    239c:	55                   	push   %rbp
    239d:	48 89 e5             	mov    %rsp,%rbp
    23a0:	48 89 7d f8          	mov    %rdi,-0x8(%rbp)
    23a4:	48 8b 45 f8          	mov    -0x8(%rbp),%rax
    23a8:	5d                   	pop    %rbp
    23a9:	c3                   	retq   

00000000000023aa <_ZN9__gnu_cxx13new_allocatorISt4pairIiiEE8allocateEmPKv>:
    23aa:	55                   	push   %rbp
    23ab:	48 89 e5             	mov    %rsp,%rbp
    23ae:	48 83 ec 20          	sub    $0x20,%rsp
    23b2:	48 89 7d f8          	mov    %rdi,-0x8(%rbp)
    23b6:	48 89 75 f0          	mov    %rsi,-0x10(%rbp)
    23ba:	48 89 55 e8          	mov    %rdx,-0x18(%rbp)
    23be:	48 8b 45 f8          	mov    -0x8(%rbp),%rax
    23c2:	48 89 c7             	mov    %rax,%rdi
    23c5:	e8 ec 00 00 00       	callq  24b6 <_ZNK9__gnu_cxx13new_allocatorISt4pairIiiEE8max_sizeEv>
    23ca:	48 39 45 f0          	cmp    %rax,-0x10(%rbp)
    23ce:	0f 97 c0             	seta   %al
    23d1:	84 c0                	test   %al,%al
    23d3:	74 05                	je     23da <_ZN9__gnu_cxx13new_allocatorISt4pairIiiEE8allocateEmPKv+0x30>
    23d5:	e8 56 ec ff ff       	callq  1030 <_ZSt17__throw_bad_allocv@plt>
    23da:	48 8b 45 f0          	mov    -0x10(%rbp),%rax
    23de:	48 c1 e0 03          	shl    $0x3,%rax
    23e2:	48 89 c7             	mov    %rax,%rdi
    23e5:	e8 d6 ec ff ff       	callq  10c0 <_Znwm@plt>
    23ea:	c9                   	leaveq 
    23eb:	c3                   	retq   

00000000000023ec <_ZSt12__relocate_aIPSt4pairIiiES2_SaIS1_EET0_T_S5_S4_RT1_>:
    23ec:	55                   	push   %rbp
    23ed:	48 89 e5             	mov    %rsp,%rbp
    23f0:	41 54                	push   %r12
    23f2:	53                   	push   %rbx
    23f3:	48 83 ec 20          	sub    $0x20,%rsp
    23f7:	48 89 7d e8          	mov    %rdi,-0x18(%rbp)
    23fb:	48 89 75 e0          	mov    %rsi,-0x20(%rbp)
    23ff:	48 89 55 d8          	mov    %rdx,-0x28(%rbp)
    2403:	48 89 4d d0          	mov    %rcx,-0x30(%rbp)
    2407:	48 8b 45 d8          	mov    -0x28(%rbp),%rax
    240b:	48 89 c7             	mov    %rax,%rdi
    240e:	e8 b7 00 00 00       	callq  24ca <_ZSt12__niter_baseIPSt4pairIiiEET_S3_>
    2413:	49 89 c4             	mov    %rax,%r12
    2416:	48 8b 45 e0          	mov    -0x20(%rbp),%rax
    241a:	48 89 c7             	mov    %rax,%rdi
    241d:	e8 a8 00 00 00       	callq  24ca <_ZSt12__niter_baseIPSt4pairIiiEET_S3_>
    2422:	48 89 c3             	mov    %rax,%rbx
    2425:	48 8b 45 e8          	mov    -0x18(%rbp),%rax
    2429:	48 89 c7             	mov    %rax,%rdi
    242c:	e8 99 00 00 00       	callq  24ca <_ZSt12__niter_baseIPSt4pairIiiEET_S3_>
    2431:	48 89 c7             	mov    %rax,%rdi
    2434:	48 8b 45 d0          	mov    -0x30(%rbp),%rax
    2438:	48 89 c1             	mov    %rax,%rcx
    243b:	4c 89 e2             	mov    %r12,%rdx
    243e:	48 89 de             	mov    %rbx,%rsi
    2441:	e8 92 00 00 00       	callq  24d8 <_ZSt14__relocate_a_1IPSt4pairIiiES2_SaIS1_EET0_T_S5_S4_RT1_>
    2446:	48 83 c4 20          	add    $0x20,%rsp
    244a:	5b                   	pop    %rbx
    244b:	41 5c                	pop    %r12
    244d:	5d                   	pop    %rbp
    244e:	c3                   	retq   
    244f:	90                   	nop

0000000000002450 <_ZNSt13move_iteratorIPSt4pairIiiEEC1ES2_>:
    2450:	55                   	push   %rbp
    2451:	48 89 e5             	mov    %rsp,%rbp
    2454:	48 89 7d f8          	mov    %rdi,-0x8(%rbp)
    2458:	48 89 75 f0          	mov    %rsi,-0x10(%rbp)
    245c:	48 8b 45 f8          	mov    -0x8(%rbp),%rax
    2460:	48 8b 55 f0          	mov    -0x10(%rbp),%rdx
    2464:	48 89 10             	mov    %rdx,(%rax)
    2467:	90                   	nop
    2468:	5d                   	pop    %rbp
    2469:	c3                   	retq   

000000000000246a <_ZSt18uninitialized_copyISt13move_iteratorIPSt4pairIiiEES3_ET0_T_S6_S5_>:
    246a:	55                   	push   %rbp
    246b:	48 89 e5             	mov    %rsp,%rbp
    246e:	48 83 ec 30          	sub    $0x30,%rsp
    2472:	48 89 7d e8          	mov    %rdi,-0x18(%rbp)
    2476:	48 89 75 e0          	mov    %rsi,-0x20(%rbp)
    247a:	48 89 55 d8          	mov    %rdx,-0x28(%rbp)
    247e:	c6 45 ff 01          	movb   $0x1,-0x1(%rbp)
    2482:	48 8b 55 d8          	mov    -0x28(%rbp),%rdx
    2486:	48 8b 4d e0          	mov    -0x20(%rbp),%rcx
    248a:	48 8b 45 e8          	mov    -0x18(%rbp),%rax
    248e:	48 89 ce             	mov    %rcx,%rsi
    2491:	48 89 c7             	mov    %rax,%rdi
    2494:	e8 b1 00 00 00       	callq  254a <_ZNSt20__uninitialized_copyILb0EE13__uninit_copyISt13move_iteratorIPSt4pairIiiEES5_EET0_T_S8_S7_>
    2499:	c9                   	leaveq 
    249a:	c3                   	retq   

000000000000249b <_ZNSt16allocator_traitsISaISt4pairIiiEEE8max_sizeERKS2_>:
    249b:	55                   	push   %rbp
    249c:	48 89 e5             	mov    %rsp,%rbp
    249f:	48 83 ec 10          	sub    $0x10,%rsp
    24a3:	48 89 7d f8          	mov    %rdi,-0x8(%rbp)
    24a7:	48 8b 45 f8          	mov    -0x8(%rbp),%rax
    24ab:	48 89 c7             	mov    %rax,%rdi
    24ae:	e8 03 00 00 00       	callq  24b6 <_ZNK9__gnu_cxx13new_allocatorISt4pairIiiEE8max_sizeEv>
    24b3:	c9                   	leaveq 
    24b4:	c3                   	retq   
    24b5:	90                   	nop

00000000000024b6 <_ZNK9__gnu_cxx13new_allocatorISt4pairIiiEE8max_sizeEv>:
    24b6:	55                   	push   %rbp
    24b7:	48 89 e5             	mov    %rsp,%rbp
    24ba:	48 89 7d f8          	mov    %rdi,-0x8(%rbp)
    24be:	48 b8 ff ff ff ff ff 	movabs $0xfffffffffffffff,%rax
    24c5:	ff ff 0f 
    24c8:	5d                   	pop    %rbp
    24c9:	c3                   	retq   

00000000000024ca <_ZSt12__niter_baseIPSt4pairIiiEET_S3_>:
    24ca:	55                   	push   %rbp
    24cb:	48 89 e5             	mov    %rsp,%rbp
    24ce:	48 89 7d f8          	mov    %rdi,-0x8(%rbp)
    24d2:	48 8b 45 f8          	mov    -0x8(%rbp),%rax
    24d6:	5d                   	pop    %rbp
    24d7:	c3                   	retq   

00000000000024d8 <_ZSt14__relocate_a_1IPSt4pairIiiES2_SaIS1_EET0_T_S5_S4_RT1_>:
    24d8:	55                   	push   %rbp
    24d9:	48 89 e5             	mov    %rsp,%rbp
    24dc:	53                   	push   %rbx
    24dd:	48 83 ec 38          	sub    $0x38,%rsp
    24e1:	48 89 7d d8          	mov    %rdi,-0x28(%rbp)
    24e5:	48 89 75 d0          	mov    %rsi,-0x30(%rbp)
    24e9:	48 89 55 c8          	mov    %rdx,-0x38(%rbp)
    24ed:	48 89 4d c0          	mov    %rcx,-0x40(%rbp)
    24f1:	48 8b 45 c8          	mov    -0x38(%rbp),%rax
    24f5:	48 89 45 e8          	mov    %rax,-0x18(%rbp)
    24f9:	48 8b 45 d8          	mov    -0x28(%rbp),%rax
    24fd:	48 3b 45 d0          	cmp    -0x30(%rbp),%rax
    2501:	74 3c                	je     253f <_ZSt14__relocate_a_1IPSt4pairIiiES2_SaIS1_EET0_T_S5_S4_RT1_+0x67>
    2503:	48 8b 45 d8          	mov    -0x28(%rbp),%rax
    2507:	48 89 c7             	mov    %rax,%rdi
    250a:	e8 e8 00 00 00       	callq  25f7 <_ZSt11__addressofISt4pairIiiEEPT_RS2_>
    250f:	48 89 c3             	mov    %rax,%rbx
    2512:	48 8b 45 e8          	mov    -0x18(%rbp),%rax
    2516:	48 89 c7             	mov    %rax,%rdi
    2519:	e8 d9 00 00 00       	callq  25f7 <_ZSt11__addressofISt4pairIiiEEPT_RS2_>
    251e:	48 89 c1             	mov    %rax,%rcx
    2521:	48 8b 45 c0          	mov    -0x40(%rbp),%rax
    2525:	48 89 c2             	mov    %rax,%rdx
    2528:	48 89 de             	mov    %rbx,%rsi
    252b:	48 89 cf             	mov    %rcx,%rdi
    252e:	e8 d2 00 00 00       	callq  2605 <_ZSt19__relocate_object_aISt4pairIiiES1_SaIS1_EEvPT_PT0_RT1_>
    2533:	48 83 45 d8 08       	addq   $0x8,-0x28(%rbp)
    2538:	48 83 45 e8 08       	addq   $0x8,-0x18(%rbp)
    253d:	eb ba                	jmp    24f9 <_ZSt14__relocate_a_1IPSt4pairIiiES2_SaIS1_EET0_T_S5_S4_RT1_+0x21>
    253f:	48 8b 45 e8          	mov    -0x18(%rbp),%rax
    2543:	48 83 c4 38          	add    $0x38,%rsp
    2547:	5b                   	pop    %rbx
    2548:	5d                   	pop    %rbp
    2549:	c3                   	retq   

000000000000254a <_ZNSt20__uninitialized_copyILb0EE13__uninit_copyISt13move_iteratorIPSt4pairIiiEES5_EET0_T_S8_S7_>:
    254a:	55                   	push   %rbp
    254b:	48 89 e5             	mov    %rsp,%rbp
    254e:	53                   	push   %rbx
    254f:	48 83 ec 38          	sub    $0x38,%rsp
    2553:	48 89 7d d8          	mov    %rdi,-0x28(%rbp)
    2557:	48 89 75 d0          	mov    %rsi,-0x30(%rbp)
    255b:	48 89 55 c8          	mov    %rdx,-0x38(%rbp)
    255f:	48 8b 45 c8          	mov    -0x38(%rbp),%rax
    2563:	48 89 45 e8          	mov    %rax,-0x18(%rbp)
    2567:	48 8d 55 d0          	lea    -0x30(%rbp),%rdx
    256b:	48 8d 45 d8          	lea    -0x28(%rbp),%rax
    256f:	48 89 d6             	mov    %rdx,%rsi
    2572:	48 89 c7             	mov    %rax,%rdi
    2575:	e8 e2 00 00 00       	callq  265c <_ZStneIPSt4pairIiiEEbRKSt13move_iteratorIT_ES7_>
    257a:	84 c0                	test   %al,%al
    257c:	74 39                	je     25b7 <_ZNSt20__uninitialized_copyILb0EE13__uninit_copyISt13move_iteratorIPSt4pairIiiEES5_EET0_T_S8_S7_+0x6d>
    257e:	48 8d 45 d8          	lea    -0x28(%rbp),%rax
    2582:	48 89 c7             	mov    %rax,%rdi
    2585:	e8 1a 01 00 00       	callq  26a4 <_ZNKSt13move_iteratorIPSt4pairIiiEEdeEv>
    258a:	48 89 c3             	mov    %rax,%rbx
    258d:	48 8b 45 e8          	mov    -0x18(%rbp),%rax
    2591:	48 89 c7             	mov    %rax,%rdi
    2594:	e8 5e 00 00 00       	callq  25f7 <_ZSt11__addressofISt4pairIiiEEPT_RS2_>
    2599:	48 89 de             	mov    %rbx,%rsi
    259c:	48 89 c7             	mov    %rax,%rdi
    259f:	e8 11 01 00 00       	callq  26b5 <_ZSt10_ConstructISt4pairIiiEJS1_EEvPT_DpOT0_>
    25a4:	48 8d 45 d8          	lea    -0x28(%rbp),%rax
    25a8:	48 89 c7             	mov    %rax,%rdi
    25ab:	e8 d4 00 00 00       	callq  2684 <_ZNSt13move_iteratorIPSt4pairIiiEEppEv>
    25b0:	48 83 45 e8 08       	addq   $0x8,-0x18(%rbp)
    25b5:	eb b0                	jmp    2567 <_ZNSt20__uninitialized_copyILb0EE13__uninit_copyISt13move_iteratorIPSt4pairIiiEES5_EET0_T_S8_S7_+0x1d>
    25b7:	48 8b 45 e8          	mov    -0x18(%rbp),%rax
    25bb:	eb 33                	jmp    25f0 <_ZNSt20__uninitialized_copyILb0EE13__uninit_copyISt13move_iteratorIPSt4pairIiiEES5_EET0_T_S8_S7_+0xa6>
    25bd:	48 89 c7             	mov    %rax,%rdi
    25c0:	e8 7b ea ff ff       	callq  1040 <__cxa_begin_catch@plt>
    25c5:	48 8b 55 e8          	mov    -0x18(%rbp),%rdx
    25c9:	48 8b 45 c8          	mov    -0x38(%rbp),%rax
    25cd:	48 89 d6             	mov    %rdx,%rsi
    25d0:	48 89 c7             	mov    %rax,%rdi
    25d3:	e8 77 f6 ff ff       	callq  1c4f <_ZSt8_DestroyIPSt4pairIiiEEvT_S3_>
    25d8:	e8 03 eb ff ff       	callq  10e0 <__cxa_rethrow@plt>
    25dd:	48 89 c3             	mov    %rax,%rbx
    25e0:	e8 1b eb ff ff       	callq  1100 <__cxa_end_catch@plt>
    25e5:	48 89 d8             	mov    %rbx,%rax
    25e8:	48 89 c7             	mov    %rax,%rdi
    25eb:	e8 20 eb ff ff       	callq  1110 <_Unwind_Resume@plt>
    25f0:	48 83 c4 38          	add    $0x38,%rsp
    25f4:	5b                   	pop    %rbx
    25f5:	5d                   	pop    %rbp
    25f6:	c3                   	retq   

00000000000025f7 <_ZSt11__addressofISt4pairIiiEEPT_RS2_>:
    25f7:	55                   	push   %rbp
    25f8:	48 89 e5             	mov    %rsp,%rbp
    25fb:	48 89 7d f8          	mov    %rdi,-0x8(%rbp)
    25ff:	48 8b 45 f8          	mov    -0x8(%rbp),%rax
    2603:	5d                   	pop    %rbp
    2604:	c3                   	retq   

0000000000002605 <_ZSt19__relocate_object_aISt4pairIiiES1_SaIS1_EEvPT_PT0_RT1_>:
    2605:	55                   	push   %rbp
    2606:	48 89 e5             	mov    %rsp,%rbp
    2609:	48 83 ec 20          	sub    $0x20,%rsp
    260d:	48 89 7d f8          	mov    %rdi,-0x8(%rbp)
    2611:	48 89 75 f0          	mov    %rsi,-0x10(%rbp)
    2615:	48 89 55 e8          	mov    %rdx,-0x18(%rbp)
    2619:	48 8b 45 f0          	mov    -0x10(%rbp),%rax
    261d:	48 89 c7             	mov    %rax,%rdi
    2620:	e8 49 f5 ff ff       	callq  1b6e <_ZSt4moveIRSt4pairIiiEEONSt16remove_referenceIT_E4typeEOS4_>
    2625:	48 89 c2             	mov    %rax,%rdx
    2628:	48 8b 4d f8          	mov    -0x8(%rbp),%rcx
    262c:	48 8b 45 e8          	mov    -0x18(%rbp),%rax
    2630:	48 89 ce             	mov    %rcx,%rsi
    2633:	48 89 c7             	mov    %rax,%rdi
    2636:	e8 48 f6 ff ff       	callq  1c83 <_ZNSt16allocator_traitsISaISt4pairIiiEEE9constructIS1_JS1_EEEvRS2_PT_DpOT0_>
    263b:	48 8b 45 f0          	mov    -0x10(%rbp),%rax
    263f:	48 89 c7             	mov    %rax,%rdi
    2642:	e8 b0 ff ff ff       	callq  25f7 <_ZSt11__addressofISt4pairIiiEEPT_RS2_>
    2647:	48 89 c2             	mov    %rax,%rdx
    264a:	48 8b 45 e8          	mov    -0x18(%rbp),%rax
    264e:	48 89 d6             	mov    %rdx,%rsi
    2651:	48 89 c7             	mov    %rax,%rdi
    2654:	e8 f7 fb ff ff       	callq  2250 <_ZNSt16allocator_traitsISaISt4pairIiiEEE7destroyIS1_EEvRS2_PT_>
    2659:	90                   	nop
    265a:	c9                   	leaveq 
    265b:	c3                   	retq   

000000000000265c <_ZStneIPSt4pairIiiEEbRKSt13move_iteratorIT_ES7_>:
    265c:	55                   	push   %rbp
    265d:	48 89 e5             	mov    %rsp,%rbp
    2660:	48 83 ec 10          	sub    $0x10,%rsp
    2664:	48 89 7d f8          	mov    %rdi,-0x8(%rbp)
    2668:	48 89 75 f0          	mov    %rsi,-0x10(%rbp)
    266c:	48 8b 55 f0          	mov    -0x10(%rbp),%rdx
    2670:	48 8b 45 f8          	mov    -0x8(%rbp),%rax
    2674:	48 89 d6             	mov    %rdx,%rsi
    2677:	48 89 c7             	mov    %rax,%rdi
    267a:	e8 75 00 00 00       	callq  26f4 <_ZSteqIPSt4pairIiiEEbRKSt13move_iteratorIT_ES7_>
    267f:	83 f0 01             	xor    $0x1,%eax
    2682:	c9                   	leaveq 
    2683:	c3                   	retq   

0000000000002684 <_ZNSt13move_iteratorIPSt4pairIiiEEppEv>:
    2684:	55                   	push   %rbp
    2685:	48 89 e5             	mov    %rsp,%rbp
    2688:	48 89 7d f8          	mov    %rdi,-0x8(%rbp)
    268c:	48 8b 45 f8          	mov    -0x8(%rbp),%rax
    2690:	48 8b 00             	mov    (%rax),%rax
    2693:	48 8d 50 08          	lea    0x8(%rax),%rdx
    2697:	48 8b 45 f8          	mov    -0x8(%rbp),%rax
    269b:	48 89 10             	mov    %rdx,(%rax)
    269e:	48 8b 45 f8          	mov    -0x8(%rbp),%rax
    26a2:	5d                   	pop    %rbp
    26a3:	c3                   	retq   

00000000000026a4 <_ZNKSt13move_iteratorIPSt4pairIiiEEdeEv>:
    26a4:	55                   	push   %rbp
    26a5:	48 89 e5             	mov    %rsp,%rbp
    26a8:	48 89 7d f8          	mov    %rdi,-0x8(%rbp)
    26ac:	48 8b 45 f8          	mov    -0x8(%rbp),%rax
    26b0:	48 8b 00             	mov    (%rax),%rax
    26b3:	5d                   	pop    %rbp
    26b4:	c3                   	retq   

00000000000026b5 <_ZSt10_ConstructISt4pairIiiEJS1_EEvPT_DpOT0_>:
    26b5:	55                   	push   %rbp
    26b6:	48 89 e5             	mov    %rsp,%rbp
    26b9:	53                   	push   %rbx
    26ba:	48 83 ec 18          	sub    $0x18,%rsp
    26be:	48 89 7d e8          	mov    %rdi,-0x18(%rbp)
    26c2:	48 89 75 e0          	mov    %rsi,-0x20(%rbp)
    26c6:	48 8b 45 e0          	mov    -0x20(%rbp),%rax
    26ca:	48 89 c7             	mov    %rax,%rdi
    26cd:	e8 a3 f5 ff ff       	callq  1c75 <_ZSt7forwardISt4pairIiiEEOT_RNSt16remove_referenceIS2_E4typeE>
    26d2:	48 89 c3             	mov    %rax,%rbx
    26d5:	48 8b 45 e8          	mov    -0x18(%rbp),%rax
    26d9:	48 89 c6             	mov    %rax,%rsi
    26dc:	bf 08 00 00 00       	mov    $0x8,%edi
    26e1:	e8 22 f1 ff ff       	callq  1808 <_ZnwmPv>
    26e6:	48 8b 13             	mov    (%rbx),%rdx
    26e9:	48 89 10             	mov    %rdx,(%rax)
    26ec:	90                   	nop
    26ed:	48 83 c4 18          	add    $0x18,%rsp
    26f1:	5b                   	pop    %rbx
    26f2:	5d                   	pop    %rbp
    26f3:	c3                   	retq   

00000000000026f4 <_ZSteqIPSt4pairIiiEEbRKSt13move_iteratorIT_ES7_>:
    26f4:	55                   	push   %rbp
    26f5:	48 89 e5             	mov    %rsp,%rbp
    26f8:	53                   	push   %rbx
    26f9:	48 83 ec 18          	sub    $0x18,%rsp
    26fd:	48 89 7d e8          	mov    %rdi,-0x18(%rbp)
    2701:	48 89 75 e0          	mov    %rsi,-0x20(%rbp)
    2705:	48 8b 45 e8          	mov    -0x18(%rbp),%rax
    2709:	48 89 c7             	mov    %rax,%rdi
    270c:	e8 1d 00 00 00       	callq  272e <_ZNKSt13move_iteratorIPSt4pairIiiEE4baseEv>
    2711:	48 89 c3             	mov    %rax,%rbx
    2714:	48 8b 45 e0          	mov    -0x20(%rbp),%rax
    2718:	48 89 c7             	mov    %rax,%rdi
    271b:	e8 0e 00 00 00       	callq  272e <_ZNKSt13move_iteratorIPSt4pairIiiEE4baseEv>
    2720:	48 39 c3             	cmp    %rax,%rbx
    2723:	0f 94 c0             	sete   %al
    2726:	48 83 c4 18          	add    $0x18,%rsp
    272a:	5b                   	pop    %rbx
    272b:	5d                   	pop    %rbp
    272c:	c3                   	retq   
    272d:	90                   	nop

000000000000272e <_ZNKSt13move_iteratorIPSt4pairIiiEE4baseEv>:
    272e:	55                   	push   %rbp
    272f:	48 89 e5             	mov    %rsp,%rbp
    2732:	48 89 7d f8          	mov    %rdi,-0x8(%rbp)
    2736:	48 8b 45 f8          	mov    -0x8(%rbp),%rax
    273a:	48 8b 00             	mov    (%rax),%rax
    273d:	5d                   	pop    %rbp
    273e:	c3                   	retq   
    273f:	90                   	nop

0000000000002740 <__libc_csu_init>:
    2740:	41 57                	push   %r15
    2742:	4c 8d 3d 67 36 00 00 	lea    0x3667(%rip),%r15        # 5db0 <__frame_dummy_init_array_entry>
    2749:	41 56                	push   %r14
    274b:	49 89 d6             	mov    %rdx,%r14
    274e:	41 55                	push   %r13
    2750:	49 89 f5             	mov    %rsi,%r13
    2753:	41 54                	push   %r12
    2755:	41 89 fc             	mov    %edi,%r12d
    2758:	55                   	push   %rbp
    2759:	48 8d 2d 60 36 00 00 	lea    0x3660(%rip),%rbp        # 5dc0 <__do_global_dtors_aux_fini_array_entry>
    2760:	53                   	push   %rbx
    2761:	4c 29 fd             	sub    %r15,%rbp
    2764:	48 83 ec 08          	sub    $0x8,%rsp
    2768:	e8 93 e8 ff ff       	callq  1000 <_init>
    276d:	48 c1 fd 03          	sar    $0x3,%rbp
    2771:	74 1b                	je     278e <__libc_csu_init+0x4e>
    2773:	31 db                	xor    %ebx,%ebx
    2775:	0f 1f 00             	nopl   (%rax)
    2778:	4c 89 f2             	mov    %r14,%rdx
    277b:	4c 89 ee             	mov    %r13,%rsi
    277e:	44 89 e7             	mov    %r12d,%edi
    2781:	41 ff 14 df          	callq  *(%r15,%rbx,8)
    2785:	48 83 c3 01          	add    $0x1,%rbx
    2789:	48 39 dd             	cmp    %rbx,%rbp
    278c:	75 ea                	jne    2778 <__libc_csu_init+0x38>
    278e:	48 83 c4 08          	add    $0x8,%rsp
    2792:	5b                   	pop    %rbx
    2793:	5d                   	pop    %rbp
    2794:	41 5c                	pop    %r12
    2796:	41 5d                	pop    %r13
    2798:	41 5e                	pop    %r14
    279a:	41 5f                	pop    %r15
    279c:	c3                   	retq   
    279d:	0f 1f 00             	nopl   (%rax)

00000000000027a0 <__libc_csu_fini>:
    27a0:	c3                   	retq   

Disassembly of section .fini:

00000000000027a4 <_fini>:
    27a4:	48 83 ec 08          	sub    $0x8,%rsp
    27a8:	48 83 c4 08          	add    $0x8,%rsp
    27ac:	c3                   	retq   
