
B - Bear and Poker.out:     file format elf64-x86-64


Disassembly of section .init:

0000000000001000 <_init>:
    1000:	48 83 ec 08          	sub    $0x8,%rsp
    1004:	48 8b 05 dd 2f 00 00 	mov    0x2fdd(%rip),%rax        # 3fe8 <__gmon_start__>
    100b:	48 85 c0             	test   %rax,%rax
    100e:	74 02                	je     1012 <_init+0x12>
    1010:	ff d0                	callq  *%rax
    1012:	48 83 c4 08          	add    $0x8,%rsp
    1016:	c3                   	retq   

Disassembly of section .plt:

0000000000001020 <.plt>:
    1020:	ff 35 e2 2f 00 00    	pushq  0x2fe2(%rip)        # 4008 <_GLOBAL_OFFSET_TABLE_+0x8>
    1026:	ff 25 e4 2f 00 00    	jmpq   *0x2fe4(%rip)        # 4010 <_GLOBAL_OFFSET_TABLE_+0x10>
    102c:	0f 1f 40 00          	nopl   0x0(%rax)

0000000000001030 <_ZNSt8ios_base15sync_with_stdioEb@plt>:
    1030:	ff 25 e2 2f 00 00    	jmpq   *0x2fe2(%rip)        # 4018 <_ZNSt8ios_base15sync_with_stdioEb@GLIBCXX_3.4>
    1036:	68 00 00 00 00       	pushq  $0x0
    103b:	e9 e0 ff ff ff       	jmpq   1020 <.plt>

0000000000001040 <_ZNSirsERi@plt>:
    1040:	ff 25 da 2f 00 00    	jmpq   *0x2fda(%rip)        # 4020 <_ZNSirsERi@GLIBCXX_3.4>
    1046:	68 01 00 00 00       	pushq  $0x1
    104b:	e9 d0 ff ff ff       	jmpq   1020 <.plt>

0000000000001050 <_ZNSt9basic_iosIcSt11char_traitsIcEE3tieEPSo@plt>:
    1050:	ff 25 d2 2f 00 00    	jmpq   *0x2fd2(%rip)        # 4028 <_ZNSt9basic_iosIcSt11char_traitsIcEE3tieEPSo@GLIBCXX_3.4>
    1056:	68 02 00 00 00       	pushq  $0x2
    105b:	e9 c0 ff ff ff       	jmpq   1020 <.plt>

0000000000001060 <__cxa_atexit@plt>:
    1060:	ff 25 ca 2f 00 00    	jmpq   *0x2fca(%rip)        # 4030 <__cxa_atexit@GLIBC_2.2.5>
    1066:	68 03 00 00 00       	pushq  $0x3
    106b:	e9 b0 ff ff ff       	jmpq   1020 <.plt>

0000000000001070 <_ZStlsISt11char_traitsIcEERSt13basic_ostreamIcT_ES5_PKc@plt>:
    1070:	ff 25 c2 2f 00 00    	jmpq   *0x2fc2(%rip)        # 4038 <_ZStlsISt11char_traitsIcEERSt13basic_ostreamIcT_ES5_PKc@GLIBCXX_3.4>
    1076:	68 04 00 00 00       	pushq  $0x4
    107b:	e9 a0 ff ff ff       	jmpq   1020 <.plt>

0000000000001080 <_ZNKSt9basic_iosIcSt11char_traitsIcEEcvbEv@plt>:
    1080:	ff 25 ba 2f 00 00    	jmpq   *0x2fba(%rip)        # 4040 <_ZNKSt9basic_iosIcSt11char_traitsIcEEcvbEv@GLIBCXX_3.4.21>
    1086:	68 05 00 00 00       	pushq  $0x5
    108b:	e9 90 ff ff ff       	jmpq   1020 <.plt>

0000000000001090 <_ZNSt8ios_base4InitC1Ev@plt>:
    1090:	ff 25 b2 2f 00 00    	jmpq   *0x2fb2(%rip)        # 4048 <_ZNSt8ios_base4InitC1Ev@GLIBCXX_3.4>
    1096:	68 06 00 00 00       	pushq  $0x6
    109b:	e9 80 ff ff ff       	jmpq   1020 <.plt>

Disassembly of section .plt.got:

00000000000010a0 <__cxa_finalize@plt>:
    10a0:	ff 25 2a 2f 00 00    	jmpq   *0x2f2a(%rip)        # 3fd0 <__cxa_finalize@GLIBC_2.2.5>
    10a6:	66 90                	xchg   %ax,%ax

Disassembly of section .text:

00000000000010b0 <_start>:
    10b0:	31 ed                	xor    %ebp,%ebp
    10b2:	49 89 d1             	mov    %rdx,%r9
    10b5:	5e                   	pop    %rsi
    10b6:	48 89 e2             	mov    %rsp,%rdx
    10b9:	48 83 e4 f0          	and    $0xfffffffffffffff0,%rsp
    10bd:	50                   	push   %rax
    10be:	54                   	push   %rsp
    10bf:	4c 8d 05 da 05 00 00 	lea    0x5da(%rip),%r8        # 16a0 <__libc_csu_fini>
    10c6:	48 8d 0d 73 05 00 00 	lea    0x573(%rip),%rcx        # 1640 <__libc_csu_init>
    10cd:	48 8d 3d dd 03 00 00 	lea    0x3dd(%rip),%rdi        # 14b1 <main>
    10d4:	ff 15 06 2f 00 00    	callq  *0x2f06(%rip)        # 3fe0 <__libc_start_main@GLIBC_2.2.5>
    10da:	f4                   	hlt    
    10db:	0f 1f 44 00 00       	nopl   0x0(%rax,%rax,1)

00000000000010e0 <deregister_tm_clones>:
    10e0:	48 8d 3d 79 2f 00 00 	lea    0x2f79(%rip),%rdi        # 4060 <__TMC_END__>
    10e7:	48 8d 05 72 2f 00 00 	lea    0x2f72(%rip),%rax        # 4060 <__TMC_END__>
    10ee:	48 39 f8             	cmp    %rdi,%rax
    10f1:	74 15                	je     1108 <deregister_tm_clones+0x28>
    10f3:	48 8b 05 de 2e 00 00 	mov    0x2ede(%rip),%rax        # 3fd8 <_ITM_deregisterTMCloneTable>
    10fa:	48 85 c0             	test   %rax,%rax
    10fd:	74 09                	je     1108 <deregister_tm_clones+0x28>
    10ff:	ff e0                	jmpq   *%rax
    1101:	0f 1f 80 00 00 00 00 	nopl   0x0(%rax)
    1108:	c3                   	retq   
    1109:	0f 1f 80 00 00 00 00 	nopl   0x0(%rax)

0000000000001110 <register_tm_clones>:
    1110:	48 8d 3d 49 2f 00 00 	lea    0x2f49(%rip),%rdi        # 4060 <__TMC_END__>
    1117:	48 8d 35 42 2f 00 00 	lea    0x2f42(%rip),%rsi        # 4060 <__TMC_END__>
    111e:	48 29 fe             	sub    %rdi,%rsi
    1121:	48 89 f0             	mov    %rsi,%rax
    1124:	48 c1 ee 3f          	shr    $0x3f,%rsi
    1128:	48 c1 f8 03          	sar    $0x3,%rax
    112c:	48 01 c6             	add    %rax,%rsi
    112f:	48 d1 fe             	sar    %rsi
    1132:	74 14                	je     1148 <register_tm_clones+0x38>
    1134:	48 8b 05 b5 2e 00 00 	mov    0x2eb5(%rip),%rax        # 3ff0 <_ITM_registerTMCloneTable>
    113b:	48 85 c0             	test   %rax,%rax
    113e:	74 08                	je     1148 <register_tm_clones+0x38>
    1140:	ff e0                	jmpq   *%rax
    1142:	66 0f 1f 44 00 00    	nopw   0x0(%rax,%rax,1)
    1148:	c3                   	retq   
    1149:	0f 1f 80 00 00 00 00 	nopl   0x0(%rax)

0000000000001150 <__do_global_dtors_aux>:
    1150:	80 3d 61 31 00 00 00 	cmpb   $0x0,0x3161(%rip)        # 42b8 <completed.7447>
    1157:	75 2f                	jne    1188 <__do_global_dtors_aux+0x38>
    1159:	55                   	push   %rbp
    115a:	48 83 3d 6e 2e 00 00 	cmpq   $0x0,0x2e6e(%rip)        # 3fd0 <__cxa_finalize@GLIBC_2.2.5>
    1161:	00 
    1162:	48 89 e5             	mov    %rsp,%rbp
    1165:	74 0c                	je     1173 <__do_global_dtors_aux+0x23>
    1167:	48 8b 3d ea 2e 00 00 	mov    0x2eea(%rip),%rdi        # 4058 <__dso_handle>
    116e:	e8 2d ff ff ff       	callq  10a0 <__cxa_finalize@plt>
    1173:	e8 68 ff ff ff       	callq  10e0 <deregister_tm_clones>
    1178:	c6 05 39 31 00 00 01 	movb   $0x1,0x3139(%rip)        # 42b8 <completed.7447>
    117f:	5d                   	pop    %rbp
    1180:	c3                   	retq   
    1181:	0f 1f 80 00 00 00 00 	nopl   0x0(%rax)
    1188:	c3                   	retq   
    1189:	0f 1f 80 00 00 00 00 	nopl   0x0(%rax)

0000000000001190 <frame_dummy>:
    1190:	e9 7b ff ff ff       	jmpq   1110 <register_tm_clones>

0000000000001195 <_Z7decSortxx>:
    1195:	55                   	push   %rbp
    1196:	48 89 e5             	mov    %rsp,%rbp
    1199:	48 89 7d f8          	mov    %rdi,-0x8(%rbp)
    119d:	48 89 75 f0          	mov    %rsi,-0x10(%rbp)
    11a1:	48 8b 45 f8          	mov    -0x8(%rbp),%rax
    11a5:	48 3b 45 f0          	cmp    -0x10(%rbp),%rax
    11a9:	0f 9f c0             	setg   %al
    11ac:	5d                   	pop    %rbp
    11ad:	c3                   	retq   

00000000000011ae <_Z12max_of_arrayPxx>:
    11ae:	55                   	push   %rbp
    11af:	48 89 e5             	mov    %rsp,%rbp
    11b2:	48 89 7d e8          	mov    %rdi,-0x18(%rbp)
    11b6:	48 89 75 e0          	mov    %rsi,-0x20(%rbp)
    11ba:	48 8b 45 e8          	mov    -0x18(%rbp),%rax
    11be:	48 8b 00             	mov    (%rax),%rax
    11c1:	48 89 45 f8          	mov    %rax,-0x8(%rbp)
    11c5:	48 c7 45 f0 00 00 00 	movq   $0x0,-0x10(%rbp)
    11cc:	00 
    11cd:	48 8b 45 f0          	mov    -0x10(%rbp),%rax
    11d1:	48 3b 45 e0          	cmp    -0x20(%rbp),%rax
    11d5:	7d 3d                	jge    1214 <_Z12max_of_arrayPxx+0x66>
    11d7:	48 8b 45 f0          	mov    -0x10(%rbp),%rax
    11db:	48 8d 14 c5 00 00 00 	lea    0x0(,%rax,8),%rdx
    11e2:	00 
    11e3:	48 8b 45 e8          	mov    -0x18(%rbp),%rax
    11e7:	48 01 d0             	add    %rdx,%rax
    11ea:	48 8b 00             	mov    (%rax),%rax
    11ed:	48 39 45 f8          	cmp    %rax,-0x8(%rbp)
    11f1:	7d 1a                	jge    120d <_Z12max_of_arrayPxx+0x5f>
    11f3:	48 8b 45 f0          	mov    -0x10(%rbp),%rax
    11f7:	48 8d 14 c5 00 00 00 	lea    0x0(,%rax,8),%rdx
    11fe:	00 
    11ff:	48 8b 45 e8          	mov    -0x18(%rbp),%rax
    1203:	48 01 d0             	add    %rdx,%rax
    1206:	48 8b 00             	mov    (%rax),%rax
    1209:	48 89 45 f8          	mov    %rax,-0x8(%rbp)
    120d:	48 83 45 f0 01       	addq   $0x1,-0x10(%rbp)
    1212:	eb b9                	jmp    11cd <_Z12max_of_arrayPxx+0x1f>
    1214:	48 8b 45 f8          	mov    -0x8(%rbp),%rax
    1218:	5d                   	pop    %rbp
    1219:	c3                   	retq   

000000000000121a <_Z12min_of_arrayPxx>:
    121a:	55                   	push   %rbp
    121b:	48 89 e5             	mov    %rsp,%rbp
    121e:	48 89 7d e8          	mov    %rdi,-0x18(%rbp)
    1222:	48 89 75 e0          	mov    %rsi,-0x20(%rbp)
    1226:	48 8b 45 e8          	mov    -0x18(%rbp),%rax
    122a:	48 8b 00             	mov    (%rax),%rax
    122d:	48 89 45 f8          	mov    %rax,-0x8(%rbp)
    1231:	48 c7 45 f0 00 00 00 	movq   $0x0,-0x10(%rbp)
    1238:	00 
    1239:	48 8b 45 f0          	mov    -0x10(%rbp),%rax
    123d:	48 3b 45 e0          	cmp    -0x20(%rbp),%rax
    1241:	7d 3d                	jge    1280 <_Z12min_of_arrayPxx+0x66>
    1243:	48 8b 45 f0          	mov    -0x10(%rbp),%rax
    1247:	48 8d 14 c5 00 00 00 	lea    0x0(,%rax,8),%rdx
    124e:	00 
    124f:	48 8b 45 e8          	mov    -0x18(%rbp),%rax
    1253:	48 01 d0             	add    %rdx,%rax
    1256:	48 8b 00             	mov    (%rax),%rax
    1259:	48 39 45 f8          	cmp    %rax,-0x8(%rbp)
    125d:	7e 1a                	jle    1279 <_Z12min_of_arrayPxx+0x5f>
    125f:	48 8b 45 f0          	mov    -0x10(%rbp),%rax
    1263:	48 8d 14 c5 00 00 00 	lea    0x0(,%rax,8),%rdx
    126a:	00 
    126b:	48 8b 45 e8          	mov    -0x18(%rbp),%rax
    126f:	48 01 d0             	add    %rdx,%rax
    1272:	48 8b 00             	mov    (%rax),%rax
    1275:	48 89 45 f8          	mov    %rax,-0x8(%rbp)
    1279:	48 83 45 f0 01       	addq   $0x1,-0x10(%rbp)
    127e:	eb b9                	jmp    1239 <_Z12min_of_arrayPxx+0x1f>
    1280:	48 8b 45 f8          	mov    -0x8(%rbp),%rax
    1284:	5d                   	pop    %rbp
    1285:	c3                   	retq   

0000000000001286 <_Z7isPrimex>:
    1286:	55                   	push   %rbp
    1287:	48 89 e5             	mov    %rsp,%rbp
    128a:	48 89 7d e8          	mov    %rdi,-0x18(%rbp)
    128e:	48 83 7d e8 01       	cmpq   $0x1,-0x18(%rbp)
    1293:	75 07                	jne    129c <_Z7isPrimex+0x16>
    1295:	b8 00 00 00 00       	mov    $0x0,%eax
    129a:	eb 49                	jmp    12e5 <_Z7isPrimex+0x5f>
    129c:	48 83 7d e8 02       	cmpq   $0x2,-0x18(%rbp)
    12a1:	75 07                	jne    12aa <_Z7isPrimex+0x24>
    12a3:	b8 01 00 00 00       	mov    $0x1,%eax
    12a8:	eb 3b                	jmp    12e5 <_Z7isPrimex+0x5f>
    12aa:	48 c7 45 f8 02 00 00 	movq   $0x2,-0x8(%rbp)
    12b1:	00 
    12b2:	48 8b 45 f8          	mov    -0x8(%rbp),%rax
    12b6:	48 0f af c0          	imul   %rax,%rax
    12ba:	48 39 45 e8          	cmp    %rax,-0x18(%rbp)
    12be:	7c 20                	jl     12e0 <_Z7isPrimex+0x5a>
    12c0:	48 8b 45 e8          	mov    -0x18(%rbp),%rax
    12c4:	48 99                	cqto   
    12c6:	48 f7 7d f8          	idivq  -0x8(%rbp)
    12ca:	48 89 d0             	mov    %rdx,%rax
    12cd:	48 85 c0             	test   %rax,%rax
    12d0:	75 07                	jne    12d9 <_Z7isPrimex+0x53>
    12d2:	b8 00 00 00 00       	mov    $0x0,%eax
    12d7:	eb 0c                	jmp    12e5 <_Z7isPrimex+0x5f>
    12d9:	48 83 45 f8 01       	addq   $0x1,-0x8(%rbp)
    12de:	eb d2                	jmp    12b2 <_Z7isPrimex+0x2c>
    12e0:	b8 01 00 00 00       	mov    $0x1,%eax
    12e5:	5d                   	pop    %rbp
    12e6:	c3                   	retq   

00000000000012e7 <_Z3gcdxx>:
    12e7:	55                   	push   %rbp
    12e8:	48 89 e5             	mov    %rsp,%rbp
    12eb:	48 83 ec 10          	sub    $0x10,%rsp
    12ef:	48 89 7d f8          	mov    %rdi,-0x8(%rbp)
    12f3:	48 89 75 f0          	mov    %rsi,-0x10(%rbp)
    12f7:	48 83 7d f0 00       	cmpq   $0x0,-0x10(%rbp)
    12fc:	75 06                	jne    1304 <_Z3gcdxx+0x1d>
    12fe:	48 8b 45 f8          	mov    -0x8(%rbp),%rax
    1302:	eb 1a                	jmp    131e <_Z3gcdxx+0x37>
    1304:	48 8b 45 f8          	mov    -0x8(%rbp),%rax
    1308:	48 99                	cqto   
    130a:	48 f7 7d f0          	idivq  -0x10(%rbp)
    130e:	48 8b 45 f0          	mov    -0x10(%rbp),%rax
    1312:	48 89 d6             	mov    %rdx,%rsi
    1315:	48 89 c7             	mov    %rax,%rdi
    1318:	e8 ca ff ff ff       	callq  12e7 <_Z3gcdxx>
    131d:	90                   	nop
    131e:	c9                   	leaveq 
    131f:	c3                   	retq   

0000000000001320 <_Z3lcmxx>:
    1320:	55                   	push   %rbp
    1321:	48 89 e5             	mov    %rsp,%rbp
    1324:	53                   	push   %rbx
    1325:	48 83 ec 18          	sub    $0x18,%rsp
    1329:	48 89 7d e8          	mov    %rdi,-0x18(%rbp)
    132d:	48 89 75 e0          	mov    %rsi,-0x20(%rbp)
    1331:	48 8b 45 e8          	mov    -0x18(%rbp),%rax
    1335:	48 0f af 45 e0       	imul   -0x20(%rbp),%rax
    133a:	48 89 c3             	mov    %rax,%rbx
    133d:	48 8b 55 e0          	mov    -0x20(%rbp),%rdx
    1341:	48 8b 45 e8          	mov    -0x18(%rbp),%rax
    1345:	48 89 d6             	mov    %rdx,%rsi
    1348:	48 89 c7             	mov    %rax,%rdi
    134b:	e8 97 ff ff ff       	callq  12e7 <_Z3gcdxx>
    1350:	48 89 c1             	mov    %rax,%rcx
    1353:	48 89 d8             	mov    %rbx,%rax
    1356:	48 99                	cqto   
    1358:	48 f7 f9             	idiv   %rcx
    135b:	48 83 c4 18          	add    $0x18,%rsp
    135f:	5b                   	pop    %rbx
    1360:	5d                   	pop    %rbp
    1361:	c3                   	retq   

0000000000001362 <_Z12two_or_threei>:
    1362:	55                   	push   %rbp
    1363:	48 89 e5             	mov    %rsp,%rbp
    1366:	89 7d fc             	mov    %edi,-0x4(%rbp)
    1369:	8b 45 fc             	mov    -0x4(%rbp),%eax
    136c:	83 e0 01             	and    $0x1,%eax
    136f:	85 c0                	test   %eax,%eax
    1371:	75 1f                	jne    1392 <_Z12two_or_threei+0x30>
    1373:	8b 45 fc             	mov    -0x4(%rbp),%eax
    1376:	83 e0 01             	and    $0x1,%eax
    1379:	85 c0                	test   %eax,%eax
    137b:	0f 85 8a 00 00 00    	jne    140b <_Z12two_or_threei+0xa9>
    1381:	8b 45 fc             	mov    -0x4(%rbp),%eax
    1384:	89 c2                	mov    %eax,%edx
    1386:	c1 ea 1f             	shr    $0x1f,%edx
    1389:	01 d0                	add    %edx,%eax
    138b:	d1 f8                	sar    %eax
    138d:	89 45 fc             	mov    %eax,-0x4(%rbp)
    1390:	eb e1                	jmp    1373 <_Z12two_or_threei+0x11>
    1392:	8b 4d fc             	mov    -0x4(%rbp),%ecx
    1395:	48 63 c1             	movslq %ecx,%rax
    1398:	48 69 c0 56 55 55 55 	imul   $0x55555556,%rax,%rax
    139f:	48 c1 e8 20          	shr    $0x20,%rax
    13a3:	48 89 c2             	mov    %rax,%rdx
    13a6:	89 c8                	mov    %ecx,%eax
    13a8:	c1 f8 1f             	sar    $0x1f,%eax
    13ab:	89 d6                	mov    %edx,%esi
    13ad:	29 c6                	sub    %eax,%esi
    13af:	89 f0                	mov    %esi,%eax
    13b1:	89 c2                	mov    %eax,%edx
    13b3:	01 d2                	add    %edx,%edx
    13b5:	01 c2                	add    %eax,%edx
    13b7:	89 c8                	mov    %ecx,%eax
    13b9:	29 d0                	sub    %edx,%eax
    13bb:	85 c0                	test   %eax,%eax
    13bd:	75 4c                	jne    140b <_Z12two_or_threei+0xa9>
    13bf:	8b 4d fc             	mov    -0x4(%rbp),%ecx
    13c2:	48 63 c1             	movslq %ecx,%rax
    13c5:	48 69 c0 56 55 55 55 	imul   $0x55555556,%rax,%rax
    13cc:	48 c1 e8 20          	shr    $0x20,%rax
    13d0:	48 89 c2             	mov    %rax,%rdx
    13d3:	89 c8                	mov    %ecx,%eax
    13d5:	c1 f8 1f             	sar    $0x1f,%eax
    13d8:	89 d7                	mov    %edx,%edi
    13da:	29 c7                	sub    %eax,%edi
    13dc:	89 f8                	mov    %edi,%eax
    13de:	89 c2                	mov    %eax,%edx
    13e0:	01 d2                	add    %edx,%edx
    13e2:	01 c2                	add    %eax,%edx
    13e4:	89 c8                	mov    %ecx,%eax
    13e6:	29 d0                	sub    %edx,%eax
    13e8:	85 c0                	test   %eax,%eax
    13ea:	75 1f                	jne    140b <_Z12two_or_threei+0xa9>
    13ec:	8b 45 fc             	mov    -0x4(%rbp),%eax
    13ef:	48 63 d0             	movslq %eax,%rdx
    13f2:	48 69 d2 56 55 55 55 	imul   $0x55555556,%rdx,%rdx
    13f9:	48 c1 ea 20          	shr    $0x20,%rdx
    13fd:	c1 f8 1f             	sar    $0x1f,%eax
    1400:	89 d6                	mov    %edx,%esi
    1402:	29 c6                	sub    %eax,%esi
    1404:	89 f0                	mov    %esi,%eax
    1406:	89 45 fc             	mov    %eax,-0x4(%rbp)
    1409:	eb b4                	jmp    13bf <_Z12two_or_threei+0x5d>
    140b:	83 7d fc 01          	cmpl   $0x1,-0x4(%rbp)
    140f:	75 07                	jne    1418 <_Z12two_or_threei+0xb6>
    1411:	b8 01 00 00 00       	mov    $0x1,%eax
    1416:	eb 05                	jmp    141d <_Z12two_or_threei+0xbb>
    1418:	b8 00 00 00 00       	mov    $0x0,%eax
    141d:	5d                   	pop    %rbp
    141e:	c3                   	retq   

000000000000141f <_Z7isEqualPiix>:
    141f:	55                   	push   %rbp
    1420:	48 89 e5             	mov    %rsp,%rbp
    1423:	48 83 ec 28          	sub    $0x28,%rsp
    1427:	48 89 7d e8          	mov    %rdi,-0x18(%rbp)
    142b:	89 75 e4             	mov    %esi,-0x1c(%rbp)
    142e:	48 89 55 d8          	mov    %rdx,-0x28(%rbp)
    1432:	c7 45 fc 00 00 00 00 	movl   $0x0,-0x4(%rbp)
    1439:	8b 45 fc             	mov    -0x4(%rbp),%eax
    143c:	3b 45 e4             	cmp    -0x1c(%rbp),%eax
    143f:	7d 69                	jge    14aa <_Z7isEqualPiix+0x8b>
    1441:	8b 45 fc             	mov    -0x4(%rbp),%eax
    1444:	48 98                	cltq   
    1446:	48 8d 14 85 00 00 00 	lea    0x0(,%rax,4),%rdx
    144d:	00 
    144e:	48 8b 45 e8          	mov    -0x18(%rbp),%rax
    1452:	48 01 d0             	add    %rdx,%rax
    1455:	8b 00                	mov    (%rax),%eax
    1457:	85 c0                	test   %eax,%eax
    1459:	75 0a                	jne    1465 <_Z7isEqualPiix+0x46>
    145b:	48 8b 45 d8          	mov    -0x28(%rbp),%rax
    145f:	48 89 45 f0          	mov    %rax,-0x10(%rbp)
    1463:	eb 26                	jmp    148b <_Z7isEqualPiix+0x6c>
    1465:	8b 45 fc             	mov    -0x4(%rbp),%eax
    1468:	48 98                	cltq   
    146a:	48 8d 14 85 00 00 00 	lea    0x0(,%rax,4),%rdx
    1471:	00 
    1472:	48 8b 45 e8          	mov    -0x18(%rbp),%rax
    1476:	48 01 d0             	add    %rdx,%rax
    1479:	8b 00                	mov    (%rax),%eax
    147b:	48 63 c8             	movslq %eax,%rcx
    147e:	48 8b 45 d8          	mov    -0x28(%rbp),%rax
    1482:	48 99                	cqto   
    1484:	48 f7 f9             	idiv   %rcx
    1487:	48 89 45 f0          	mov    %rax,-0x10(%rbp)
    148b:	48 8b 45 f0          	mov    -0x10(%rbp),%rax
    148f:	89 c7                	mov    %eax,%edi
    1491:	e8 cc fe ff ff       	callq  1362 <_Z12two_or_threei>
    1496:	83 f0 01             	xor    $0x1,%eax
    1499:	84 c0                	test   %al,%al
    149b:	74 07                	je     14a4 <_Z7isEqualPiix+0x85>
    149d:	b8 00 00 00 00       	mov    $0x0,%eax
    14a2:	eb 0b                	jmp    14af <_Z7isEqualPiix+0x90>
    14a4:	83 45 fc 01          	addl   $0x1,-0x4(%rbp)
    14a8:	eb 8f                	jmp    1439 <_Z7isEqualPiix+0x1a>
    14aa:	b8 01 00 00 00       	mov    $0x1,%eax
    14af:	c9                   	leaveq 
    14b0:	c3                   	retq   

00000000000014b1 <main>:
    14b1:	55                   	push   %rbp
    14b2:	48 89 e5             	mov    %rsp,%rbp
    14b5:	48 83 ec 10          	sub    $0x10,%rsp
    14b9:	bf 00 00 00 00       	mov    $0x0,%edi
    14be:	e8 6d fb ff ff       	callq  1030 <_ZNSt8ios_base15sync_with_stdioEb@plt>
    14c3:	be 00 00 00 00       	mov    $0x0,%esi
    14c8:	48 8d 3d e1 2c 00 00 	lea    0x2ce1(%rip),%rdi        # 41b0 <_ZSt3cin@@GLIBCXX_3.4+0x10>
    14cf:	e8 7c fb ff ff       	callq  1050 <_ZNSt9basic_iosIcSt11char_traitsIcEE3tieEPSo@plt>
    14d4:	c7 45 fc 01 00 00 00 	movl   $0x1,-0x4(%rbp)
    14db:	48 8d 45 f8          	lea    -0x8(%rbp),%rax
    14df:	48 89 c6             	mov    %rax,%rsi
    14e2:	48 8d 3d b7 2c 00 00 	lea    0x2cb7(%rip),%rdi        # 41a0 <_ZSt3cin@@GLIBCXX_3.4>
    14e9:	e8 52 fb ff ff       	callq  1040 <_ZNSirsERi@plt>
    14ee:	c7 45 f8 00 00 00 00 	movl   $0x0,-0x8(%rbp)
    14f5:	48 8d 45 f4          	lea    -0xc(%rbp),%rax
    14f9:	48 89 c6             	mov    %rax,%rsi
    14fc:	48 8d 3d 9d 2c 00 00 	lea    0x2c9d(%rip),%rdi        # 41a0 <_ZSt3cin@@GLIBCXX_3.4>
    1503:	e8 38 fb ff ff       	callq  1040 <_ZNSirsERi@plt>
    1508:	48 8b 10             	mov    (%rax),%rdx
    150b:	48 83 ea 18          	sub    $0x18,%rdx
    150f:	48 8b 12             	mov    (%rdx),%rdx
    1512:	48 01 d0             	add    %rdx,%rax
    1515:	48 89 c7             	mov    %rax,%rdi
    1518:	e8 63 fb ff ff       	callq  1080 <_ZNKSt9basic_iosIcSt11char_traitsIcEEcvbEv@plt>
    151d:	84 c0                	test   %al,%al
    151f:	0f 84 8a 00 00 00    	je     15af <main+0xfe>
    1525:	8b 45 f4             	mov    -0xc(%rbp),%eax
    1528:	83 e0 01             	and    $0x1,%eax
    152b:	85 c0                	test   %eax,%eax
    152d:	75 11                	jne    1540 <main+0x8f>
    152f:	8b 45 f4             	mov    -0xc(%rbp),%eax
    1532:	89 c2                	mov    %eax,%edx
    1534:	c1 ea 1f             	shr    $0x1f,%edx
    1537:	01 d0                	add    %edx,%eax
    1539:	d1 f8                	sar    %eax
    153b:	89 45 f4             	mov    %eax,-0xc(%rbp)
    153e:	eb e5                	jmp    1525 <main+0x74>
    1540:	8b 4d f4             	mov    -0xc(%rbp),%ecx
    1543:	48 63 c1             	movslq %ecx,%rax
    1546:	48 69 c0 56 55 55 55 	imul   $0x55555556,%rax,%rax
    154d:	48 c1 e8 20          	shr    $0x20,%rax
    1551:	48 89 c2             	mov    %rax,%rdx
    1554:	89 c8                	mov    %ecx,%eax
    1556:	c1 f8 1f             	sar    $0x1f,%eax
    1559:	89 d6                	mov    %edx,%esi
    155b:	29 c6                	sub    %eax,%esi
    155d:	89 f0                	mov    %esi,%eax
    155f:	89 c2                	mov    %eax,%edx
    1561:	01 d2                	add    %edx,%edx
    1563:	01 c2                	add    %eax,%edx
    1565:	89 c8                	mov    %ecx,%eax
    1567:	29 d0                	sub    %edx,%eax
    1569:	85 c0                	test   %eax,%eax
    156b:	75 1f                	jne    158c <main+0xdb>
    156d:	8b 45 f4             	mov    -0xc(%rbp),%eax
    1570:	48 63 d0             	movslq %eax,%rdx
    1573:	48 69 d2 56 55 55 55 	imul   $0x55555556,%rdx,%rdx
    157a:	48 c1 ea 20          	shr    $0x20,%rdx
    157e:	c1 f8 1f             	sar    $0x1f,%eax
    1581:	89 d1                	mov    %edx,%ecx
    1583:	29 c1                	sub    %eax,%ecx
    1585:	89 c8                	mov    %ecx,%eax
    1587:	89 45 f4             	mov    %eax,-0xc(%rbp)
    158a:	eb b4                	jmp    1540 <main+0x8f>
    158c:	8b 45 f8             	mov    -0x8(%rbp),%eax
    158f:	85 c0                	test   %eax,%eax
    1591:	74 11                	je     15a4 <main+0xf3>
    1593:	8b 55 f4             	mov    -0xc(%rbp),%edx
    1596:	8b 45 f8             	mov    -0x8(%rbp),%eax
    1599:	39 c2                	cmp    %eax,%edx
    159b:	74 07                	je     15a4 <main+0xf3>
    159d:	c7 45 fc 00 00 00 00 	movl   $0x0,-0x4(%rbp)
    15a4:	8b 45 f4             	mov    -0xc(%rbp),%eax
    15a7:	89 45 f8             	mov    %eax,-0x8(%rbp)
    15aa:	e9 46 ff ff ff       	jmpq   14f5 <main+0x44>
    15af:	83 7d fc 00          	cmpl   $0x0,-0x4(%rbp)
    15b3:	7e 09                	jle    15be <main+0x10d>
    15b5:	48 8d 05 4b 0a 00 00 	lea    0xa4b(%rip),%rax        # 2007 <_ZStL6ignore+0x1>
    15bc:	eb 07                	jmp    15c5 <main+0x114>
    15be:	48 8d 05 46 0a 00 00 	lea    0xa46(%rip),%rax        # 200b <_ZStL6ignore+0x5>
    15c5:	48 89 c6             	mov    %rax,%rsi
    15c8:	48 8d 3d b1 2a 00 00 	lea    0x2ab1(%rip),%rdi        # 4080 <_ZSt4cout@@GLIBCXX_3.4>
    15cf:	e8 9c fa ff ff       	callq  1070 <_ZStlsISt11char_traitsIcEERSt13basic_ostreamIcT_ES5_PKc@plt>
    15d4:	b8 00 00 00 00       	mov    $0x0,%eax
    15d9:	c9                   	leaveq 
    15da:	c3                   	retq   

00000000000015db <_Z41__static_initialization_and_destruction_0ii>:
    15db:	55                   	push   %rbp
    15dc:	48 89 e5             	mov    %rsp,%rbp
    15df:	48 83 ec 10          	sub    $0x10,%rsp
    15e3:	89 7d fc             	mov    %edi,-0x4(%rbp)
    15e6:	89 75 f8             	mov    %esi,-0x8(%rbp)
    15e9:	83 7d fc 01          	cmpl   $0x1,-0x4(%rbp)
    15ed:	75 32                	jne    1621 <_Z41__static_initialization_and_destruction_0ii+0x46>
    15ef:	81 7d f8 ff ff 00 00 	cmpl   $0xffff,-0x8(%rbp)
    15f6:	75 29                	jne    1621 <_Z41__static_initialization_and_destruction_0ii+0x46>
    15f8:	48 8d 3d ba 2c 00 00 	lea    0x2cba(%rip),%rdi        # 42b9 <_ZStL8__ioinit>
    15ff:	e8 8c fa ff ff       	callq  1090 <_ZNSt8ios_base4InitC1Ev@plt>
    1604:	48 8d 15 4d 2a 00 00 	lea    0x2a4d(%rip),%rdx        # 4058 <__dso_handle>
    160b:	48 8d 35 a7 2c 00 00 	lea    0x2ca7(%rip),%rsi        # 42b9 <_ZStL8__ioinit>
    1612:	48 8b 05 df 29 00 00 	mov    0x29df(%rip),%rax        # 3ff8 <_ZNSt8ios_base4InitD1Ev@GLIBCXX_3.4>
    1619:	48 89 c7             	mov    %rax,%rdi
    161c:	e8 3f fa ff ff       	callq  1060 <__cxa_atexit@plt>
    1621:	90                   	nop
    1622:	c9                   	leaveq 
    1623:	c3                   	retq   

0000000000001624 <_GLOBAL__sub_I__Z7decSortxx>:
    1624:	55                   	push   %rbp
    1625:	48 89 e5             	mov    %rsp,%rbp
    1628:	be ff ff 00 00       	mov    $0xffff,%esi
    162d:	bf 01 00 00 00       	mov    $0x1,%edi
    1632:	e8 a4 ff ff ff       	callq  15db <_Z41__static_initialization_and_destruction_0ii>
    1637:	5d                   	pop    %rbp
    1638:	c3                   	retq   
    1639:	0f 1f 80 00 00 00 00 	nopl   0x0(%rax)

0000000000001640 <__libc_csu_init>:
    1640:	41 57                	push   %r15
    1642:	4c 8d 3d 7f 27 00 00 	lea    0x277f(%rip),%r15        # 3dc8 <__frame_dummy_init_array_entry>
    1649:	41 56                	push   %r14
    164b:	49 89 d6             	mov    %rdx,%r14
    164e:	41 55                	push   %r13
    1650:	49 89 f5             	mov    %rsi,%r13
    1653:	41 54                	push   %r12
    1655:	41 89 fc             	mov    %edi,%r12d
    1658:	55                   	push   %rbp
    1659:	48 8d 2d 78 27 00 00 	lea    0x2778(%rip),%rbp        # 3dd8 <__do_global_dtors_aux_fini_array_entry>
    1660:	53                   	push   %rbx
    1661:	4c 29 fd             	sub    %r15,%rbp
    1664:	48 83 ec 08          	sub    $0x8,%rsp
    1668:	e8 93 f9 ff ff       	callq  1000 <_init>
    166d:	48 c1 fd 03          	sar    $0x3,%rbp
    1671:	74 1b                	je     168e <__libc_csu_init+0x4e>
    1673:	31 db                	xor    %ebx,%ebx
    1675:	0f 1f 00             	nopl   (%rax)
    1678:	4c 89 f2             	mov    %r14,%rdx
    167b:	4c 89 ee             	mov    %r13,%rsi
    167e:	44 89 e7             	mov    %r12d,%edi
    1681:	41 ff 14 df          	callq  *(%r15,%rbx,8)
    1685:	48 83 c3 01          	add    $0x1,%rbx
    1689:	48 39 dd             	cmp    %rbx,%rbp
    168c:	75 ea                	jne    1678 <__libc_csu_init+0x38>
    168e:	48 83 c4 08          	add    $0x8,%rsp
    1692:	5b                   	pop    %rbx
    1693:	5d                   	pop    %rbp
    1694:	41 5c                	pop    %r12
    1696:	41 5d                	pop    %r13
    1698:	41 5e                	pop    %r14
    169a:	41 5f                	pop    %r15
    169c:	c3                   	retq   
    169d:	0f 1f 00             	nopl   (%rax)

00000000000016a0 <__libc_csu_fini>:
    16a0:	c3                   	retq   

Disassembly of section .fini:

00000000000016a4 <_fini>:
    16a4:	48 83 ec 08          	sub    $0x8,%rsp
    16a8:	48 83 c4 08          	add    $0x8,%rsp
    16ac:	c3                   	retq   
