
C - B1.out:     file format elf64-x86-64


Disassembly of section .init:

0000000000001000 <_init>:
    1000:	48 83 ec 08          	sub    $0x8,%rsp
    1004:	48 8b 05 dd 3f 00 00 	mov    0x3fdd(%rip),%rax        # 4fe8 <__gmon_start__>
    100b:	48 85 c0             	test   %rax,%rax
    100e:	74 02                	je     1012 <_init+0x12>
    1010:	ff d0                	callq  *%rax
    1012:	48 83 c4 08          	add    $0x8,%rsp
    1016:	c3                   	retq   

Disassembly of section .plt:

0000000000001020 <.plt>:
    1020:	ff 35 e2 3f 00 00    	pushq  0x3fe2(%rip)        # 5008 <_GLOBAL_OFFSET_TABLE_+0x8>
    1026:	ff 25 e4 3f 00 00    	jmpq   *0x3fe4(%rip)        # 5010 <_GLOBAL_OFFSET_TABLE_+0x10>
    102c:	0f 1f 40 00          	nopl   0x0(%rax)

0000000000001030 <_ZNSaIcED2Ev@plt>:
    1030:	ff 25 e2 3f 00 00    	jmpq   *0x3fe2(%rip)        # 5018 <_ZNSaIcED2Ev@GLIBCXX_3.4>
    1036:	68 00 00 00 00       	pushq  $0x0
    103b:	e9 e0 ff ff ff       	jmpq   1020 <.plt>

0000000000001040 <_ZSt17__throw_bad_allocv@plt>:
    1040:	ff 25 da 3f 00 00    	jmpq   *0x3fda(%rip)        # 5020 <_ZSt17__throw_bad_allocv@GLIBCXX_3.4>
    1046:	68 01 00 00 00       	pushq  $0x1
    104b:	e9 d0 ff ff ff       	jmpq   1020 <.plt>

0000000000001050 <__cxa_begin_catch@plt>:
    1050:	ff 25 d2 3f 00 00    	jmpq   *0x3fd2(%rip)        # 5028 <__cxa_begin_catch@CXXABI_1.3>
    1056:	68 02 00 00 00       	pushq  $0x2
    105b:	e9 c0 ff ff ff       	jmpq   1020 <.plt>

0000000000001060 <_ZNSt8ios_base15sync_with_stdioEb@plt>:
    1060:	ff 25 ca 3f 00 00    	jmpq   *0x3fca(%rip)        # 5030 <_ZNSt8ios_base15sync_with_stdioEb@GLIBCXX_3.4>
    1066:	68 03 00 00 00       	pushq  $0x3
    106b:	e9 b0 ff ff ff       	jmpq   1020 <.plt>

0000000000001070 <_ZSt20__throw_length_errorPKc@plt>:
    1070:	ff 25 c2 3f 00 00    	jmpq   *0x3fc2(%rip)        # 5038 <_ZSt20__throw_length_errorPKc@GLIBCXX_3.4>
    1076:	68 04 00 00 00       	pushq  $0x4
    107b:	e9 a0 ff ff ff       	jmpq   1020 <.plt>

0000000000001080 <_ZNSirsERi@plt>:
    1080:	ff 25 ba 3f 00 00    	jmpq   *0x3fba(%rip)        # 5040 <_ZNSirsERi@GLIBCXX_3.4>
    1086:	68 05 00 00 00       	pushq  $0x5
    108b:	e9 90 ff ff ff       	jmpq   1020 <.plt>

0000000000001090 <_ZNSt7__cxx1112basic_stringIcSt11char_traitsIcESaIcEED1Ev@plt>:
    1090:	ff 25 b2 3f 00 00    	jmpq   *0x3fb2(%rip)        # 5048 <_ZNSt7__cxx1112basic_stringIcSt11char_traitsIcESaIcEED1Ev@GLIBCXX_3.4.21>
    1096:	68 06 00 00 00       	pushq  $0x6
    109b:	e9 80 ff ff ff       	jmpq   1020 <.plt>

00000000000010a0 <_ZNKSt7__cxx1112basic_stringIcSt11char_traitsIcESaIcEE4sizeEv@plt>:
    10a0:	ff 25 aa 3f 00 00    	jmpq   *0x3faa(%rip)        # 5050 <_ZNKSt7__cxx1112basic_stringIcSt11char_traitsIcESaIcEE4sizeEv@GLIBCXX_3.4.21>
    10a6:	68 07 00 00 00       	pushq  $0x7
    10ab:	e9 70 ff ff ff       	jmpq   1020 <.plt>

00000000000010b0 <_ZNSt9basic_iosIcSt11char_traitsIcEE3tieEPSo@plt>:
    10b0:	ff 25 a2 3f 00 00    	jmpq   *0x3fa2(%rip)        # 5058 <_ZNSt9basic_iosIcSt11char_traitsIcEE3tieEPSo@GLIBCXX_3.4>
    10b6:	68 08 00 00 00       	pushq  $0x8
    10bb:	e9 60 ff ff ff       	jmpq   1020 <.plt>

00000000000010c0 <__cxa_atexit@plt>:
    10c0:	ff 25 9a 3f 00 00    	jmpq   *0x3f9a(%rip)        # 5060 <__cxa_atexit@GLIBC_2.2.5>
    10c6:	68 09 00 00 00       	pushq  $0x9
    10cb:	e9 50 ff ff ff       	jmpq   1020 <.plt>

00000000000010d0 <_ZdlPv@plt>:
    10d0:	ff 25 92 3f 00 00    	jmpq   *0x3f92(%rip)        # 5068 <_ZdlPv@GLIBCXX_3.4>
    10d6:	68 0a 00 00 00       	pushq  $0xa
    10db:	e9 40 ff ff ff       	jmpq   1020 <.plt>

00000000000010e0 <_ZStlsISt11char_traitsIcEERSt13basic_ostreamIcT_ES5_PKc@plt>:
    10e0:	ff 25 8a 3f 00 00    	jmpq   *0x3f8a(%rip)        # 5070 <_ZStlsISt11char_traitsIcEERSt13basic_ostreamIcT_ES5_PKc@GLIBCXX_3.4>
    10e6:	68 0b 00 00 00       	pushq  $0xb
    10eb:	e9 30 ff ff ff       	jmpq   1020 <.plt>

00000000000010f0 <_Znwm@plt>:
    10f0:	ff 25 82 3f 00 00    	jmpq   *0x3f82(%rip)        # 5078 <_Znwm@GLIBCXX_3.4>
    10f6:	68 0c 00 00 00       	pushq  $0xc
    10fb:	e9 20 ff ff ff       	jmpq   1020 <.plt>

0000000000001100 <_ZNSaIcED1Ev@plt>:
    1100:	ff 25 7a 3f 00 00    	jmpq   *0x3f7a(%rip)        # 5080 <_ZNSaIcED1Ev@GLIBCXX_3.4>
    1106:	68 0d 00 00 00       	pushq  $0xd
    110b:	e9 10 ff ff ff       	jmpq   1020 <.plt>

0000000000001110 <_ZStlsISt11char_traitsIcEERSt13basic_ostreamIcT_ES5_c@plt>:
    1110:	ff 25 72 3f 00 00    	jmpq   *0x3f72(%rip)        # 5088 <_ZStlsISt11char_traitsIcEERSt13basic_ostreamIcT_ES5_c@GLIBCXX_3.4>
    1116:	68 0e 00 00 00       	pushq  $0xe
    111b:	e9 00 ff ff ff       	jmpq   1020 <.plt>

0000000000001120 <_ZNKSt9basic_iosIcSt11char_traitsIcEEcvbEv@plt>:
    1120:	ff 25 6a 3f 00 00    	jmpq   *0x3f6a(%rip)        # 5090 <_ZNKSt9basic_iosIcSt11char_traitsIcEEcvbEv@GLIBCXX_3.4.21>
    1126:	68 0f 00 00 00       	pushq  $0xf
    112b:	e9 f0 fe ff ff       	jmpq   1020 <.plt>

0000000000001130 <_ZNSt7__cxx1112basic_stringIcSt11char_traitsIcESaIcEEC1EPKcRKS3_@plt>:
    1130:	ff 25 62 3f 00 00    	jmpq   *0x3f62(%rip)        # 5098 <_ZNSt7__cxx1112basic_stringIcSt11char_traitsIcESaIcEEC1EPKcRKS3_@GLIBCXX_3.4.21>
    1136:	68 10 00 00 00       	pushq  $0x10
    113b:	e9 e0 fe ff ff       	jmpq   1020 <.plt>

0000000000001140 <__cxa_rethrow@plt>:
    1140:	ff 25 5a 3f 00 00    	jmpq   *0x3f5a(%rip)        # 50a0 <__cxa_rethrow@CXXABI_1.3>
    1146:	68 11 00 00 00       	pushq  $0x11
    114b:	e9 d0 fe ff ff       	jmpq   1020 <.plt>

0000000000001150 <_ZNSt8ios_base4InitC1Ev@plt>:
    1150:	ff 25 52 3f 00 00    	jmpq   *0x3f52(%rip)        # 50a8 <_ZNSt8ios_base4InitC1Ev@GLIBCXX_3.4>
    1156:	68 12 00 00 00       	pushq  $0x12
    115b:	e9 c0 fe ff ff       	jmpq   1020 <.plt>

0000000000001160 <memmove@plt>:
    1160:	ff 25 4a 3f 00 00    	jmpq   *0x3f4a(%rip)        # 50b0 <memmove@GLIBC_2.2.5>
    1166:	68 13 00 00 00       	pushq  $0x13
    116b:	e9 b0 fe ff ff       	jmpq   1020 <.plt>

0000000000001170 <__cxa_end_catch@plt>:
    1170:	ff 25 42 3f 00 00    	jmpq   *0x3f42(%rip)        # 50b8 <__cxa_end_catch@CXXABI_1.3>
    1176:	68 14 00 00 00       	pushq  $0x14
    117b:	e9 a0 fe ff ff       	jmpq   1020 <.plt>

0000000000001180 <_ZNSaIcEC2Ev@plt>:
    1180:	ff 25 3a 3f 00 00    	jmpq   *0x3f3a(%rip)        # 50c0 <_ZNSaIcEC2Ev@GLIBCXX_3.4>
    1186:	68 15 00 00 00       	pushq  $0x15
    118b:	e9 90 fe ff ff       	jmpq   1020 <.plt>

0000000000001190 <_Unwind_Resume@plt>:
    1190:	ff 25 32 3f 00 00    	jmpq   *0x3f32(%rip)        # 50c8 <_Unwind_Resume@GCC_3.0>
    1196:	68 16 00 00 00       	pushq  $0x16
    119b:	e9 80 fe ff ff       	jmpq   1020 <.plt>

00000000000011a0 <_ZNSaIcEC1Ev@plt>:
    11a0:	ff 25 2a 3f 00 00    	jmpq   *0x3f2a(%rip)        # 50d0 <_ZNSaIcEC1Ev@GLIBCXX_3.4>
    11a6:	68 17 00 00 00       	pushq  $0x17
    11ab:	e9 70 fe ff ff       	jmpq   1020 <.plt>

00000000000011b0 <_ZNSt7__cxx1112basic_stringIcSt11char_traitsIcESaIcEEixEm@plt>:
    11b0:	ff 25 22 3f 00 00    	jmpq   *0x3f22(%rip)        # 50d8 <_ZNSt7__cxx1112basic_stringIcSt11char_traitsIcESaIcEEixEm@GLIBCXX_3.4.21>
    11b6:	68 18 00 00 00       	pushq  $0x18
    11bb:	e9 60 fe ff ff       	jmpq   1020 <.plt>

Disassembly of section .plt.got:

00000000000011c0 <__cxa_finalize@plt>:
    11c0:	ff 25 0a 3e 00 00    	jmpq   *0x3e0a(%rip)        # 4fd0 <__cxa_finalize@GLIBC_2.2.5>
    11c6:	66 90                	xchg   %ax,%ax

Disassembly of section .text:

00000000000011d0 <_start>:
    11d0:	31 ed                	xor    %ebp,%ebp
    11d2:	49 89 d1             	mov    %rdx,%r9
    11d5:	5e                   	pop    %rsi
    11d6:	48 89 e2             	mov    %rsp,%rdx
    11d9:	48 83 e4 f0          	and    $0xfffffffffffffff0,%rsp
    11dd:	50                   	push   %rax
    11de:	54                   	push   %rsp
    11df:	4c 8d 05 ea 12 00 00 	lea    0x12ea(%rip),%r8        # 24d0 <__libc_csu_fini>
    11e6:	48 8d 0d 83 12 00 00 	lea    0x1283(%rip),%rcx        # 2470 <__libc_csu_init>
    11ed:	48 8d 3d 8e 02 00 00 	lea    0x28e(%rip),%rdi        # 1482 <main>
    11f4:	ff 15 e6 3d 00 00    	callq  *0x3de6(%rip)        # 4fe0 <__libc_start_main@GLIBC_2.2.5>
    11fa:	f4                   	hlt    
    11fb:	0f 1f 44 00 00       	nopl   0x0(%rax,%rax,1)

0000000000001200 <deregister_tm_clones>:
    1200:	48 8d 3d f1 3e 00 00 	lea    0x3ef1(%rip),%rdi        # 50f8 <__TMC_END__>
    1207:	48 8d 05 ea 3e 00 00 	lea    0x3eea(%rip),%rax        # 50f8 <__TMC_END__>
    120e:	48 39 f8             	cmp    %rdi,%rax
    1211:	74 15                	je     1228 <deregister_tm_clones+0x28>
    1213:	48 8b 05 be 3d 00 00 	mov    0x3dbe(%rip),%rax        # 4fd8 <_ITM_deregisterTMCloneTable>
    121a:	48 85 c0             	test   %rax,%rax
    121d:	74 09                	je     1228 <deregister_tm_clones+0x28>
    121f:	ff e0                	jmpq   *%rax
    1221:	0f 1f 80 00 00 00 00 	nopl   0x0(%rax)
    1228:	c3                   	retq   
    1229:	0f 1f 80 00 00 00 00 	nopl   0x0(%rax)

0000000000001230 <register_tm_clones>:
    1230:	48 8d 3d c1 3e 00 00 	lea    0x3ec1(%rip),%rdi        # 50f8 <__TMC_END__>
    1237:	48 8d 35 ba 3e 00 00 	lea    0x3eba(%rip),%rsi        # 50f8 <__TMC_END__>
    123e:	48 29 fe             	sub    %rdi,%rsi
    1241:	48 89 f0             	mov    %rsi,%rax
    1244:	48 c1 ee 3f          	shr    $0x3f,%rsi
    1248:	48 c1 f8 03          	sar    $0x3,%rax
    124c:	48 01 c6             	add    %rax,%rsi
    124f:	48 d1 fe             	sar    %rsi
    1252:	74 14                	je     1268 <register_tm_clones+0x38>
    1254:	48 8b 05 95 3d 00 00 	mov    0x3d95(%rip),%rax        # 4ff0 <_ITM_registerTMCloneTable>
    125b:	48 85 c0             	test   %rax,%rax
    125e:	74 08                	je     1268 <register_tm_clones+0x38>
    1260:	ff e0                	jmpq   *%rax
    1262:	66 0f 1f 44 00 00    	nopw   0x0(%rax,%rax,1)
    1268:	c3                   	retq   
    1269:	0f 1f 80 00 00 00 00 	nopl   0x0(%rax)

0000000000001270 <__do_global_dtors_aux>:
    1270:	80 3d c1 40 00 00 00 	cmpb   $0x0,0x40c1(%rip)        # 5338 <completed.7447>
    1277:	75 2f                	jne    12a8 <__do_global_dtors_aux+0x38>
    1279:	55                   	push   %rbp
    127a:	48 83 3d 4e 3d 00 00 	cmpq   $0x0,0x3d4e(%rip)        # 4fd0 <__cxa_finalize@GLIBC_2.2.5>
    1281:	00 
    1282:	48 89 e5             	mov    %rsp,%rbp
    1285:	74 0c                	je     1293 <__do_global_dtors_aux+0x23>
    1287:	48 8b 3d 5a 3e 00 00 	mov    0x3e5a(%rip),%rdi        # 50e8 <__dso_handle>
    128e:	e8 2d ff ff ff       	callq  11c0 <__cxa_finalize@plt>
    1293:	e8 68 ff ff ff       	callq  1200 <deregister_tm_clones>
    1298:	c6 05 99 40 00 00 01 	movb   $0x1,0x4099(%rip)        # 5338 <completed.7447>
    129f:	5d                   	pop    %rbp
    12a0:	c3                   	retq   
    12a1:	0f 1f 80 00 00 00 00 	nopl   0x0(%rax)
    12a8:	c3                   	retq   
    12a9:	0f 1f 80 00 00 00 00 	nopl   0x0(%rax)

00000000000012b0 <frame_dummy>:
    12b0:	e9 7b ff ff ff       	jmpq   1230 <register_tm_clones>

00000000000012b5 <_Z7decSortxx>:
    12b5:	55                   	push   %rbp
    12b6:	48 89 e5             	mov    %rsp,%rbp
    12b9:	48 89 7d f8          	mov    %rdi,-0x8(%rbp)
    12bd:	48 89 75 f0          	mov    %rsi,-0x10(%rbp)
    12c1:	48 8b 45 f8          	mov    -0x8(%rbp),%rax
    12c5:	48 3b 45 f0          	cmp    -0x10(%rbp),%rax
    12c9:	0f 9f c0             	setg   %al
    12cc:	5d                   	pop    %rbp
    12cd:	c3                   	retq   

00000000000012ce <_Z12max_of_arrayPxx>:
    12ce:	55                   	push   %rbp
    12cf:	48 89 e5             	mov    %rsp,%rbp
    12d2:	48 89 7d e8          	mov    %rdi,-0x18(%rbp)
    12d6:	48 89 75 e0          	mov    %rsi,-0x20(%rbp)
    12da:	48 8b 45 e8          	mov    -0x18(%rbp),%rax
    12de:	48 8b 00             	mov    (%rax),%rax
    12e1:	48 89 45 f8          	mov    %rax,-0x8(%rbp)
    12e5:	48 c7 45 f0 00 00 00 	movq   $0x0,-0x10(%rbp)
    12ec:	00 
    12ed:	48 8b 45 f0          	mov    -0x10(%rbp),%rax
    12f1:	48 3b 45 e0          	cmp    -0x20(%rbp),%rax
    12f5:	7d 3d                	jge    1334 <_Z12max_of_arrayPxx+0x66>
    12f7:	48 8b 45 f0          	mov    -0x10(%rbp),%rax
    12fb:	48 8d 14 c5 00 00 00 	lea    0x0(,%rax,8),%rdx
    1302:	00 
    1303:	48 8b 45 e8          	mov    -0x18(%rbp),%rax
    1307:	48 01 d0             	add    %rdx,%rax
    130a:	48 8b 00             	mov    (%rax),%rax
    130d:	48 39 45 f8          	cmp    %rax,-0x8(%rbp)
    1311:	7d 1a                	jge    132d <_Z12max_of_arrayPxx+0x5f>
    1313:	48 8b 45 f0          	mov    -0x10(%rbp),%rax
    1317:	48 8d 14 c5 00 00 00 	lea    0x0(,%rax,8),%rdx
    131e:	00 
    131f:	48 8b 45 e8          	mov    -0x18(%rbp),%rax
    1323:	48 01 d0             	add    %rdx,%rax
    1326:	48 8b 00             	mov    (%rax),%rax
    1329:	48 89 45 f8          	mov    %rax,-0x8(%rbp)
    132d:	48 83 45 f0 01       	addq   $0x1,-0x10(%rbp)
    1332:	eb b9                	jmp    12ed <_Z12max_of_arrayPxx+0x1f>
    1334:	48 8b 45 f8          	mov    -0x8(%rbp),%rax
    1338:	5d                   	pop    %rbp
    1339:	c3                   	retq   

000000000000133a <_Z12min_of_arrayPxx>:
    133a:	55                   	push   %rbp
    133b:	48 89 e5             	mov    %rsp,%rbp
    133e:	48 89 7d e8          	mov    %rdi,-0x18(%rbp)
    1342:	48 89 75 e0          	mov    %rsi,-0x20(%rbp)
    1346:	48 8b 45 e8          	mov    -0x18(%rbp),%rax
    134a:	48 8b 00             	mov    (%rax),%rax
    134d:	48 89 45 f8          	mov    %rax,-0x8(%rbp)
    1351:	48 c7 45 f0 00 00 00 	movq   $0x0,-0x10(%rbp)
    1358:	00 
    1359:	48 8b 45 f0          	mov    -0x10(%rbp),%rax
    135d:	48 3b 45 e0          	cmp    -0x20(%rbp),%rax
    1361:	7d 3d                	jge    13a0 <_Z12min_of_arrayPxx+0x66>
    1363:	48 8b 45 f0          	mov    -0x10(%rbp),%rax
    1367:	48 8d 14 c5 00 00 00 	lea    0x0(,%rax,8),%rdx
    136e:	00 
    136f:	48 8b 45 e8          	mov    -0x18(%rbp),%rax
    1373:	48 01 d0             	add    %rdx,%rax
    1376:	48 8b 00             	mov    (%rax),%rax
    1379:	48 39 45 f8          	cmp    %rax,-0x8(%rbp)
    137d:	7e 1a                	jle    1399 <_Z12min_of_arrayPxx+0x5f>
    137f:	48 8b 45 f0          	mov    -0x10(%rbp),%rax
    1383:	48 8d 14 c5 00 00 00 	lea    0x0(,%rax,8),%rdx
    138a:	00 
    138b:	48 8b 45 e8          	mov    -0x18(%rbp),%rax
    138f:	48 01 d0             	add    %rdx,%rax
    1392:	48 8b 00             	mov    (%rax),%rax
    1395:	48 89 45 f8          	mov    %rax,-0x8(%rbp)
    1399:	48 83 45 f0 01       	addq   $0x1,-0x10(%rbp)
    139e:	eb b9                	jmp    1359 <_Z12min_of_arrayPxx+0x1f>
    13a0:	48 8b 45 f8          	mov    -0x8(%rbp),%rax
    13a4:	5d                   	pop    %rbp
    13a5:	c3                   	retq   

00000000000013a6 <_Z7isPrimex>:
    13a6:	55                   	push   %rbp
    13a7:	48 89 e5             	mov    %rsp,%rbp
    13aa:	48 89 7d e8          	mov    %rdi,-0x18(%rbp)
    13ae:	48 83 7d e8 01       	cmpq   $0x1,-0x18(%rbp)
    13b3:	75 07                	jne    13bc <_Z7isPrimex+0x16>
    13b5:	b8 00 00 00 00       	mov    $0x0,%eax
    13ba:	eb 49                	jmp    1405 <_Z7isPrimex+0x5f>
    13bc:	48 83 7d e8 02       	cmpq   $0x2,-0x18(%rbp)
    13c1:	75 07                	jne    13ca <_Z7isPrimex+0x24>
    13c3:	b8 01 00 00 00       	mov    $0x1,%eax
    13c8:	eb 3b                	jmp    1405 <_Z7isPrimex+0x5f>
    13ca:	48 c7 45 f8 02 00 00 	movq   $0x2,-0x8(%rbp)
    13d1:	00 
    13d2:	48 8b 45 f8          	mov    -0x8(%rbp),%rax
    13d6:	48 0f af c0          	imul   %rax,%rax
    13da:	48 39 45 e8          	cmp    %rax,-0x18(%rbp)
    13de:	7c 20                	jl     1400 <_Z7isPrimex+0x5a>
    13e0:	48 8b 45 e8          	mov    -0x18(%rbp),%rax
    13e4:	48 99                	cqto   
    13e6:	48 f7 7d f8          	idivq  -0x8(%rbp)
    13ea:	48 89 d0             	mov    %rdx,%rax
    13ed:	48 85 c0             	test   %rax,%rax
    13f0:	75 07                	jne    13f9 <_Z7isPrimex+0x53>
    13f2:	b8 00 00 00 00       	mov    $0x0,%eax
    13f7:	eb 0c                	jmp    1405 <_Z7isPrimex+0x5f>
    13f9:	48 83 45 f8 01       	addq   $0x1,-0x8(%rbp)
    13fe:	eb d2                	jmp    13d2 <_Z7isPrimex+0x2c>
    1400:	b8 01 00 00 00       	mov    $0x1,%eax
    1405:	5d                   	pop    %rbp
    1406:	c3                   	retq   

0000000000001407 <_Z3gcdxx>:
    1407:	55                   	push   %rbp
    1408:	48 89 e5             	mov    %rsp,%rbp
    140b:	48 83 ec 10          	sub    $0x10,%rsp
    140f:	48 89 7d f8          	mov    %rdi,-0x8(%rbp)
    1413:	48 89 75 f0          	mov    %rsi,-0x10(%rbp)
    1417:	48 83 7d f0 00       	cmpq   $0x0,-0x10(%rbp)
    141c:	75 06                	jne    1424 <_Z3gcdxx+0x1d>
    141e:	48 8b 45 f8          	mov    -0x8(%rbp),%rax
    1422:	eb 1a                	jmp    143e <_Z3gcdxx+0x37>
    1424:	48 8b 45 f8          	mov    -0x8(%rbp),%rax
    1428:	48 99                	cqto   
    142a:	48 f7 7d f0          	idivq  -0x10(%rbp)
    142e:	48 8b 45 f0          	mov    -0x10(%rbp),%rax
    1432:	48 89 d6             	mov    %rdx,%rsi
    1435:	48 89 c7             	mov    %rax,%rdi
    1438:	e8 ca ff ff ff       	callq  1407 <_Z3gcdxx>
    143d:	90                   	nop
    143e:	c9                   	leaveq 
    143f:	c3                   	retq   

0000000000001440 <_Z3lcmxx>:
    1440:	55                   	push   %rbp
    1441:	48 89 e5             	mov    %rsp,%rbp
    1444:	53                   	push   %rbx
    1445:	48 83 ec 18          	sub    $0x18,%rsp
    1449:	48 89 7d e8          	mov    %rdi,-0x18(%rbp)
    144d:	48 89 75 e0          	mov    %rsi,-0x20(%rbp)
    1451:	48 8b 45 e8          	mov    -0x18(%rbp),%rax
    1455:	48 0f af 45 e0       	imul   -0x20(%rbp),%rax
    145a:	48 89 c3             	mov    %rax,%rbx
    145d:	48 8b 55 e0          	mov    -0x20(%rbp),%rdx
    1461:	48 8b 45 e8          	mov    -0x18(%rbp),%rax
    1465:	48 89 d6             	mov    %rdx,%rsi
    1468:	48 89 c7             	mov    %rax,%rdi
    146b:	e8 97 ff ff ff       	callq  1407 <_Z3gcdxx>
    1470:	48 89 c1             	mov    %rax,%rcx
    1473:	48 89 d8             	mov    %rbx,%rax
    1476:	48 99                	cqto   
    1478:	48 f7 f9             	idiv   %rcx
    147b:	48 83 c4 18          	add    $0x18,%rsp
    147f:	5b                   	pop    %rbx
    1480:	5d                   	pop    %rbp
    1481:	c3                   	retq   

0000000000001482 <main>:
    1482:	55                   	push   %rbp
    1483:	48 89 e5             	mov    %rsp,%rbp
    1486:	53                   	push   %rbx
    1487:	48 83 ec 58          	sub    $0x58,%rsp
    148b:	bf 00 00 00 00       	mov    $0x0,%edi
    1490:	e8 cb fb ff ff       	callq  1060 <_ZNSt8ios_base15sync_with_stdioEb@plt>
    1495:	be 00 00 00 00       	mov    $0x0,%esi
    149a:	48 8d 3d 8f 3d 00 00 	lea    0x3d8f(%rip),%rdi        # 5230 <_ZSt3cin@@GLIBCXX_3.4+0x10>
    14a1:	e8 0a fc ff ff       	callq  10b0 <_ZNSt9basic_iosIcSt11char_traitsIcEE3tieEPSo@plt>
    14a6:	48 8d 45 d8          	lea    -0x28(%rbp),%rax
    14aa:	48 89 c6             	mov    %rax,%rsi
    14ad:	48 8d 3d 6c 3d 00 00 	lea    0x3d6c(%rip),%rdi        # 5220 <_ZSt3cin@@GLIBCXX_3.4>
    14b4:	e8 c7 fb ff ff       	callq  1080 <_ZNSirsERi@plt>
    14b9:	48 8b 10             	mov    (%rax),%rdx
    14bc:	48 83 ea 18          	sub    $0x18,%rdx
    14c0:	48 8b 12             	mov    (%rdx),%rdx
    14c3:	48 01 d0             	add    %rdx,%rax
    14c6:	48 89 c7             	mov    %rax,%rdi
    14c9:	e8 52 fc ff ff       	callq  1120 <_ZNKSt9basic_iosIcSt11char_traitsIcEEcvbEv@plt>
    14ce:	84 c0                	test   %al,%al
    14d0:	0f 84 93 01 00 00    	je     1669 <main+0x1e7>
    14d6:	48 8d 45 df          	lea    -0x21(%rbp),%rax
    14da:	48 89 c7             	mov    %rax,%rdi
    14dd:	e8 be fc ff ff       	callq  11a0 <_ZNSaIcEC1Ev@plt>
    14e2:	48 8d 55 df          	lea    -0x21(%rbp),%rdx
    14e6:	48 8d 45 a0          	lea    -0x60(%rbp),%rax
    14ea:	48 8d 35 16 1b 00 00 	lea    0x1b16(%rip),%rsi        # 3007 <_ZStL6ignore+0x1>
    14f1:	48 89 c7             	mov    %rax,%rdi
    14f4:	e8 37 fc ff ff       	callq  1130 <_ZNSt7__cxx1112basic_stringIcSt11char_traitsIcESaIcEEC1EPKcRKS3_@plt>
    14f9:	48 8d 45 df          	lea    -0x21(%rbp),%rax
    14fd:	48 89 c7             	mov    %rax,%rdi
    1500:	e8 fb fb ff ff       	callq  1100 <_ZNSaIcED1Ev@plt>
    1505:	48 8d 45 c0          	lea    -0x40(%rbp),%rax
    1509:	48 89 c7             	mov    %rax,%rdi
    150c:	e8 4f 02 00 00       	callq  1760 <_ZNSt6vectorIcSaIcEEC1Ev>
    1511:	c6 45 ef 00          	movb   $0x0,-0x11(%rbp)
    1515:	c7 45 e8 00 00 00 00 	movl   $0x0,-0x18(%rbp)
    151c:	8b 45 d8             	mov    -0x28(%rbp),%eax
    151f:	39 45 e8             	cmp    %eax,-0x18(%rbp)
    1522:	0f 8d 85 00 00 00    	jge    15ad <main+0x12b>
    1528:	c7 45 e4 00 00 00 00 	movl   $0x0,-0x1c(%rbp)
    152f:	8b 45 e4             	mov    -0x1c(%rbp),%eax
    1532:	48 63 d8             	movslq %eax,%rbx
    1535:	48 8d 45 a0          	lea    -0x60(%rbp),%rax
    1539:	48 89 c7             	mov    %rax,%rdi
    153c:	e8 5f fb ff ff       	callq  10a0 <_ZNKSt7__cxx1112basic_stringIcSt11char_traitsIcESaIcEE4sizeEv@plt>
    1541:	48 39 c3             	cmp    %rax,%rbx
    1544:	0f 92 c0             	setb   %al
    1547:	84 c0                	test   %al,%al
    1549:	74 4f                	je     159a <main+0x118>
    154b:	8b 45 e4             	mov    -0x1c(%rbp),%eax
    154e:	48 63 d0             	movslq %eax,%rdx
    1551:	48 8d 45 a0          	lea    -0x60(%rbp),%rax
    1555:	48 89 d6             	mov    %rdx,%rsi
    1558:	48 89 c7             	mov    %rax,%rdi
    155b:	e8 50 fc ff ff       	callq  11b0 <_ZNSt7__cxx1112basic_stringIcSt11char_traitsIcESaIcEEixEm@plt>
    1560:	48 89 c2             	mov    %rax,%rdx
    1563:	48 8d 45 c0          	lea    -0x40(%rbp),%rax
    1567:	48 89 d6             	mov    %rdx,%rsi
    156a:	48 89 c7             	mov    %rax,%rdi
    156d:	e8 c0 02 00 00       	callq  1832 <_ZNSt6vectorIcSaIcEE9push_backERKc>
    1572:	48 8d 45 c0          	lea    -0x40(%rbp),%rax
    1576:	48 89 c7             	mov    %rax,%rdi
    1579:	e8 30 03 00 00       	callq  18ae <_ZNKSt6vectorIcSaIcEE4sizeEv>
    157e:	8b 55 d8             	mov    -0x28(%rbp),%edx
    1581:	48 63 d2             	movslq %edx,%rdx
    1584:	48 39 d0             	cmp    %rdx,%rax
    1587:	0f 93 c0             	setae  %al
    158a:	84 c0                	test   %al,%al
    158c:	74 06                	je     1594 <main+0x112>
    158e:	c6 45 ef 01          	movb   $0x1,-0x11(%rbp)
    1592:	eb 06                	jmp    159a <main+0x118>
    1594:	83 45 e4 01          	addl   $0x1,-0x1c(%rbp)
    1598:	eb 95                	jmp    152f <main+0xad>
    159a:	0f b6 45 ef          	movzbl -0x11(%rbp),%eax
    159e:	83 f8 01             	cmp    $0x1,%eax
    15a1:	74 09                	je     15ac <main+0x12a>
    15a3:	83 45 e8 01          	addl   $0x1,-0x18(%rbp)
    15a7:	e9 70 ff ff ff       	jmpq   151c <main+0x9a>
    15ac:	90                   	nop
    15ad:	c7 45 e0 00 00 00 00 	movl   $0x0,-0x20(%rbp)
    15b4:	8b 45 d8             	mov    -0x28(%rbp),%eax
    15b7:	39 45 e0             	cmp    %eax,-0x20(%rbp)
    15ba:	0f 8d 8c 00 00 00    	jge    164c <main+0x1ca>
    15c0:	8b 45 e0             	mov    -0x20(%rbp),%eax
    15c3:	8d 50 01             	lea    0x1(%rax),%edx
    15c6:	8b 45 d8             	mov    -0x28(%rbp),%eax
    15c9:	39 c2                	cmp    %eax,%edx
    15cb:	75 4d                	jne    161a <main+0x198>
    15cd:	8b 45 e0             	mov    -0x20(%rbp),%eax
    15d0:	8d 50 01             	lea    0x1(%rax),%edx
    15d3:	48 63 c2             	movslq %edx,%rax
    15d6:	48 69 c0 93 24 49 92 	imul   $0xffffffff92492493,%rax,%rax
    15dd:	48 c1 e8 20          	shr    $0x20,%rax
    15e1:	01 d0                	add    %edx,%eax
    15e3:	c1 f8 02             	sar    $0x2,%eax
    15e6:	89 c1                	mov    %eax,%ecx
    15e8:	89 d0                	mov    %edx,%eax
    15ea:	c1 f8 1f             	sar    $0x1f,%eax
    15ed:	29 c1                	sub    %eax,%ecx
    15ef:	89 c8                	mov    %ecx,%eax
    15f1:	89 c1                	mov    %eax,%ecx
    15f3:	c1 e1 03             	shl    $0x3,%ecx
    15f6:	29 c1                	sub    %eax,%ecx
    15f8:	89 d0                	mov    %edx,%eax
    15fa:	29 c8                	sub    %ecx,%eax
    15fc:	83 f8 01             	cmp    $0x1,%eax
    15ff:	75 19                	jne    161a <main+0x198>
    1601:	48 8d 35 07 1a 00 00 	lea    0x1a07(%rip),%rsi        # 300f <_ZStL6ignore+0x9>
    1608:	48 8d 3d f1 3a 00 00 	lea    0x3af1(%rip),%rdi        # 5100 <_ZSt4cout@@GLIBCXX_3.4>
    160f:	e8 cc fa ff ff       	callq  10e0 <_ZStlsISt11char_traitsIcEERSt13basic_ostreamIcT_ES5_PKc@plt>
    1614:	83 45 e0 01          	addl   $0x1,-0x20(%rbp)
    1618:	eb 29                	jmp    1643 <main+0x1c1>
    161a:	8b 45 e0             	mov    -0x20(%rbp),%eax
    161d:	48 63 d0             	movslq %eax,%rdx
    1620:	48 8d 45 c0          	lea    -0x40(%rbp),%rax
    1624:	48 89 d6             	mov    %rdx,%rsi
    1627:	48 89 c7             	mov    %rax,%rdi
    162a:	e8 9f 02 00 00       	callq  18ce <_ZNSt6vectorIcSaIcEEixEm>
    162f:	0f b6 00             	movzbl (%rax),%eax
    1632:	0f be c0             	movsbl %al,%eax
    1635:	89 c6                	mov    %eax,%esi
    1637:	48 8d 3d c2 3a 00 00 	lea    0x3ac2(%rip),%rdi        # 5100 <_ZSt4cout@@GLIBCXX_3.4>
    163e:	e8 cd fa ff ff       	callq  1110 <_ZStlsISt11char_traitsIcEERSt13basic_ostreamIcT_ES5_c@plt>
    1643:	83 45 e0 01          	addl   $0x1,-0x20(%rbp)
    1647:	e9 68 ff ff ff       	jmpq   15b4 <main+0x132>
    164c:	48 8d 45 c0          	lea    -0x40(%rbp),%rax
    1650:	48 89 c7             	mov    %rax,%rdi
    1653:	e8 96 01 00 00       	callq  17ee <_ZNSt6vectorIcSaIcEED1Ev>
    1658:	48 8d 45 a0          	lea    -0x60(%rbp),%rax
    165c:	48 89 c7             	mov    %rax,%rdi
    165f:	e8 2c fa ff ff       	callq  1090 <_ZNSt7__cxx1112basic_stringIcSt11char_traitsIcESaIcEED1Ev@plt>
    1664:	e9 3d fe ff ff       	jmpq   14a6 <main+0x24>
    1669:	b8 00 00 00 00       	mov    $0x0,%eax
    166e:	eb 40                	jmp    16b0 <main+0x22e>
    1670:	48 89 c3             	mov    %rax,%rbx
    1673:	48 8d 45 df          	lea    -0x21(%rbp),%rax
    1677:	48 89 c7             	mov    %rax,%rdi
    167a:	e8 81 fa ff ff       	callq  1100 <_ZNSaIcED1Ev@plt>
    167f:	48 89 d8             	mov    %rbx,%rax
    1682:	48 89 c7             	mov    %rax,%rdi
    1685:	e8 06 fb ff ff       	callq  1190 <_Unwind_Resume@plt>
    168a:	48 89 c3             	mov    %rax,%rbx
    168d:	48 8d 45 c0          	lea    -0x40(%rbp),%rax
    1691:	48 89 c7             	mov    %rax,%rdi
    1694:	e8 55 01 00 00       	callq  17ee <_ZNSt6vectorIcSaIcEED1Ev>
    1699:	48 8d 45 a0          	lea    -0x60(%rbp),%rax
    169d:	48 89 c7             	mov    %rax,%rdi
    16a0:	e8 eb f9 ff ff       	callq  1090 <_ZNSt7__cxx1112basic_stringIcSt11char_traitsIcESaIcEED1Ev@plt>
    16a5:	48 89 d8             	mov    %rbx,%rax
    16a8:	48 89 c7             	mov    %rax,%rdi
    16ab:	e8 e0 fa ff ff       	callq  1190 <_Unwind_Resume@plt>
    16b0:	48 83 c4 58          	add    $0x58,%rsp
    16b4:	5b                   	pop    %rbx
    16b5:	5d                   	pop    %rbp
    16b6:	c3                   	retq   

00000000000016b7 <_Z41__static_initialization_and_destruction_0ii>:
    16b7:	55                   	push   %rbp
    16b8:	48 89 e5             	mov    %rsp,%rbp
    16bb:	48 83 ec 10          	sub    $0x10,%rsp
    16bf:	89 7d fc             	mov    %edi,-0x4(%rbp)
    16c2:	89 75 f8             	mov    %esi,-0x8(%rbp)
    16c5:	83 7d fc 01          	cmpl   $0x1,-0x4(%rbp)
    16c9:	75 32                	jne    16fd <_Z41__static_initialization_and_destruction_0ii+0x46>
    16cb:	81 7d f8 ff ff 00 00 	cmpl   $0xffff,-0x8(%rbp)
    16d2:	75 29                	jne    16fd <_Z41__static_initialization_and_destruction_0ii+0x46>
    16d4:	48 8d 3d 5e 3c 00 00 	lea    0x3c5e(%rip),%rdi        # 5339 <_ZStL8__ioinit>
    16db:	e8 70 fa ff ff       	callq  1150 <_ZNSt8ios_base4InitC1Ev@plt>
    16e0:	48 8d 15 01 3a 00 00 	lea    0x3a01(%rip),%rdx        # 50e8 <__dso_handle>
    16e7:	48 8d 35 4b 3c 00 00 	lea    0x3c4b(%rip),%rsi        # 5339 <_ZStL8__ioinit>
    16ee:	48 8b 05 03 39 00 00 	mov    0x3903(%rip),%rax        # 4ff8 <_ZNSt8ios_base4InitD1Ev@GLIBCXX_3.4>
    16f5:	48 89 c7             	mov    %rax,%rdi
    16f8:	e8 c3 f9 ff ff       	callq  10c0 <__cxa_atexit@plt>
    16fd:	90                   	nop
    16fe:	c9                   	leaveq 
    16ff:	c3                   	retq   

0000000000001700 <_GLOBAL__sub_I__Z7decSortxx>:
    1700:	55                   	push   %rbp
    1701:	48 89 e5             	mov    %rsp,%rbp
    1704:	be ff ff 00 00       	mov    $0xffff,%esi
    1709:	bf 01 00 00 00       	mov    $0x1,%edi
    170e:	e8 a4 ff ff ff       	callq  16b7 <_Z41__static_initialization_and_destruction_0ii>
    1713:	5d                   	pop    %rbp
    1714:	c3                   	retq   

0000000000001715 <_ZnwmPv>:
    1715:	55                   	push   %rbp
    1716:	48 89 e5             	mov    %rsp,%rbp
    1719:	48 89 7d f8          	mov    %rdi,-0x8(%rbp)
    171d:	48 89 75 f0          	mov    %rsi,-0x10(%rbp)
    1721:	48 8b 45 f0          	mov    -0x10(%rbp),%rax
    1725:	5d                   	pop    %rbp
    1726:	c3                   	retq   
    1727:	90                   	nop

0000000000001728 <_ZNSt12_Vector_baseIcSaIcEE12_Vector_implD1Ev>:
    1728:	55                   	push   %rbp
    1729:	48 89 e5             	mov    %rsp,%rbp
    172c:	48 83 ec 10          	sub    $0x10,%rsp
    1730:	48 89 7d f8          	mov    %rdi,-0x8(%rbp)
    1734:	48 8b 45 f8          	mov    -0x8(%rbp),%rax
    1738:	48 89 c7             	mov    %rax,%rdi
    173b:	e8 f0 f8 ff ff       	callq  1030 <_ZNSaIcED2Ev@plt>
    1740:	90                   	nop
    1741:	c9                   	leaveq 
    1742:	c3                   	retq   
    1743:	90                   	nop

0000000000001744 <_ZNSt12_Vector_baseIcSaIcEEC1Ev>:
    1744:	55                   	push   %rbp
    1745:	48 89 e5             	mov    %rsp,%rbp
    1748:	48 83 ec 10          	sub    $0x10,%rsp
    174c:	48 89 7d f8          	mov    %rdi,-0x8(%rbp)
    1750:	48 8b 45 f8          	mov    -0x8(%rbp),%rax
    1754:	48 89 c7             	mov    %rax,%rdi
    1757:	e8 20 00 00 00       	callq  177c <_ZNSt12_Vector_baseIcSaIcEE12_Vector_implC1Ev>
    175c:	90                   	nop
    175d:	c9                   	leaveq 
    175e:	c3                   	retq   
    175f:	90                   	nop

0000000000001760 <_ZNSt6vectorIcSaIcEEC1Ev>:
    1760:	55                   	push   %rbp
    1761:	48 89 e5             	mov    %rsp,%rbp
    1764:	48 83 ec 10          	sub    $0x10,%rsp
    1768:	48 89 7d f8          	mov    %rdi,-0x8(%rbp)
    176c:	48 8b 45 f8          	mov    -0x8(%rbp),%rax
    1770:	48 89 c7             	mov    %rax,%rdi
    1773:	e8 cc ff ff ff       	callq  1744 <_ZNSt12_Vector_baseIcSaIcEEC1Ev>
    1778:	90                   	nop
    1779:	c9                   	leaveq 
    177a:	c3                   	retq   
    177b:	90                   	nop

000000000000177c <_ZNSt12_Vector_baseIcSaIcEE12_Vector_implC1Ev>:
    177c:	55                   	push   %rbp
    177d:	48 89 e5             	mov    %rsp,%rbp
    1780:	48 83 ec 10          	sub    $0x10,%rsp
    1784:	48 89 7d f8          	mov    %rdi,-0x8(%rbp)
    1788:	48 8b 45 f8          	mov    -0x8(%rbp),%rax
    178c:	48 89 c7             	mov    %rax,%rdi
    178f:	e8 ec f9 ff ff       	callq  1180 <_ZNSaIcEC2Ev@plt>
    1794:	48 8b 45 f8          	mov    -0x8(%rbp),%rax
    1798:	48 89 c7             	mov    %rax,%rdi
    179b:	e8 4a 01 00 00       	callq  18ea <_ZNSt12_Vector_baseIcSaIcEE17_Vector_impl_dataC1Ev>
    17a0:	90                   	nop
    17a1:	c9                   	leaveq 
    17a2:	c3                   	retq   
    17a3:	90                   	nop

00000000000017a4 <_ZNSt12_Vector_baseIcSaIcEED1Ev>:
    17a4:	55                   	push   %rbp
    17a5:	48 89 e5             	mov    %rsp,%rbp
    17a8:	48 83 ec 10          	sub    $0x10,%rsp
    17ac:	48 89 7d f8          	mov    %rdi,-0x8(%rbp)
    17b0:	48 8b 45 f8          	mov    -0x8(%rbp),%rax
    17b4:	48 8b 50 10          	mov    0x10(%rax),%rdx
    17b8:	48 8b 45 f8          	mov    -0x8(%rbp),%rax
    17bc:	48 8b 00             	mov    (%rax),%rax
    17bf:	48 29 c2             	sub    %rax,%rdx
    17c2:	48 89 d0             	mov    %rdx,%rax
    17c5:	48 89 c2             	mov    %rax,%rdx
    17c8:	48 8b 45 f8          	mov    -0x8(%rbp),%rax
    17cc:	48 8b 08             	mov    (%rax),%rcx
    17cf:	48 8b 45 f8          	mov    -0x8(%rbp),%rax
    17d3:	48 89 ce             	mov    %rcx,%rsi
    17d6:	48 89 c7             	mov    %rax,%rdi
    17d9:	e8 3a 01 00 00       	callq  1918 <_ZNSt12_Vector_baseIcSaIcEE13_M_deallocateEPcm>
    17de:	48 8b 45 f8          	mov    -0x8(%rbp),%rax
    17e2:	48 89 c7             	mov    %rax,%rdi
    17e5:	e8 3e ff ff ff       	callq  1728 <_ZNSt12_Vector_baseIcSaIcEE12_Vector_implD1Ev>
    17ea:	90                   	nop
    17eb:	c9                   	leaveq 
    17ec:	c3                   	retq   
    17ed:	90                   	nop

00000000000017ee <_ZNSt6vectorIcSaIcEED1Ev>:
    17ee:	55                   	push   %rbp
    17ef:	48 89 e5             	mov    %rsp,%rbp
    17f2:	48 83 ec 10          	sub    $0x10,%rsp
    17f6:	48 89 7d f8          	mov    %rdi,-0x8(%rbp)
    17fa:	48 8b 45 f8          	mov    -0x8(%rbp),%rax
    17fe:	48 89 c7             	mov    %rax,%rdi
    1801:	e8 48 01 00 00       	callq  194e <_ZNSt12_Vector_baseIcSaIcEE19_M_get_Tp_allocatorEv>
    1806:	48 89 c2             	mov    %rax,%rdx
    1809:	48 8b 45 f8          	mov    -0x8(%rbp),%rax
    180d:	48 8b 48 08          	mov    0x8(%rax),%rcx
    1811:	48 8b 45 f8          	mov    -0x8(%rbp),%rax
    1815:	48 8b 00             	mov    (%rax),%rax
    1818:	48 89 ce             	mov    %rcx,%rsi
    181b:	48 89 c7             	mov    %rax,%rdi
    181e:	e8 39 01 00 00       	callq  195c <_ZSt8_DestroyIPccEvT_S1_RSaIT0_E>
    1823:	48 8b 45 f8          	mov    -0x8(%rbp),%rax
    1827:	48 89 c7             	mov    %rax,%rdi
    182a:	e8 75 ff ff ff       	callq  17a4 <_ZNSt12_Vector_baseIcSaIcEED1Ev>
    182f:	90                   	nop
    1830:	c9                   	leaveq 
    1831:	c3                   	retq   

0000000000001832 <_ZNSt6vectorIcSaIcEE9push_backERKc>:
    1832:	55                   	push   %rbp
    1833:	48 89 e5             	mov    %rsp,%rbp
    1836:	48 83 ec 10          	sub    $0x10,%rsp
    183a:	48 89 7d f8          	mov    %rdi,-0x8(%rbp)
    183e:	48 89 75 f0          	mov    %rsi,-0x10(%rbp)
    1842:	48 8b 45 f8          	mov    -0x8(%rbp),%rax
    1846:	48 8b 50 08          	mov    0x8(%rax),%rdx
    184a:	48 8b 45 f8          	mov    -0x8(%rbp),%rax
    184e:	48 8b 40 10          	mov    0x10(%rax),%rax
    1852:	48 39 c2             	cmp    %rax,%rdx
    1855:	74 31                	je     1888 <_ZNSt6vectorIcSaIcEE9push_backERKc+0x56>
    1857:	48 8b 45 f8          	mov    -0x8(%rbp),%rax
    185b:	48 8b 48 08          	mov    0x8(%rax),%rcx
    185f:	48 8b 45 f8          	mov    -0x8(%rbp),%rax
    1863:	48 8b 55 f0          	mov    -0x10(%rbp),%rdx
    1867:	48 89 ce             	mov    %rcx,%rsi
    186a:	48 89 c7             	mov    %rax,%rdi
    186d:	e8 14 01 00 00       	callq  1986 <_ZNSt16allocator_traitsISaIcEE9constructIcJRKcEEEvRS0_PT_DpOT0_>
    1872:	48 8b 45 f8          	mov    -0x8(%rbp),%rax
    1876:	48 8b 40 08          	mov    0x8(%rax),%rax
    187a:	48 8d 50 01          	lea    0x1(%rax),%rdx
    187e:	48 8b 45 f8          	mov    -0x8(%rbp),%rax
    1882:	48 89 50 08          	mov    %rdx,0x8(%rax)
    1886:	eb 22                	jmp    18aa <_ZNSt6vectorIcSaIcEE9push_backERKc+0x78>
    1888:	48 8b 45 f8          	mov    -0x8(%rbp),%rax
    188c:	48 89 c7             	mov    %rax,%rdi
    188f:	e8 2c 01 00 00       	callq  19c0 <_ZNSt6vectorIcSaIcEE3endEv>
    1894:	48 89 c1             	mov    %rax,%rcx
    1897:	48 8b 55 f0          	mov    -0x10(%rbp),%rdx
    189b:	48 8b 45 f8          	mov    -0x8(%rbp),%rax
    189f:	48 89 ce             	mov    %rcx,%rsi
    18a2:	48 89 c7             	mov    %rax,%rdi
    18a5:	e8 5a 01 00 00       	callq  1a04 <_ZNSt6vectorIcSaIcEE17_M_realloc_insertIJRKcEEEvN9__gnu_cxx17__normal_iteratorIPcS1_EEDpOT_>
    18aa:	90                   	nop
    18ab:	c9                   	leaveq 
    18ac:	c3                   	retq   
    18ad:	90                   	nop

00000000000018ae <_ZNKSt6vectorIcSaIcEE4sizeEv>:
    18ae:	55                   	push   %rbp
    18af:	48 89 e5             	mov    %rsp,%rbp
    18b2:	48 89 7d f8          	mov    %rdi,-0x8(%rbp)
    18b6:	48 8b 45 f8          	mov    -0x8(%rbp),%rax
    18ba:	48 8b 50 08          	mov    0x8(%rax),%rdx
    18be:	48 8b 45 f8          	mov    -0x8(%rbp),%rax
    18c2:	48 8b 00             	mov    (%rax),%rax
    18c5:	48 29 c2             	sub    %rax,%rdx
    18c8:	48 89 d0             	mov    %rdx,%rax
    18cb:	5d                   	pop    %rbp
    18cc:	c3                   	retq   
    18cd:	90                   	nop

00000000000018ce <_ZNSt6vectorIcSaIcEEixEm>:
    18ce:	55                   	push   %rbp
    18cf:	48 89 e5             	mov    %rsp,%rbp
    18d2:	48 89 7d f8          	mov    %rdi,-0x8(%rbp)
    18d6:	48 89 75 f0          	mov    %rsi,-0x10(%rbp)
    18da:	48 8b 45 f8          	mov    -0x8(%rbp),%rax
    18de:	48 8b 10             	mov    (%rax),%rdx
    18e1:	48 8b 45 f0          	mov    -0x10(%rbp),%rax
    18e5:	48 01 d0             	add    %rdx,%rax
    18e8:	5d                   	pop    %rbp
    18e9:	c3                   	retq   

00000000000018ea <_ZNSt12_Vector_baseIcSaIcEE17_Vector_impl_dataC1Ev>:
    18ea:	55                   	push   %rbp
    18eb:	48 89 e5             	mov    %rsp,%rbp
    18ee:	48 89 7d f8          	mov    %rdi,-0x8(%rbp)
    18f2:	48 8b 45 f8          	mov    -0x8(%rbp),%rax
    18f6:	48 c7 00 00 00 00 00 	movq   $0x0,(%rax)
    18fd:	48 8b 45 f8          	mov    -0x8(%rbp),%rax
    1901:	48 c7 40 08 00 00 00 	movq   $0x0,0x8(%rax)
    1908:	00 
    1909:	48 8b 45 f8          	mov    -0x8(%rbp),%rax
    190d:	48 c7 40 10 00 00 00 	movq   $0x0,0x10(%rax)
    1914:	00 
    1915:	90                   	nop
    1916:	5d                   	pop    %rbp
    1917:	c3                   	retq   

0000000000001918 <_ZNSt12_Vector_baseIcSaIcEE13_M_deallocateEPcm>:
    1918:	55                   	push   %rbp
    1919:	48 89 e5             	mov    %rsp,%rbp
    191c:	48 83 ec 20          	sub    $0x20,%rsp
    1920:	48 89 7d f8          	mov    %rdi,-0x8(%rbp)
    1924:	48 89 75 f0          	mov    %rsi,-0x10(%rbp)
    1928:	48 89 55 e8          	mov    %rdx,-0x18(%rbp)
    192c:	48 83 7d f0 00       	cmpq   $0x0,-0x10(%rbp)
    1931:	74 17                	je     194a <_ZNSt12_Vector_baseIcSaIcEE13_M_deallocateEPcm+0x32>
    1933:	48 8b 45 f8          	mov    -0x8(%rbp),%rax
    1937:	48 8b 55 e8          	mov    -0x18(%rbp),%rdx
    193b:	48 8b 4d f0          	mov    -0x10(%rbp),%rcx
    193f:	48 89 ce             	mov    %rcx,%rsi
    1942:	48 89 c7             	mov    %rax,%rdi
    1945:	e8 5e 03 00 00       	callq  1ca8 <_ZNSt16allocator_traitsISaIcEE10deallocateERS0_Pcm>
    194a:	90                   	nop
    194b:	c9                   	leaveq 
    194c:	c3                   	retq   
    194d:	90                   	nop

000000000000194e <_ZNSt12_Vector_baseIcSaIcEE19_M_get_Tp_allocatorEv>:
    194e:	55                   	push   %rbp
    194f:	48 89 e5             	mov    %rsp,%rbp
    1952:	48 89 7d f8          	mov    %rdi,-0x8(%rbp)
    1956:	48 8b 45 f8          	mov    -0x8(%rbp),%rax
    195a:	5d                   	pop    %rbp
    195b:	c3                   	retq   

000000000000195c <_ZSt8_DestroyIPccEvT_S1_RSaIT0_E>:
    195c:	55                   	push   %rbp
    195d:	48 89 e5             	mov    %rsp,%rbp
    1960:	48 83 ec 20          	sub    $0x20,%rsp
    1964:	48 89 7d f8          	mov    %rdi,-0x8(%rbp)
    1968:	48 89 75 f0          	mov    %rsi,-0x10(%rbp)
    196c:	48 89 55 e8          	mov    %rdx,-0x18(%rbp)
    1970:	48 8b 55 f0          	mov    -0x10(%rbp),%rdx
    1974:	48 8b 45 f8          	mov    -0x8(%rbp),%rax
    1978:	48 89 d6             	mov    %rdx,%rsi
    197b:	48 89 c7             	mov    %rax,%rdi
    197e:	e8 53 03 00 00       	callq  1cd6 <_ZSt8_DestroyIPcEvT_S1_>
    1983:	90                   	nop
    1984:	c9                   	leaveq 
    1985:	c3                   	retq   

0000000000001986 <_ZNSt16allocator_traitsISaIcEE9constructIcJRKcEEEvRS0_PT_DpOT0_>:
    1986:	55                   	push   %rbp
    1987:	48 89 e5             	mov    %rsp,%rbp
    198a:	48 83 ec 20          	sub    $0x20,%rsp
    198e:	48 89 7d f8          	mov    %rdi,-0x8(%rbp)
    1992:	48 89 75 f0          	mov    %rsi,-0x10(%rbp)
    1996:	48 89 55 e8          	mov    %rdx,-0x18(%rbp)
    199a:	48 8b 45 e8          	mov    -0x18(%rbp),%rax
    199e:	48 89 c7             	mov    %rax,%rdi
    19a1:	e8 56 03 00 00       	callq  1cfc <_ZSt7forwardIRKcEOT_RNSt16remove_referenceIS2_E4typeE>
    19a6:	48 89 c2             	mov    %rax,%rdx
    19a9:	48 8b 4d f0          	mov    -0x10(%rbp),%rcx
    19ad:	48 8b 45 f8          	mov    -0x8(%rbp),%rax
    19b1:	48 89 ce             	mov    %rcx,%rsi
    19b4:	48 89 c7             	mov    %rax,%rdi
    19b7:	e8 4e 03 00 00       	callq  1d0a <_ZN9__gnu_cxx13new_allocatorIcE9constructIcJRKcEEEvPT_DpOT0_>
    19bc:	90                   	nop
    19bd:	c9                   	leaveq 
    19be:	c3                   	retq   
    19bf:	90                   	nop

00000000000019c0 <_ZNSt6vectorIcSaIcEE3endEv>:
    19c0:	55                   	push   %rbp
    19c1:	48 89 e5             	mov    %rsp,%rbp
    19c4:	48 83 ec 20          	sub    $0x20,%rsp
    19c8:	48 89 7d e8          	mov    %rdi,-0x18(%rbp)
    19cc:	48 8b 45 e8          	mov    -0x18(%rbp),%rax
    19d0:	48 8d 50 08          	lea    0x8(%rax),%rdx
    19d4:	48 8d 45 f8          	lea    -0x8(%rbp),%rax
    19d8:	48 89 d6             	mov    %rdx,%rsi
    19db:	48 89 c7             	mov    %rax,%rdi
    19de:	e8 67 03 00 00       	callq  1d4a <_ZN9__gnu_cxx17__normal_iteratorIPcSt6vectorIcSaIcEEEC1ERKS1_>
    19e3:	48 8b 45 f8          	mov    -0x8(%rbp),%rax
    19e7:	c9                   	leaveq 
    19e8:	c3                   	retq   

00000000000019e9 <_ZNSt6vectorIcSaIcEE15_S_use_relocateEv>:
    19e9:	55                   	push   %rbp
    19ea:	48 89 e5             	mov    %rsp,%rbp
    19ed:	48 83 ec 10          	sub    $0x10,%rsp
    19f1:	e8 02 00 00 00       	callq  19f8 <_ZNSt6vectorIcSaIcEE19_S_nothrow_relocateESt17integral_constantIbLb1EE>
    19f6:	c9                   	leaveq 
    19f7:	c3                   	retq   

00000000000019f8 <_ZNSt6vectorIcSaIcEE19_S_nothrow_relocateESt17integral_constantIbLb1EE>:
    19f8:	55                   	push   %rbp
    19f9:	48 89 e5             	mov    %rsp,%rbp
    19fc:	b8 01 00 00 00       	mov    $0x1,%eax
    1a01:	5d                   	pop    %rbp
    1a02:	c3                   	retq   
    1a03:	90                   	nop

0000000000001a04 <_ZNSt6vectorIcSaIcEE17_M_realloc_insertIJRKcEEEvN9__gnu_cxx17__normal_iteratorIPcS1_EEDpOT_>:
    1a04:	55                   	push   %rbp
    1a05:	48 89 e5             	mov    %rsp,%rbp
    1a08:	53                   	push   %rbx
    1a09:	48 83 ec 68          	sub    $0x68,%rsp
    1a0d:	48 89 7d a8          	mov    %rdi,-0x58(%rbp)
    1a11:	48 89 75 a0          	mov    %rsi,-0x60(%rbp)
    1a15:	48 89 55 98          	mov    %rdx,-0x68(%rbp)
    1a19:	48 8b 45 a8          	mov    -0x58(%rbp),%rax
    1a1d:	48 8d 15 ed 15 00 00 	lea    0x15ed(%rip),%rdx        # 3011 <_ZStL6ignore+0xb>
    1a24:	be 01 00 00 00       	mov    $0x1,%esi
    1a29:	48 89 c7             	mov    %rax,%rdi
    1a2c:	e8 37 03 00 00       	callq  1d68 <_ZNKSt6vectorIcSaIcEE12_M_check_lenEmPKc>
    1a31:	48 89 45 e0          	mov    %rax,-0x20(%rbp)
    1a35:	48 8b 45 a8          	mov    -0x58(%rbp),%rax
    1a39:	48 8b 00             	mov    (%rax),%rax
    1a3c:	48 89 45 d8          	mov    %rax,-0x28(%rbp)
    1a40:	48 8b 45 a8          	mov    -0x58(%rbp),%rax
    1a44:	48 8b 40 08          	mov    0x8(%rax),%rax
    1a48:	48 89 45 d0          	mov    %rax,-0x30(%rbp)
    1a4c:	48 8b 45 a8          	mov    -0x58(%rbp),%rax
    1a50:	48 89 c7             	mov    %rax,%rdi
    1a53:	e8 da 03 00 00       	callq  1e32 <_ZNSt6vectorIcSaIcEE5beginEv>
    1a58:	48 89 45 b8          	mov    %rax,-0x48(%rbp)
    1a5c:	48 8d 55 b8          	lea    -0x48(%rbp),%rdx
    1a60:	48 8d 45 a0          	lea    -0x60(%rbp),%rax
    1a64:	48 89 d6             	mov    %rdx,%rsi
    1a67:	48 89 c7             	mov    %rax,%rdi
    1a6a:	e8 e8 03 00 00       	callq  1e57 <_ZN9__gnu_cxxmiIPcSt6vectorIcSaIcEEEENS_17__normal_iteratorIT_T0_E15difference_typeERKS8_SB_>
    1a6f:	48 89 45 c8          	mov    %rax,-0x38(%rbp)
    1a73:	48 8b 45 a8          	mov    -0x58(%rbp),%rax
    1a77:	48 8b 55 e0          	mov    -0x20(%rbp),%rdx
    1a7b:	48 89 d6             	mov    %rdx,%rsi
    1a7e:	48 89 c7             	mov    %rax,%rdi
    1a81:	e8 0e 04 00 00       	callq  1e94 <_ZNSt12_Vector_baseIcSaIcEE11_M_allocateEm>
    1a86:	48 89 45 c0          	mov    %rax,-0x40(%rbp)
    1a8a:	48 8b 45 c0          	mov    -0x40(%rbp),%rax
    1a8e:	48 89 45 e8          	mov    %rax,-0x18(%rbp)
    1a92:	48 8b 45 98          	mov    -0x68(%rbp),%rax
    1a96:	48 89 c7             	mov    %rax,%rdi
    1a99:	e8 5e 02 00 00       	callq  1cfc <_ZSt7forwardIRKcEOT_RNSt16remove_referenceIS2_E4typeE>
    1a9e:	48 89 c2             	mov    %rax,%rdx
    1aa1:	48 8b 4d c0          	mov    -0x40(%rbp),%rcx
    1aa5:	48 8b 45 c8          	mov    -0x38(%rbp),%rax
    1aa9:	48 01 c1             	add    %rax,%rcx
    1aac:	48 8b 45 a8          	mov    -0x58(%rbp),%rax
    1ab0:	48 89 ce             	mov    %rcx,%rsi
    1ab3:	48 89 c7             	mov    %rax,%rdi
    1ab6:	e8 cb fe ff ff       	callq  1986 <_ZNSt16allocator_traitsISaIcEE9constructIcJRKcEEEvRS0_PT_DpOT0_>
    1abb:	48 c7 45 e8 00 00 00 	movq   $0x0,-0x18(%rbp)
    1ac2:	00 
    1ac3:	e8 21 ff ff ff       	callq  19e9 <_ZNSt6vectorIcSaIcEE15_S_use_relocateEv>
    1ac8:	84 c0                	test   %al,%al
    1aca:	74 71                	je     1b3d <_ZNSt6vectorIcSaIcEE17_M_realloc_insertIJRKcEEEvN9__gnu_cxx17__normal_iteratorIPcS1_EEDpOT_+0x139>
    1acc:	48 8b 45 a8          	mov    -0x58(%rbp),%rax
    1ad0:	48 89 c7             	mov    %rax,%rdi
    1ad3:	e8 76 fe ff ff       	callq  194e <_ZNSt12_Vector_baseIcSaIcEE19_M_get_Tp_allocatorEv>
    1ad8:	48 89 c3             	mov    %rax,%rbx
    1adb:	48 8d 45 a0          	lea    -0x60(%rbp),%rax
    1adf:	48 89 c7             	mov    %rax,%rdi
    1ae2:	e8 13 04 00 00       	callq  1efa <_ZNK9__gnu_cxx17__normal_iteratorIPcSt6vectorIcSaIcEEE4baseEv>
    1ae7:	48 8b 30             	mov    (%rax),%rsi
    1aea:	48 8b 55 c0          	mov    -0x40(%rbp),%rdx
    1aee:	48 8b 45 d8          	mov    -0x28(%rbp),%rax
    1af2:	48 89 d9             	mov    %rbx,%rcx
    1af5:	48 89 c7             	mov    %rax,%rdi
    1af8:	e8 ca 03 00 00       	callq  1ec7 <_ZNSt6vectorIcSaIcEE11_S_relocateEPcS2_S2_RS0_>
    1afd:	48 89 45 e8          	mov    %rax,-0x18(%rbp)
    1b01:	48 83 45 e8 01       	addq   $0x1,-0x18(%rbp)
    1b06:	48 8b 45 a8          	mov    -0x58(%rbp),%rax
    1b0a:	48 89 c7             	mov    %rax,%rdi
    1b0d:	e8 3c fe ff ff       	callq  194e <_ZNSt12_Vector_baseIcSaIcEE19_M_get_Tp_allocatorEv>
    1b12:	48 89 c3             	mov    %rax,%rbx
    1b15:	48 8d 45 a0          	lea    -0x60(%rbp),%rax
    1b19:	48 89 c7             	mov    %rax,%rdi
    1b1c:	e8 d9 03 00 00       	callq  1efa <_ZNK9__gnu_cxx17__normal_iteratorIPcSt6vectorIcSaIcEEE4baseEv>
    1b21:	48 8b 00             	mov    (%rax),%rax
    1b24:	48 8b 55 e8          	mov    -0x18(%rbp),%rdx
    1b28:	48 8b 75 d0          	mov    -0x30(%rbp),%rsi
    1b2c:	48 89 d9             	mov    %rbx,%rcx
    1b2f:	48 89 c7             	mov    %rax,%rdi
    1b32:	e8 90 03 00 00       	callq  1ec7 <_ZNSt6vectorIcSaIcEE11_S_relocateEPcS2_S2_RS0_>
    1b37:	48 89 45 e8          	mov    %rax,-0x18(%rbp)
    1b3b:	eb 6f                	jmp    1bac <_ZNSt6vectorIcSaIcEE17_M_realloc_insertIJRKcEEEvN9__gnu_cxx17__normal_iteratorIPcS1_EEDpOT_+0x1a8>
    1b3d:	48 8b 45 a8          	mov    -0x58(%rbp),%rax
    1b41:	48 89 c7             	mov    %rax,%rdi
    1b44:	e8 05 fe ff ff       	callq  194e <_ZNSt12_Vector_baseIcSaIcEE19_M_get_Tp_allocatorEv>
    1b49:	48 89 c3             	mov    %rax,%rbx
    1b4c:	48 8d 45 a0          	lea    -0x60(%rbp),%rax
    1b50:	48 89 c7             	mov    %rax,%rdi
    1b53:	e8 a2 03 00 00       	callq  1efa <_ZNK9__gnu_cxx17__normal_iteratorIPcSt6vectorIcSaIcEEE4baseEv>
    1b58:	48 8b 30             	mov    (%rax),%rsi
    1b5b:	48 8b 55 c0          	mov    -0x40(%rbp),%rdx
    1b5f:	48 8b 45 d8          	mov    -0x28(%rbp),%rax
    1b63:	48 89 d9             	mov    %rbx,%rcx
    1b66:	48 89 c7             	mov    %rax,%rdi
    1b69:	e8 9a 03 00 00       	callq  1f08 <_ZSt34__uninitialized_move_if_noexcept_aIPcS0_SaIcEET0_T_S3_S2_RT1_>
    1b6e:	48 89 45 e8          	mov    %rax,-0x18(%rbp)
    1b72:	48 83 45 e8 01       	addq   $0x1,-0x18(%rbp)
    1b77:	48 8b 45 a8          	mov    -0x58(%rbp),%rax
    1b7b:	48 89 c7             	mov    %rax,%rdi
    1b7e:	e8 cb fd ff ff       	callq  194e <_ZNSt12_Vector_baseIcSaIcEE19_M_get_Tp_allocatorEv>
    1b83:	48 89 c3             	mov    %rax,%rbx
    1b86:	48 8d 45 a0          	lea    -0x60(%rbp),%rax
    1b8a:	48 89 c7             	mov    %rax,%rdi
    1b8d:	e8 68 03 00 00       	callq  1efa <_ZNK9__gnu_cxx17__normal_iteratorIPcSt6vectorIcSaIcEEE4baseEv>
    1b92:	48 8b 00             	mov    (%rax),%rax
    1b95:	48 8b 55 e8          	mov    -0x18(%rbp),%rdx
    1b99:	48 8b 75 d0          	mov    -0x30(%rbp),%rsi
    1b9d:	48 89 d9             	mov    %rbx,%rcx
    1ba0:	48 89 c7             	mov    %rax,%rdi
    1ba3:	e8 60 03 00 00       	callq  1f08 <_ZSt34__uninitialized_move_if_noexcept_aIPcS0_SaIcEET0_T_S3_S2_RT1_>
    1ba8:	48 89 45 e8          	mov    %rax,-0x18(%rbp)
    1bac:	e8 38 fe ff ff       	callq  19e9 <_ZNSt6vectorIcSaIcEE15_S_use_relocateEv>
    1bb1:	83 f0 01             	xor    $0x1,%eax
    1bb4:	84 c0                	test   %al,%al
    1bb6:	74 22                	je     1bda <_ZNSt6vectorIcSaIcEE17_M_realloc_insertIJRKcEEEvN9__gnu_cxx17__normal_iteratorIPcS1_EEDpOT_+0x1d6>
    1bb8:	48 8b 45 a8          	mov    -0x58(%rbp),%rax
    1bbc:	48 89 c7             	mov    %rax,%rdi
    1bbf:	e8 8a fd ff ff       	callq  194e <_ZNSt12_Vector_baseIcSaIcEE19_M_get_Tp_allocatorEv>
    1bc4:	48 89 c2             	mov    %rax,%rdx
    1bc7:	48 8b 4d d0          	mov    -0x30(%rbp),%rcx
    1bcb:	48 8b 45 d8          	mov    -0x28(%rbp),%rax
    1bcf:	48 89 ce             	mov    %rcx,%rsi
    1bd2:	48 89 c7             	mov    %rax,%rdi
    1bd5:	e8 82 fd ff ff       	callq  195c <_ZSt8_DestroyIPccEvT_S1_RSaIT0_E>
    1bda:	48 8b 45 a8          	mov    -0x58(%rbp),%rax
    1bde:	48 8b 55 a8          	mov    -0x58(%rbp),%rdx
    1be2:	48 8b 52 10          	mov    0x10(%rdx),%rdx
    1be6:	48 2b 55 d8          	sub    -0x28(%rbp),%rdx
    1bea:	48 8b 4d d8          	mov    -0x28(%rbp),%rcx
    1bee:	48 89 ce             	mov    %rcx,%rsi
    1bf1:	48 89 c7             	mov    %rax,%rdi
    1bf4:	e8 1f fd ff ff       	callq  1918 <_ZNSt12_Vector_baseIcSaIcEE13_M_deallocateEPcm>
    1bf9:	48 8b 45 a8          	mov    -0x58(%rbp),%rax
    1bfd:	48 8b 55 c0          	mov    -0x40(%rbp),%rdx
    1c01:	48 89 10             	mov    %rdx,(%rax)
    1c04:	48 8b 45 a8          	mov    -0x58(%rbp),%rax
    1c08:	48 8b 55 e8          	mov    -0x18(%rbp),%rdx
    1c0c:	48 89 50 08          	mov    %rdx,0x8(%rax)
    1c10:	48 8b 55 c0          	mov    -0x40(%rbp),%rdx
    1c14:	48 8b 45 e0          	mov    -0x20(%rbp),%rax
    1c18:	48 01 c2             	add    %rax,%rdx
    1c1b:	48 8b 45 a8          	mov    -0x58(%rbp),%rax
    1c1f:	48 89 50 10          	mov    %rdx,0x10(%rax)
    1c23:	eb 7c                	jmp    1ca1 <_ZNSt6vectorIcSaIcEE17_M_realloc_insertIJRKcEEEvN9__gnu_cxx17__normal_iteratorIPcS1_EEDpOT_+0x29d>
    1c25:	48 89 c7             	mov    %rax,%rdi
    1c28:	e8 23 f4 ff ff       	callq  1050 <__cxa_begin_catch@plt>
    1c2d:	48 83 7d e8 00       	cmpq   $0x0,-0x18(%rbp)
    1c32:	75 1c                	jne    1c50 <_ZNSt6vectorIcSaIcEE17_M_realloc_insertIJRKcEEEvN9__gnu_cxx17__normal_iteratorIPcS1_EEDpOT_+0x24c>
    1c34:	48 8b 55 c0          	mov    -0x40(%rbp),%rdx
    1c38:	48 8b 45 c8          	mov    -0x38(%rbp),%rax
    1c3c:	48 01 c2             	add    %rax,%rdx
    1c3f:	48 8b 45 a8          	mov    -0x58(%rbp),%rax
    1c43:	48 89 d6             	mov    %rdx,%rsi
    1c46:	48 89 c7             	mov    %rax,%rdi
    1c49:	e8 0e 03 00 00       	callq  1f5c <_ZNSt16allocator_traitsISaIcEE7destroyIcEEvRS0_PT_>
    1c4e:	eb 22                	jmp    1c72 <_ZNSt6vectorIcSaIcEE17_M_realloc_insertIJRKcEEEvN9__gnu_cxx17__normal_iteratorIPcS1_EEDpOT_+0x26e>
    1c50:	48 8b 45 a8          	mov    -0x58(%rbp),%rax
    1c54:	48 89 c7             	mov    %rax,%rdi
    1c57:	e8 f2 fc ff ff       	callq  194e <_ZNSt12_Vector_baseIcSaIcEE19_M_get_Tp_allocatorEv>
    1c5c:	48 89 c2             	mov    %rax,%rdx
    1c5f:	48 8b 4d e8          	mov    -0x18(%rbp),%rcx
    1c63:	48 8b 45 c0          	mov    -0x40(%rbp),%rax
    1c67:	48 89 ce             	mov    %rcx,%rsi
    1c6a:	48 89 c7             	mov    %rax,%rdi
    1c6d:	e8 ea fc ff ff       	callq  195c <_ZSt8_DestroyIPccEvT_S1_RSaIT0_E>
    1c72:	48 8b 45 a8          	mov    -0x58(%rbp),%rax
    1c76:	48 8b 55 e0          	mov    -0x20(%rbp),%rdx
    1c7a:	48 8b 4d c0          	mov    -0x40(%rbp),%rcx
    1c7e:	48 89 ce             	mov    %rcx,%rsi
    1c81:	48 89 c7             	mov    %rax,%rdi
    1c84:	e8 8f fc ff ff       	callq  1918 <_ZNSt12_Vector_baseIcSaIcEE13_M_deallocateEPcm>
    1c89:	e8 b2 f4 ff ff       	callq  1140 <__cxa_rethrow@plt>
    1c8e:	48 89 c3             	mov    %rax,%rbx
    1c91:	e8 da f4 ff ff       	callq  1170 <__cxa_end_catch@plt>
    1c96:	48 89 d8             	mov    %rbx,%rax
    1c99:	48 89 c7             	mov    %rax,%rdi
    1c9c:	e8 ef f4 ff ff       	callq  1190 <_Unwind_Resume@plt>
    1ca1:	48 83 c4 68          	add    $0x68,%rsp
    1ca5:	5b                   	pop    %rbx
    1ca6:	5d                   	pop    %rbp
    1ca7:	c3                   	retq   

0000000000001ca8 <_ZNSt16allocator_traitsISaIcEE10deallocateERS0_Pcm>:
    1ca8:	55                   	push   %rbp
    1ca9:	48 89 e5             	mov    %rsp,%rbp
    1cac:	48 83 ec 20          	sub    $0x20,%rsp
    1cb0:	48 89 7d f8          	mov    %rdi,-0x8(%rbp)
    1cb4:	48 89 75 f0          	mov    %rsi,-0x10(%rbp)
    1cb8:	48 89 55 e8          	mov    %rdx,-0x18(%rbp)
    1cbc:	48 8b 55 e8          	mov    -0x18(%rbp),%rdx
    1cc0:	48 8b 4d f0          	mov    -0x10(%rbp),%rcx
    1cc4:	48 8b 45 f8          	mov    -0x8(%rbp),%rax
    1cc8:	48 89 ce             	mov    %rcx,%rsi
    1ccb:	48 89 c7             	mov    %rax,%rdi
    1cce:	e8 af 02 00 00       	callq  1f82 <_ZN9__gnu_cxx13new_allocatorIcE10deallocateEPcm>
    1cd3:	90                   	nop
    1cd4:	c9                   	leaveq 
    1cd5:	c3                   	retq   

0000000000001cd6 <_ZSt8_DestroyIPcEvT_S1_>:
    1cd6:	55                   	push   %rbp
    1cd7:	48 89 e5             	mov    %rsp,%rbp
    1cda:	48 83 ec 10          	sub    $0x10,%rsp
    1cde:	48 89 7d f8          	mov    %rdi,-0x8(%rbp)
    1ce2:	48 89 75 f0          	mov    %rsi,-0x10(%rbp)
    1ce6:	48 8b 55 f0          	mov    -0x10(%rbp),%rdx
    1cea:	48 8b 45 f8          	mov    -0x8(%rbp),%rax
    1cee:	48 89 d6             	mov    %rdx,%rsi
    1cf1:	48 89 c7             	mov    %rax,%rdi
    1cf4:	e8 ac 02 00 00       	callq  1fa5 <_ZNSt12_Destroy_auxILb1EE9__destroyIPcEEvT_S3_>
    1cf9:	90                   	nop
    1cfa:	c9                   	leaveq 
    1cfb:	c3                   	retq   

0000000000001cfc <_ZSt7forwardIRKcEOT_RNSt16remove_referenceIS2_E4typeE>:
    1cfc:	55                   	push   %rbp
    1cfd:	48 89 e5             	mov    %rsp,%rbp
    1d00:	48 89 7d f8          	mov    %rdi,-0x8(%rbp)
    1d04:	48 8b 45 f8          	mov    -0x8(%rbp),%rax
    1d08:	5d                   	pop    %rbp
    1d09:	c3                   	retq   

0000000000001d0a <_ZN9__gnu_cxx13new_allocatorIcE9constructIcJRKcEEEvPT_DpOT0_>:
    1d0a:	55                   	push   %rbp
    1d0b:	48 89 e5             	mov    %rsp,%rbp
    1d0e:	53                   	push   %rbx
    1d0f:	48 83 ec 28          	sub    $0x28,%rsp
    1d13:	48 89 7d e8          	mov    %rdi,-0x18(%rbp)
    1d17:	48 89 75 e0          	mov    %rsi,-0x20(%rbp)
    1d1b:	48 89 55 d8          	mov    %rdx,-0x28(%rbp)
    1d1f:	48 8b 45 d8          	mov    -0x28(%rbp),%rax
    1d23:	48 89 c7             	mov    %rax,%rdi
    1d26:	e8 d1 ff ff ff       	callq  1cfc <_ZSt7forwardIRKcEOT_RNSt16remove_referenceIS2_E4typeE>
    1d2b:	0f b6 18             	movzbl (%rax),%ebx
    1d2e:	48 8b 45 e0          	mov    -0x20(%rbp),%rax
    1d32:	48 89 c6             	mov    %rax,%rsi
    1d35:	bf 01 00 00 00       	mov    $0x1,%edi
    1d3a:	e8 d6 f9 ff ff       	callq  1715 <_ZnwmPv>
    1d3f:	88 18                	mov    %bl,(%rax)
    1d41:	90                   	nop
    1d42:	48 83 c4 28          	add    $0x28,%rsp
    1d46:	5b                   	pop    %rbx
    1d47:	5d                   	pop    %rbp
    1d48:	c3                   	retq   
    1d49:	90                   	nop

0000000000001d4a <_ZN9__gnu_cxx17__normal_iteratorIPcSt6vectorIcSaIcEEEC1ERKS1_>:
    1d4a:	55                   	push   %rbp
    1d4b:	48 89 e5             	mov    %rsp,%rbp
    1d4e:	48 89 7d f8          	mov    %rdi,-0x8(%rbp)
    1d52:	48 89 75 f0          	mov    %rsi,-0x10(%rbp)
    1d56:	48 8b 45 f0          	mov    -0x10(%rbp),%rax
    1d5a:	48 8b 10             	mov    (%rax),%rdx
    1d5d:	48 8b 45 f8          	mov    -0x8(%rbp),%rax
    1d61:	48 89 10             	mov    %rdx,(%rax)
    1d64:	90                   	nop
    1d65:	5d                   	pop    %rbp
    1d66:	c3                   	retq   
    1d67:	90                   	nop

0000000000001d68 <_ZNKSt6vectorIcSaIcEE12_M_check_lenEmPKc>:
    1d68:	55                   	push   %rbp
    1d69:	48 89 e5             	mov    %rsp,%rbp
    1d6c:	53                   	push   %rbx
    1d6d:	48 83 ec 38          	sub    $0x38,%rsp
    1d71:	48 89 7d d8          	mov    %rdi,-0x28(%rbp)
    1d75:	48 89 75 d0          	mov    %rsi,-0x30(%rbp)
    1d79:	48 89 55 c8          	mov    %rdx,-0x38(%rbp)
    1d7d:	48 8b 45 d8          	mov    -0x28(%rbp),%rax
    1d81:	48 89 c7             	mov    %rax,%rdi
    1d84:	e8 2b 02 00 00       	callq  1fb4 <_ZNKSt6vectorIcSaIcEE8max_sizeEv>
    1d89:	48 89 c3             	mov    %rax,%rbx
    1d8c:	48 8b 45 d8          	mov    -0x28(%rbp),%rax
    1d90:	48 89 c7             	mov    %rax,%rdi
    1d93:	e8 16 fb ff ff       	callq  18ae <_ZNKSt6vectorIcSaIcEE4sizeEv>
    1d98:	48 29 c3             	sub    %rax,%rbx
    1d9b:	48 89 da             	mov    %rbx,%rdx
    1d9e:	48 8b 45 d0          	mov    -0x30(%rbp),%rax
    1da2:	48 39 c2             	cmp    %rax,%rdx
    1da5:	0f 92 c0             	setb   %al
    1da8:	84 c0                	test   %al,%al
    1daa:	74 0c                	je     1db8 <_ZNKSt6vectorIcSaIcEE12_M_check_lenEmPKc+0x50>
    1dac:	48 8b 45 c8          	mov    -0x38(%rbp),%rax
    1db0:	48 89 c7             	mov    %rax,%rdi
    1db3:	e8 b8 f2 ff ff       	callq  1070 <_ZSt20__throw_length_errorPKc@plt>
    1db8:	48 8b 45 d8          	mov    -0x28(%rbp),%rax
    1dbc:	48 89 c7             	mov    %rax,%rdi
    1dbf:	e8 ea fa ff ff       	callq  18ae <_ZNKSt6vectorIcSaIcEE4sizeEv>
    1dc4:	48 89 c3             	mov    %rax,%rbx
    1dc7:	48 8b 45 d8          	mov    -0x28(%rbp),%rax
    1dcb:	48 89 c7             	mov    %rax,%rdi
    1dce:	e8 db fa ff ff       	callq  18ae <_ZNKSt6vectorIcSaIcEE4sizeEv>
    1dd3:	48 89 45 e0          	mov    %rax,-0x20(%rbp)
    1dd7:	48 8d 55 d0          	lea    -0x30(%rbp),%rdx
    1ddb:	48 8d 45 e0          	lea    -0x20(%rbp),%rax
    1ddf:	48 89 d6             	mov    %rdx,%rsi
    1de2:	48 89 c7             	mov    %rax,%rdi
    1de5:	e8 ec 01 00 00       	callq  1fd6 <_ZSt3maxImERKT_S2_S2_>
    1dea:	48 8b 00             	mov    (%rax),%rax
    1ded:	48 01 d8             	add    %rbx,%rax
    1df0:	48 89 45 e8          	mov    %rax,-0x18(%rbp)
    1df4:	48 8b 45 d8          	mov    -0x28(%rbp),%rax
    1df8:	48 89 c7             	mov    %rax,%rdi
    1dfb:	e8 ae fa ff ff       	callq  18ae <_ZNKSt6vectorIcSaIcEE4sizeEv>
    1e00:	48 39 45 e8          	cmp    %rax,-0x18(%rbp)
    1e04:	72 12                	jb     1e18 <_ZNKSt6vectorIcSaIcEE12_M_check_lenEmPKc+0xb0>
    1e06:	48 8b 45 d8          	mov    -0x28(%rbp),%rax
    1e0a:	48 89 c7             	mov    %rax,%rdi
    1e0d:	e8 a2 01 00 00       	callq  1fb4 <_ZNKSt6vectorIcSaIcEE8max_sizeEv>
    1e12:	48 39 45 e8          	cmp    %rax,-0x18(%rbp)
    1e16:	76 0e                	jbe    1e26 <_ZNKSt6vectorIcSaIcEE12_M_check_lenEmPKc+0xbe>
    1e18:	48 8b 45 d8          	mov    -0x28(%rbp),%rax
    1e1c:	48 89 c7             	mov    %rax,%rdi
    1e1f:	e8 90 01 00 00       	callq  1fb4 <_ZNKSt6vectorIcSaIcEE8max_sizeEv>
    1e24:	eb 04                	jmp    1e2a <_ZNKSt6vectorIcSaIcEE12_M_check_lenEmPKc+0xc2>
    1e26:	48 8b 45 e8          	mov    -0x18(%rbp),%rax
    1e2a:	48 83 c4 38          	add    $0x38,%rsp
    1e2e:	5b                   	pop    %rbx
    1e2f:	5d                   	pop    %rbp
    1e30:	c3                   	retq   
    1e31:	90                   	nop

0000000000001e32 <_ZNSt6vectorIcSaIcEE5beginEv>:
    1e32:	55                   	push   %rbp
    1e33:	48 89 e5             	mov    %rsp,%rbp
    1e36:	48 83 ec 20          	sub    $0x20,%rsp
    1e3a:	48 89 7d e8          	mov    %rdi,-0x18(%rbp)
    1e3e:	48 8b 55 e8          	mov    -0x18(%rbp),%rdx
    1e42:	48 8d 45 f8          	lea    -0x8(%rbp),%rax
    1e46:	48 89 d6             	mov    %rdx,%rsi
    1e49:	48 89 c7             	mov    %rax,%rdi
    1e4c:	e8 f9 fe ff ff       	callq  1d4a <_ZN9__gnu_cxx17__normal_iteratorIPcSt6vectorIcSaIcEEEC1ERKS1_>
    1e51:	48 8b 45 f8          	mov    -0x8(%rbp),%rax
    1e55:	c9                   	leaveq 
    1e56:	c3                   	retq   

0000000000001e57 <_ZN9__gnu_cxxmiIPcSt6vectorIcSaIcEEEENS_17__normal_iteratorIT_T0_E15difference_typeERKS8_SB_>:
    1e57:	55                   	push   %rbp
    1e58:	48 89 e5             	mov    %rsp,%rbp
    1e5b:	53                   	push   %rbx
    1e5c:	48 83 ec 18          	sub    $0x18,%rsp
    1e60:	48 89 7d e8          	mov    %rdi,-0x18(%rbp)
    1e64:	48 89 75 e0          	mov    %rsi,-0x20(%rbp)
    1e68:	48 8b 45 e8          	mov    -0x18(%rbp),%rax
    1e6c:	48 89 c7             	mov    %rax,%rdi
    1e6f:	e8 86 00 00 00       	callq  1efa <_ZNK9__gnu_cxx17__normal_iteratorIPcSt6vectorIcSaIcEEE4baseEv>
    1e74:	48 8b 18             	mov    (%rax),%rbx
    1e77:	48 8b 45 e0          	mov    -0x20(%rbp),%rax
    1e7b:	48 89 c7             	mov    %rax,%rdi
    1e7e:	e8 77 00 00 00       	callq  1efa <_ZNK9__gnu_cxx17__normal_iteratorIPcSt6vectorIcSaIcEEE4baseEv>
    1e83:	48 8b 00             	mov    (%rax),%rax
    1e86:	48 29 c3             	sub    %rax,%rbx
    1e89:	48 89 d8             	mov    %rbx,%rax
    1e8c:	48 83 c4 18          	add    $0x18,%rsp
    1e90:	5b                   	pop    %rbx
    1e91:	5d                   	pop    %rbp
    1e92:	c3                   	retq   
    1e93:	90                   	nop

0000000000001e94 <_ZNSt12_Vector_baseIcSaIcEE11_M_allocateEm>:
    1e94:	55                   	push   %rbp
    1e95:	48 89 e5             	mov    %rsp,%rbp
    1e98:	48 83 ec 10          	sub    $0x10,%rsp
    1e9c:	48 89 7d f8          	mov    %rdi,-0x8(%rbp)
    1ea0:	48 89 75 f0          	mov    %rsi,-0x10(%rbp)
    1ea4:	48 83 7d f0 00       	cmpq   $0x0,-0x10(%rbp)
    1ea9:	74 15                	je     1ec0 <_ZNSt12_Vector_baseIcSaIcEE11_M_allocateEm+0x2c>
    1eab:	48 8b 45 f8          	mov    -0x8(%rbp),%rax
    1eaf:	48 8b 55 f0          	mov    -0x10(%rbp),%rdx
    1eb3:	48 89 d6             	mov    %rdx,%rsi
    1eb6:	48 89 c7             	mov    %rax,%rdi
    1eb9:	e8 43 01 00 00       	callq  2001 <_ZNSt16allocator_traitsISaIcEE8allocateERS0_m>
    1ebe:	eb 05                	jmp    1ec5 <_ZNSt12_Vector_baseIcSaIcEE11_M_allocateEm+0x31>
    1ec0:	b8 00 00 00 00       	mov    $0x0,%eax
    1ec5:	c9                   	leaveq 
    1ec6:	c3                   	retq   

0000000000001ec7 <_ZNSt6vectorIcSaIcEE11_S_relocateEPcS2_S2_RS0_>:
    1ec7:	55                   	push   %rbp
    1ec8:	48 89 e5             	mov    %rsp,%rbp
    1ecb:	48 83 ec 30          	sub    $0x30,%rsp
    1ecf:	48 89 7d e8          	mov    %rdi,-0x18(%rbp)
    1ed3:	48 89 75 e0          	mov    %rsi,-0x20(%rbp)
    1ed7:	48 89 55 d8          	mov    %rdx,-0x28(%rbp)
    1edb:	48 89 4d d0          	mov    %rcx,-0x30(%rbp)
    1edf:	48 8b 4d d0          	mov    -0x30(%rbp),%rcx
    1ee3:	48 8b 55 d8          	mov    -0x28(%rbp),%rdx
    1ee7:	48 8b 75 e0          	mov    -0x20(%rbp),%rsi
    1eeb:	48 8b 45 e8          	mov    -0x18(%rbp),%rax
    1eef:	48 89 c7             	mov    %rax,%rdi
    1ef2:	e8 34 01 00 00       	callq  202b <_ZNSt6vectorIcSaIcEE14_S_do_relocateEPcS2_S2_RS0_St17integral_constantIbLb1EE>
    1ef7:	c9                   	leaveq 
    1ef8:	c3                   	retq   
    1ef9:	90                   	nop

0000000000001efa <_ZNK9__gnu_cxx17__normal_iteratorIPcSt6vectorIcSaIcEEE4baseEv>:
    1efa:	55                   	push   %rbp
    1efb:	48 89 e5             	mov    %rsp,%rbp
    1efe:	48 89 7d f8          	mov    %rdi,-0x8(%rbp)
    1f02:	48 8b 45 f8          	mov    -0x8(%rbp),%rax
    1f06:	5d                   	pop    %rbp
    1f07:	c3                   	retq   

0000000000001f08 <_ZSt34__uninitialized_move_if_noexcept_aIPcS0_SaIcEET0_T_S3_S2_RT1_>:
    1f08:	55                   	push   %rbp
    1f09:	48 89 e5             	mov    %rsp,%rbp
    1f0c:	53                   	push   %rbx
    1f0d:	48 83 ec 28          	sub    $0x28,%rsp
    1f11:	48 89 7d e8          	mov    %rdi,-0x18(%rbp)
    1f15:	48 89 75 e0          	mov    %rsi,-0x20(%rbp)
    1f19:	48 89 55 d8          	mov    %rdx,-0x28(%rbp)
    1f1d:	48 89 4d d0          	mov    %rcx,-0x30(%rbp)
    1f21:	48 8b 45 e0          	mov    -0x20(%rbp),%rax
    1f25:	48 89 c7             	mov    %rax,%rdi
    1f28:	e8 30 01 00 00       	callq  205d <_ZSt32__make_move_if_noexcept_iteratorIcSt13move_iteratorIPcEET0_PT_>
    1f2d:	48 89 c3             	mov    %rax,%rbx
    1f30:	48 8b 45 e8          	mov    -0x18(%rbp),%rax
    1f34:	48 89 c7             	mov    %rax,%rdi
    1f37:	e8 21 01 00 00       	callq  205d <_ZSt32__make_move_if_noexcept_iteratorIcSt13move_iteratorIPcEET0_PT_>
    1f3c:	48 89 c7             	mov    %rax,%rdi
    1f3f:	48 8b 55 d0          	mov    -0x30(%rbp),%rdx
    1f43:	48 8b 45 d8          	mov    -0x28(%rbp),%rax
    1f47:	48 89 d1             	mov    %rdx,%rcx
    1f4a:	48 89 c2             	mov    %rax,%rdx
    1f4d:	48 89 de             	mov    %rbx,%rsi
    1f50:	e8 2d 01 00 00       	callq  2082 <_ZSt22__uninitialized_copy_aISt13move_iteratorIPcES1_cET0_T_S4_S3_RSaIT1_E>
    1f55:	48 83 c4 28          	add    $0x28,%rsp
    1f59:	5b                   	pop    %rbx
    1f5a:	5d                   	pop    %rbp
    1f5b:	c3                   	retq   

0000000000001f5c <_ZNSt16allocator_traitsISaIcEE7destroyIcEEvRS0_PT_>:
    1f5c:	55                   	push   %rbp
    1f5d:	48 89 e5             	mov    %rsp,%rbp
    1f60:	48 83 ec 10          	sub    $0x10,%rsp
    1f64:	48 89 7d f8          	mov    %rdi,-0x8(%rbp)
    1f68:	48 89 75 f0          	mov    %rsi,-0x10(%rbp)
    1f6c:	48 8b 55 f0          	mov    -0x10(%rbp),%rdx
    1f70:	48 8b 45 f8          	mov    -0x8(%rbp),%rax
    1f74:	48 89 d6             	mov    %rdx,%rsi
    1f77:	48 89 c7             	mov    %rax,%rdi
    1f7a:	e8 35 01 00 00       	callq  20b4 <_ZN9__gnu_cxx13new_allocatorIcE7destroyIcEEvPT_>
    1f7f:	90                   	nop
    1f80:	c9                   	leaveq 
    1f81:	c3                   	retq   

0000000000001f82 <_ZN9__gnu_cxx13new_allocatorIcE10deallocateEPcm>:
    1f82:	55                   	push   %rbp
    1f83:	48 89 e5             	mov    %rsp,%rbp
    1f86:	48 83 ec 20          	sub    $0x20,%rsp
    1f8a:	48 89 7d f8          	mov    %rdi,-0x8(%rbp)
    1f8e:	48 89 75 f0          	mov    %rsi,-0x10(%rbp)
    1f92:	48 89 55 e8          	mov    %rdx,-0x18(%rbp)
    1f96:	48 8b 45 f0          	mov    -0x10(%rbp),%rax
    1f9a:	48 89 c7             	mov    %rax,%rdi
    1f9d:	e8 2e f1 ff ff       	callq  10d0 <_ZdlPv@plt>
    1fa2:	90                   	nop
    1fa3:	c9                   	leaveq 
    1fa4:	c3                   	retq   

0000000000001fa5 <_ZNSt12_Destroy_auxILb1EE9__destroyIPcEEvT_S3_>:
    1fa5:	55                   	push   %rbp
    1fa6:	48 89 e5             	mov    %rsp,%rbp
    1fa9:	48 89 7d f8          	mov    %rdi,-0x8(%rbp)
    1fad:	48 89 75 f0          	mov    %rsi,-0x10(%rbp)
    1fb1:	90                   	nop
    1fb2:	5d                   	pop    %rbp
    1fb3:	c3                   	retq   

0000000000001fb4 <_ZNKSt6vectorIcSaIcEE8max_sizeEv>:
    1fb4:	55                   	push   %rbp
    1fb5:	48 89 e5             	mov    %rsp,%rbp
    1fb8:	48 83 ec 10          	sub    $0x10,%rsp
    1fbc:	48 89 7d f8          	mov    %rdi,-0x8(%rbp)
    1fc0:	48 8b 45 f8          	mov    -0x8(%rbp),%rax
    1fc4:	48 89 c7             	mov    %rax,%rdi
    1fc7:	e8 54 01 00 00       	callq  2120 <_ZNKSt12_Vector_baseIcSaIcEE19_M_get_Tp_allocatorEv>
    1fcc:	48 89 c7             	mov    %rax,%rdi
    1fcf:	e8 09 01 00 00       	callq  20dd <_ZNSt6vectorIcSaIcEE11_S_max_sizeERKS0_>
    1fd4:	c9                   	leaveq 
    1fd5:	c3                   	retq   

0000000000001fd6 <_ZSt3maxImERKT_S2_S2_>:
    1fd6:	55                   	push   %rbp
    1fd7:	48 89 e5             	mov    %rsp,%rbp
    1fda:	48 89 7d f8          	mov    %rdi,-0x8(%rbp)
    1fde:	48 89 75 f0          	mov    %rsi,-0x10(%rbp)
    1fe2:	48 8b 45 f8          	mov    -0x8(%rbp),%rax
    1fe6:	48 8b 10             	mov    (%rax),%rdx
    1fe9:	48 8b 45 f0          	mov    -0x10(%rbp),%rax
    1fed:	48 8b 00             	mov    (%rax),%rax
    1ff0:	48 39 c2             	cmp    %rax,%rdx
    1ff3:	73 06                	jae    1ffb <_ZSt3maxImERKT_S2_S2_+0x25>
    1ff5:	48 8b 45 f0          	mov    -0x10(%rbp),%rax
    1ff9:	eb 04                	jmp    1fff <_ZSt3maxImERKT_S2_S2_+0x29>
    1ffb:	48 8b 45 f8          	mov    -0x8(%rbp),%rax
    1fff:	5d                   	pop    %rbp
    2000:	c3                   	retq   

0000000000002001 <_ZNSt16allocator_traitsISaIcEE8allocateERS0_m>:
    2001:	55                   	push   %rbp
    2002:	48 89 e5             	mov    %rsp,%rbp
    2005:	48 83 ec 10          	sub    $0x10,%rsp
    2009:	48 89 7d f8          	mov    %rdi,-0x8(%rbp)
    200d:	48 89 75 f0          	mov    %rsi,-0x10(%rbp)
    2011:	48 8b 4d f0          	mov    -0x10(%rbp),%rcx
    2015:	48 8b 45 f8          	mov    -0x8(%rbp),%rax
    2019:	ba 00 00 00 00       	mov    $0x0,%edx
    201e:	48 89 ce             	mov    %rcx,%rsi
    2021:	48 89 c7             	mov    %rax,%rdi
    2024:	e8 05 01 00 00       	callq  212e <_ZN9__gnu_cxx13new_allocatorIcE8allocateEmPKv>
    2029:	c9                   	leaveq 
    202a:	c3                   	retq   

000000000000202b <_ZNSt6vectorIcSaIcEE14_S_do_relocateEPcS2_S2_RS0_St17integral_constantIbLb1EE>:
    202b:	55                   	push   %rbp
    202c:	48 89 e5             	mov    %rsp,%rbp
    202f:	48 83 ec 20          	sub    $0x20,%rsp
    2033:	48 89 7d f8          	mov    %rdi,-0x8(%rbp)
    2037:	48 89 75 f0          	mov    %rsi,-0x10(%rbp)
    203b:	48 89 55 e8          	mov    %rdx,-0x18(%rbp)
    203f:	48 89 4d e0          	mov    %rcx,-0x20(%rbp)
    2043:	48 8b 4d e0          	mov    -0x20(%rbp),%rcx
    2047:	48 8b 55 e8          	mov    -0x18(%rbp),%rdx
    204b:	48 8b 75 f0          	mov    -0x10(%rbp),%rsi
    204f:	48 8b 45 f8          	mov    -0x8(%rbp),%rax
    2053:	48 89 c7             	mov    %rax,%rdi
    2056:	e8 11 01 00 00       	callq  216c <_ZSt12__relocate_aIPcS0_SaIcEET0_T_S3_S2_RT1_>
    205b:	c9                   	leaveq 
    205c:	c3                   	retq   

000000000000205d <_ZSt32__make_move_if_noexcept_iteratorIcSt13move_iteratorIPcEET0_PT_>:
    205d:	55                   	push   %rbp
    205e:	48 89 e5             	mov    %rsp,%rbp
    2061:	48 83 ec 20          	sub    $0x20,%rsp
    2065:	48 89 7d e8          	mov    %rdi,-0x18(%rbp)
    2069:	48 8b 55 e8          	mov    -0x18(%rbp),%rdx
    206d:	48 8d 45 f8          	lea    -0x8(%rbp),%rax
    2071:	48 89 d6             	mov    %rdx,%rsi
    2074:	48 89 c7             	mov    %rax,%rdi
    2077:	e8 54 01 00 00       	callq  21d0 <_ZNSt13move_iteratorIPcEC1ES0_>
    207c:	48 8b 45 f8          	mov    -0x8(%rbp),%rax
    2080:	c9                   	leaveq 
    2081:	c3                   	retq   

0000000000002082 <_ZSt22__uninitialized_copy_aISt13move_iteratorIPcES1_cET0_T_S4_S3_RSaIT1_E>:
    2082:	55                   	push   %rbp
    2083:	48 89 e5             	mov    %rsp,%rbp
    2086:	48 83 ec 20          	sub    $0x20,%rsp
    208a:	48 89 7d f8          	mov    %rdi,-0x8(%rbp)
    208e:	48 89 75 f0          	mov    %rsi,-0x10(%rbp)
    2092:	48 89 55 e8          	mov    %rdx,-0x18(%rbp)
    2096:	48 89 4d e0          	mov    %rcx,-0x20(%rbp)
    209a:	48 8b 55 e8          	mov    -0x18(%rbp),%rdx
    209e:	48 8b 4d f0          	mov    -0x10(%rbp),%rcx
    20a2:	48 8b 45 f8          	mov    -0x8(%rbp),%rax
    20a6:	48 89 ce             	mov    %rcx,%rsi
    20a9:	48 89 c7             	mov    %rax,%rdi
    20ac:	e8 39 01 00 00       	callq  21ea <_ZSt18uninitialized_copyISt13move_iteratorIPcES1_ET0_T_S4_S3_>
    20b1:	c9                   	leaveq 
    20b2:	c3                   	retq   
    20b3:	90                   	nop

00000000000020b4 <_ZN9__gnu_cxx13new_allocatorIcE7destroyIcEEvPT_>:
    20b4:	55                   	push   %rbp
    20b5:	48 89 e5             	mov    %rsp,%rbp
    20b8:	48 89 7d f8          	mov    %rdi,-0x8(%rbp)
    20bc:	48 89 75 f0          	mov    %rsi,-0x10(%rbp)
    20c0:	90                   	nop
    20c1:	5d                   	pop    %rbp
    20c2:	c3                   	retq   

00000000000020c3 <_ZNSt16allocator_traitsISaIcEE8max_sizeERKS0_>:
    20c3:	55                   	push   %rbp
    20c4:	48 89 e5             	mov    %rsp,%rbp
    20c7:	48 83 ec 10          	sub    $0x10,%rsp
    20cb:	48 89 7d f8          	mov    %rdi,-0x8(%rbp)
    20cf:	48 8b 45 f8          	mov    -0x8(%rbp),%rax
    20d3:	48 89 c7             	mov    %rax,%rdi
    20d6:	e8 41 01 00 00       	callq  221c <_ZNK9__gnu_cxx13new_allocatorIcE8max_sizeEv>
    20db:	c9                   	leaveq 
    20dc:	c3                   	retq   

00000000000020dd <_ZNSt6vectorIcSaIcEE11_S_max_sizeERKS0_>:
    20dd:	55                   	push   %rbp
    20de:	48 89 e5             	mov    %rsp,%rbp
    20e1:	48 83 ec 20          	sub    $0x20,%rsp
    20e5:	48 89 7d e8          	mov    %rdi,-0x18(%rbp)
    20e9:	48 b8 ff ff ff ff ff 	movabs $0x7fffffffffffffff,%rax
    20f0:	ff ff 7f 
    20f3:	48 89 45 f8          	mov    %rax,-0x8(%rbp)
    20f7:	48 8b 45 e8          	mov    -0x18(%rbp),%rax
    20fb:	48 89 c7             	mov    %rax,%rdi
    20fe:	e8 c0 ff ff ff       	callq  20c3 <_ZNSt16allocator_traitsISaIcEE8max_sizeERKS0_>
    2103:	48 89 45 f0          	mov    %rax,-0x10(%rbp)
    2107:	48 8d 55 f0          	lea    -0x10(%rbp),%rdx
    210b:	48 8d 45 f8          	lea    -0x8(%rbp),%rax
    210f:	48 89 d6             	mov    %rdx,%rsi
    2112:	48 89 c7             	mov    %rax,%rdi
    2115:	e8 16 01 00 00       	callq  2230 <_ZSt3minImERKT_S2_S2_>
    211a:	48 8b 00             	mov    (%rax),%rax
    211d:	c9                   	leaveq 
    211e:	c3                   	retq   
    211f:	90                   	nop

0000000000002120 <_ZNKSt12_Vector_baseIcSaIcEE19_M_get_Tp_allocatorEv>:
    2120:	55                   	push   %rbp
    2121:	48 89 e5             	mov    %rsp,%rbp
    2124:	48 89 7d f8          	mov    %rdi,-0x8(%rbp)
    2128:	48 8b 45 f8          	mov    -0x8(%rbp),%rax
    212c:	5d                   	pop    %rbp
    212d:	c3                   	retq   

000000000000212e <_ZN9__gnu_cxx13new_allocatorIcE8allocateEmPKv>:
    212e:	55                   	push   %rbp
    212f:	48 89 e5             	mov    %rsp,%rbp
    2132:	48 83 ec 20          	sub    $0x20,%rsp
    2136:	48 89 7d f8          	mov    %rdi,-0x8(%rbp)
    213a:	48 89 75 f0          	mov    %rsi,-0x10(%rbp)
    213e:	48 89 55 e8          	mov    %rdx,-0x18(%rbp)
    2142:	48 8b 45 f8          	mov    -0x8(%rbp),%rax
    2146:	48 89 c7             	mov    %rax,%rdi
    2149:	e8 ce 00 00 00       	callq  221c <_ZNK9__gnu_cxx13new_allocatorIcE8max_sizeEv>
    214e:	48 39 45 f0          	cmp    %rax,-0x10(%rbp)
    2152:	0f 97 c0             	seta   %al
    2155:	84 c0                	test   %al,%al
    2157:	74 05                	je     215e <_ZN9__gnu_cxx13new_allocatorIcE8allocateEmPKv+0x30>
    2159:	e8 e2 ee ff ff       	callq  1040 <_ZSt17__throw_bad_allocv@plt>
    215e:	48 8b 45 f0          	mov    -0x10(%rbp),%rax
    2162:	48 89 c7             	mov    %rax,%rdi
    2165:	e8 86 ef ff ff       	callq  10f0 <_Znwm@plt>
    216a:	c9                   	leaveq 
    216b:	c3                   	retq   

000000000000216c <_ZSt12__relocate_aIPcS0_SaIcEET0_T_S3_S2_RT1_>:
    216c:	55                   	push   %rbp
    216d:	48 89 e5             	mov    %rsp,%rbp
    2170:	41 54                	push   %r12
    2172:	53                   	push   %rbx
    2173:	48 83 ec 20          	sub    $0x20,%rsp
    2177:	48 89 7d e8          	mov    %rdi,-0x18(%rbp)
    217b:	48 89 75 e0          	mov    %rsi,-0x20(%rbp)
    217f:	48 89 55 d8          	mov    %rdx,-0x28(%rbp)
    2183:	48 89 4d d0          	mov    %rcx,-0x30(%rbp)
    2187:	48 8b 45 d8          	mov    -0x28(%rbp),%rax
    218b:	48 89 c7             	mov    %rax,%rdi
    218e:	e8 c8 00 00 00       	callq  225b <_ZSt12__niter_baseIPcET_S1_>
    2193:	49 89 c4             	mov    %rax,%r12
    2196:	48 8b 45 e0          	mov    -0x20(%rbp),%rax
    219a:	48 89 c7             	mov    %rax,%rdi
    219d:	e8 b9 00 00 00       	callq  225b <_ZSt12__niter_baseIPcET_S1_>
    21a2:	48 89 c3             	mov    %rax,%rbx
    21a5:	48 8b 45 e8          	mov    -0x18(%rbp),%rax
    21a9:	48 89 c7             	mov    %rax,%rdi
    21ac:	e8 aa 00 00 00       	callq  225b <_ZSt12__niter_baseIPcET_S1_>
    21b1:	48 89 c7             	mov    %rax,%rdi
    21b4:	48 8b 45 d0          	mov    -0x30(%rbp),%rax
    21b8:	48 89 c1             	mov    %rax,%rcx
    21bb:	4c 89 e2             	mov    %r12,%rdx
    21be:	48 89 de             	mov    %rbx,%rsi
    21c1:	e8 a3 00 00 00       	callq  2269 <_ZSt14__relocate_a_1IccENSt9enable_ifIXsrSt24__is_bitwise_relocatableIT_vE5valueEPS2_E4typeES4_S4_S4_RSaIT0_E>
    21c6:	48 83 c4 20          	add    $0x20,%rsp
    21ca:	5b                   	pop    %rbx
    21cb:	41 5c                	pop    %r12
    21cd:	5d                   	pop    %rbp
    21ce:	c3                   	retq   
    21cf:	90                   	nop

00000000000021d0 <_ZNSt13move_iteratorIPcEC1ES0_>:
    21d0:	55                   	push   %rbp
    21d1:	48 89 e5             	mov    %rsp,%rbp
    21d4:	48 89 7d f8          	mov    %rdi,-0x8(%rbp)
    21d8:	48 89 75 f0          	mov    %rsi,-0x10(%rbp)
    21dc:	48 8b 45 f8          	mov    -0x8(%rbp),%rax
    21e0:	48 8b 55 f0          	mov    -0x10(%rbp),%rdx
    21e4:	48 89 10             	mov    %rdx,(%rax)
    21e7:	90                   	nop
    21e8:	5d                   	pop    %rbp
    21e9:	c3                   	retq   

00000000000021ea <_ZSt18uninitialized_copyISt13move_iteratorIPcES1_ET0_T_S4_S3_>:
    21ea:	55                   	push   %rbp
    21eb:	48 89 e5             	mov    %rsp,%rbp
    21ee:	48 83 ec 30          	sub    $0x30,%rsp
    21f2:	48 89 7d e8          	mov    %rdi,-0x18(%rbp)
    21f6:	48 89 75 e0          	mov    %rsi,-0x20(%rbp)
    21fa:	48 89 55 d8          	mov    %rdx,-0x28(%rbp)
    21fe:	c6 45 ff 01          	movb   $0x1,-0x1(%rbp)
    2202:	48 8b 55 d8          	mov    -0x28(%rbp),%rdx
    2206:	48 8b 4d e0          	mov    -0x20(%rbp),%rcx
    220a:	48 8b 45 e8          	mov    -0x18(%rbp),%rax
    220e:	48 89 ce             	mov    %rcx,%rsi
    2211:	48 89 c7             	mov    %rax,%rdi
    2214:	e8 9f 00 00 00       	callq  22b8 <_ZNSt20__uninitialized_copyILb1EE13__uninit_copyISt13move_iteratorIPcES3_EET0_T_S6_S5_>
    2219:	c9                   	leaveq 
    221a:	c3                   	retq   
    221b:	90                   	nop

000000000000221c <_ZNK9__gnu_cxx13new_allocatorIcE8max_sizeEv>:
    221c:	55                   	push   %rbp
    221d:	48 89 e5             	mov    %rsp,%rbp
    2220:	48 89 7d f8          	mov    %rdi,-0x8(%rbp)
    2224:	48 b8 ff ff ff ff ff 	movabs $0x7fffffffffffffff,%rax
    222b:	ff ff 7f 
    222e:	5d                   	pop    %rbp
    222f:	c3                   	retq   

0000000000002230 <_ZSt3minImERKT_S2_S2_>:
    2230:	55                   	push   %rbp
    2231:	48 89 e5             	mov    %rsp,%rbp
    2234:	48 89 7d f8          	mov    %rdi,-0x8(%rbp)
    2238:	48 89 75 f0          	mov    %rsi,-0x10(%rbp)
    223c:	48 8b 45 f0          	mov    -0x10(%rbp),%rax
    2240:	48 8b 10             	mov    (%rax),%rdx
    2243:	48 8b 45 f8          	mov    -0x8(%rbp),%rax
    2247:	48 8b 00             	mov    (%rax),%rax
    224a:	48 39 c2             	cmp    %rax,%rdx
    224d:	73 06                	jae    2255 <_ZSt3minImERKT_S2_S2_+0x25>
    224f:	48 8b 45 f0          	mov    -0x10(%rbp),%rax
    2253:	eb 04                	jmp    2259 <_ZSt3minImERKT_S2_S2_+0x29>
    2255:	48 8b 45 f8          	mov    -0x8(%rbp),%rax
    2259:	5d                   	pop    %rbp
    225a:	c3                   	retq   

000000000000225b <_ZSt12__niter_baseIPcET_S1_>:
    225b:	55                   	push   %rbp
    225c:	48 89 e5             	mov    %rsp,%rbp
    225f:	48 89 7d f8          	mov    %rdi,-0x8(%rbp)
    2263:	48 8b 45 f8          	mov    -0x8(%rbp),%rax
    2267:	5d                   	pop    %rbp
    2268:	c3                   	retq   

0000000000002269 <_ZSt14__relocate_a_1IccENSt9enable_ifIXsrSt24__is_bitwise_relocatableIT_vE5valueEPS2_E4typeES4_S4_S4_RSaIT0_E>:
    2269:	55                   	push   %rbp
    226a:	48 89 e5             	mov    %rsp,%rbp
    226d:	48 83 ec 30          	sub    $0x30,%rsp
    2271:	48 89 7d e8          	mov    %rdi,-0x18(%rbp)
    2275:	48 89 75 e0          	mov    %rsi,-0x20(%rbp)
    2279:	48 89 55 d8          	mov    %rdx,-0x28(%rbp)
    227d:	48 89 4d d0          	mov    %rcx,-0x30(%rbp)
    2281:	48 8b 45 e0          	mov    -0x20(%rbp),%rax
    2285:	48 2b 45 e8          	sub    -0x18(%rbp),%rax
    2289:	48 89 45 f8          	mov    %rax,-0x8(%rbp)
    228d:	48 83 7d f8 00       	cmpq   $0x0,-0x8(%rbp)
    2292:	7e 17                	jle    22ab <_ZSt14__relocate_a_1IccENSt9enable_ifIXsrSt24__is_bitwise_relocatableIT_vE5valueEPS2_E4typeES4_S4_S4_RSaIT0_E+0x42>
    2294:	48 8b 55 f8          	mov    -0x8(%rbp),%rdx
    2298:	48 8b 4d e8          	mov    -0x18(%rbp),%rcx
    229c:	48 8b 45 d8          	mov    -0x28(%rbp),%rax
    22a0:	48 89 ce             	mov    %rcx,%rsi
    22a3:	48 89 c7             	mov    %rax,%rdi
    22a6:	e8 b5 ee ff ff       	callq  1160 <memmove@plt>
    22ab:	48 8b 55 f8          	mov    -0x8(%rbp),%rdx
    22af:	48 8b 45 d8          	mov    -0x28(%rbp),%rax
    22b3:	48 01 d0             	add    %rdx,%rax
    22b6:	c9                   	leaveq 
    22b7:	c3                   	retq   

00000000000022b8 <_ZNSt20__uninitialized_copyILb1EE13__uninit_copyISt13move_iteratorIPcES3_EET0_T_S6_S5_>:
    22b8:	55                   	push   %rbp
    22b9:	48 89 e5             	mov    %rsp,%rbp
    22bc:	48 83 ec 20          	sub    $0x20,%rsp
    22c0:	48 89 7d f8          	mov    %rdi,-0x8(%rbp)
    22c4:	48 89 75 f0          	mov    %rsi,-0x10(%rbp)
    22c8:	48 89 55 e8          	mov    %rdx,-0x18(%rbp)
    22cc:	48 8b 55 e8          	mov    -0x18(%rbp),%rdx
    22d0:	48 8b 4d f0          	mov    -0x10(%rbp),%rcx
    22d4:	48 8b 45 f8          	mov    -0x8(%rbp),%rax
    22d8:	48 89 ce             	mov    %rcx,%rsi
    22db:	48 89 c7             	mov    %rax,%rdi
    22de:	e8 02 00 00 00       	callq  22e5 <_ZSt4copyISt13move_iteratorIPcES1_ET0_T_S4_S3_>
    22e3:	c9                   	leaveq 
    22e4:	c3                   	retq   

00000000000022e5 <_ZSt4copyISt13move_iteratorIPcES1_ET0_T_S4_S3_>:
    22e5:	55                   	push   %rbp
    22e6:	48 89 e5             	mov    %rsp,%rbp
    22e9:	53                   	push   %rbx
    22ea:	48 83 ec 28          	sub    $0x28,%rsp
    22ee:	48 89 7d e8          	mov    %rdi,-0x18(%rbp)
    22f2:	48 89 75 e0          	mov    %rsi,-0x20(%rbp)
    22f6:	48 89 55 d8          	mov    %rdx,-0x28(%rbp)
    22fa:	48 8b 45 e0          	mov    -0x20(%rbp),%rax
    22fe:	48 89 c7             	mov    %rax,%rdi
    2301:	e8 2b 00 00 00       	callq  2331 <_ZSt12__miter_baseIPcEDTcl12__miter_basecldtfp_4baseEEESt13move_iteratorIT_E>
    2306:	48 89 c3             	mov    %rax,%rbx
    2309:	48 8b 45 e8          	mov    -0x18(%rbp),%rax
    230d:	48 89 c7             	mov    %rax,%rdi
    2310:	e8 1c 00 00 00       	callq  2331 <_ZSt12__miter_baseIPcEDTcl12__miter_basecldtfp_4baseEEESt13move_iteratorIT_E>
    2315:	48 89 c1             	mov    %rax,%rcx
    2318:	48 8b 45 d8          	mov    -0x28(%rbp),%rax
    231c:	48 89 c2             	mov    %rax,%rdx
    231f:	48 89 de             	mov    %rbx,%rsi
    2322:	48 89 cf             	mov    %rcx,%rdi
    2325:	e8 29 00 00 00       	callq  2353 <_ZSt14__copy_move_a2ILb1EPcS0_ET1_T0_S2_S1_>
    232a:	48 83 c4 28          	add    $0x28,%rsp
    232e:	5b                   	pop    %rbx
    232f:	5d                   	pop    %rbp
    2330:	c3                   	retq   

0000000000002331 <_ZSt12__miter_baseIPcEDTcl12__miter_basecldtfp_4baseEEESt13move_iteratorIT_E>:
    2331:	55                   	push   %rbp
    2332:	48 89 e5             	mov    %rsp,%rbp
    2335:	48 83 ec 10          	sub    $0x10,%rsp
    2339:	48 89 7d f8          	mov    %rdi,-0x8(%rbp)
    233d:	48 8d 45 f8          	lea    -0x8(%rbp),%rax
    2341:	48 89 c7             	mov    %rax,%rdi
    2344:	e8 75 00 00 00       	callq  23be <_ZNKSt13move_iteratorIPcE4baseEv>
    2349:	48 89 c7             	mov    %rax,%rdi
    234c:	e8 7e 00 00 00       	callq  23cf <_ZSt12__miter_baseIPcET_S1_>
    2351:	c9                   	leaveq 
    2352:	c3                   	retq   

0000000000002353 <_ZSt14__copy_move_a2ILb1EPcS0_ET1_T0_S2_S1_>:
    2353:	55                   	push   %rbp
    2354:	48 89 e5             	mov    %rsp,%rbp
    2357:	41 54                	push   %r12
    2359:	53                   	push   %rbx
    235a:	48 83 ec 20          	sub    $0x20,%rsp
    235e:	48 89 7d e8          	mov    %rdi,-0x18(%rbp)
    2362:	48 89 75 e0          	mov    %rsi,-0x20(%rbp)
    2366:	48 89 55 d8          	mov    %rdx,-0x28(%rbp)
    236a:	48 8b 45 d8          	mov    -0x28(%rbp),%rax
    236e:	48 89 c7             	mov    %rax,%rdi
    2371:	e8 e5 fe ff ff       	callq  225b <_ZSt12__niter_baseIPcET_S1_>
    2376:	49 89 c4             	mov    %rax,%r12
    2379:	48 8b 45 e0          	mov    -0x20(%rbp),%rax
    237d:	48 89 c7             	mov    %rax,%rdi
    2380:	e8 d6 fe ff ff       	callq  225b <_ZSt12__niter_baseIPcET_S1_>
    2385:	48 89 c3             	mov    %rax,%rbx
    2388:	48 8b 45 e8          	mov    -0x18(%rbp),%rax
    238c:	48 89 c7             	mov    %rax,%rdi
    238f:	e8 c7 fe ff ff       	callq  225b <_ZSt12__niter_baseIPcET_S1_>
    2394:	4c 89 e2             	mov    %r12,%rdx
    2397:	48 89 de             	mov    %rbx,%rsi
    239a:	48 89 c7             	mov    %rax,%rdi
    239d:	e8 3b 00 00 00       	callq  23dd <_ZSt13__copy_move_aILb1EPcS0_ET1_T0_S2_S1_>
    23a2:	48 89 c2             	mov    %rax,%rdx
    23a5:	48 8d 45 d8          	lea    -0x28(%rbp),%rax
    23a9:	48 89 d6             	mov    %rdx,%rsi
    23ac:	48 89 c7             	mov    %rax,%rdi
    23af:	e8 5a 00 00 00       	callq  240e <_ZSt12__niter_wrapIPcET_RKS1_S1_>
    23b4:	48 83 c4 20          	add    $0x20,%rsp
    23b8:	5b                   	pop    %rbx
    23b9:	41 5c                	pop    %r12
    23bb:	5d                   	pop    %rbp
    23bc:	c3                   	retq   
    23bd:	90                   	nop

00000000000023be <_ZNKSt13move_iteratorIPcE4baseEv>:
    23be:	55                   	push   %rbp
    23bf:	48 89 e5             	mov    %rsp,%rbp
    23c2:	48 89 7d f8          	mov    %rdi,-0x8(%rbp)
    23c6:	48 8b 45 f8          	mov    -0x8(%rbp),%rax
    23ca:	48 8b 00             	mov    (%rax),%rax
    23cd:	5d                   	pop    %rbp
    23ce:	c3                   	retq   

00000000000023cf <_ZSt12__miter_baseIPcET_S1_>:
    23cf:	55                   	push   %rbp
    23d0:	48 89 e5             	mov    %rsp,%rbp
    23d3:	48 89 7d f8          	mov    %rdi,-0x8(%rbp)
    23d7:	48 8b 45 f8          	mov    -0x8(%rbp),%rax
    23db:	5d                   	pop    %rbp
    23dc:	c3                   	retq   

00000000000023dd <_ZSt13__copy_move_aILb1EPcS0_ET1_T0_S2_S1_>:
    23dd:	55                   	push   %rbp
    23de:	48 89 e5             	mov    %rsp,%rbp
    23e1:	48 83 ec 30          	sub    $0x30,%rsp
    23e5:	48 89 7d e8          	mov    %rdi,-0x18(%rbp)
    23e9:	48 89 75 e0          	mov    %rsi,-0x20(%rbp)
    23ed:	48 89 55 d8          	mov    %rdx,-0x28(%rbp)
    23f1:	c6 45 ff 01          	movb   $0x1,-0x1(%rbp)
    23f5:	48 8b 55 d8          	mov    -0x28(%rbp),%rdx
    23f9:	48 8b 4d e0          	mov    -0x20(%rbp),%rcx
    23fd:	48 8b 45 e8          	mov    -0x18(%rbp),%rax
    2401:	48 89 ce             	mov    %rcx,%rsi
    2404:	48 89 c7             	mov    %rax,%rdi
    2407:	e8 14 00 00 00       	callq  2420 <_ZNSt11__copy_moveILb1ELb1ESt26random_access_iterator_tagE8__copy_mIcEEPT_PKS3_S6_S4_>
    240c:	c9                   	leaveq 
    240d:	c3                   	retq   

000000000000240e <_ZSt12__niter_wrapIPcET_RKS1_S1_>:
    240e:	55                   	push   %rbp
    240f:	48 89 e5             	mov    %rsp,%rbp
    2412:	48 89 7d f8          	mov    %rdi,-0x8(%rbp)
    2416:	48 89 75 f0          	mov    %rsi,-0x10(%rbp)
    241a:	48 8b 45 f0          	mov    -0x10(%rbp),%rax
    241e:	5d                   	pop    %rbp
    241f:	c3                   	retq   

0000000000002420 <_ZNSt11__copy_moveILb1ELb1ESt26random_access_iterator_tagE8__copy_mIcEEPT_PKS3_S6_S4_>:
    2420:	55                   	push   %rbp
    2421:	48 89 e5             	mov    %rsp,%rbp
    2424:	48 83 ec 30          	sub    $0x30,%rsp
    2428:	48 89 7d e8          	mov    %rdi,-0x18(%rbp)
    242c:	48 89 75 e0          	mov    %rsi,-0x20(%rbp)
    2430:	48 89 55 d8          	mov    %rdx,-0x28(%rbp)
    2434:	48 8b 45 e0          	mov    -0x20(%rbp),%rax
    2438:	48 2b 45 e8          	sub    -0x18(%rbp),%rax
    243c:	48 89 45 f8          	mov    %rax,-0x8(%rbp)
    2440:	48 83 7d f8 00       	cmpq   $0x0,-0x8(%rbp)
    2445:	74 17                	je     245e <_ZNSt11__copy_moveILb1ELb1ESt26random_access_iterator_tagE8__copy_mIcEEPT_PKS3_S6_S4_+0x3e>
    2447:	48 8b 55 f8          	mov    -0x8(%rbp),%rdx
    244b:	48 8b 4d e8          	mov    -0x18(%rbp),%rcx
    244f:	48 8b 45 d8          	mov    -0x28(%rbp),%rax
    2453:	48 89 ce             	mov    %rcx,%rsi
    2456:	48 89 c7             	mov    %rax,%rdi
    2459:	e8 02 ed ff ff       	callq  1160 <memmove@plt>
    245e:	48 8b 55 f8          	mov    -0x8(%rbp),%rdx
    2462:	48 8b 45 d8          	mov    -0x28(%rbp),%rax
    2466:	48 01 d0             	add    %rdx,%rax
    2469:	c9                   	leaveq 
    246a:	c3                   	retq   
    246b:	0f 1f 44 00 00       	nopl   0x0(%rax,%rax,1)

0000000000002470 <__libc_csu_init>:
    2470:	41 57                	push   %r15
    2472:	4c 8d 3d 3f 29 00 00 	lea    0x293f(%rip),%r15        # 4db8 <__frame_dummy_init_array_entry>
    2479:	41 56                	push   %r14
    247b:	49 89 d6             	mov    %rdx,%r14
    247e:	41 55                	push   %r13
    2480:	49 89 f5             	mov    %rsi,%r13
    2483:	41 54                	push   %r12
    2485:	41 89 fc             	mov    %edi,%r12d
    2488:	55                   	push   %rbp
    2489:	48 8d 2d 38 29 00 00 	lea    0x2938(%rip),%rbp        # 4dc8 <__do_global_dtors_aux_fini_array_entry>
    2490:	53                   	push   %rbx
    2491:	4c 29 fd             	sub    %r15,%rbp
    2494:	48 83 ec 08          	sub    $0x8,%rsp
    2498:	e8 63 eb ff ff       	callq  1000 <_init>
    249d:	48 c1 fd 03          	sar    $0x3,%rbp
    24a1:	74 1b                	je     24be <__libc_csu_init+0x4e>
    24a3:	31 db                	xor    %ebx,%ebx
    24a5:	0f 1f 00             	nopl   (%rax)
    24a8:	4c 89 f2             	mov    %r14,%rdx
    24ab:	4c 89 ee             	mov    %r13,%rsi
    24ae:	44 89 e7             	mov    %r12d,%edi
    24b1:	41 ff 14 df          	callq  *(%r15,%rbx,8)
    24b5:	48 83 c3 01          	add    $0x1,%rbx
    24b9:	48 39 dd             	cmp    %rbx,%rbp
    24bc:	75 ea                	jne    24a8 <__libc_csu_init+0x38>
    24be:	48 83 c4 08          	add    $0x8,%rsp
    24c2:	5b                   	pop    %rbx
    24c3:	5d                   	pop    %rbp
    24c4:	41 5c                	pop    %r12
    24c6:	41 5d                	pop    %r13
    24c8:	41 5e                	pop    %r14
    24ca:	41 5f                	pop    %r15
    24cc:	c3                   	retq   
    24cd:	0f 1f 00             	nopl   (%rax)

00000000000024d0 <__libc_csu_fini>:
    24d0:	c3                   	retq   

Disassembly of section .fini:

00000000000024d4 <_fini>:
    24d4:	48 83 ec 08          	sub    $0x8,%rsp
    24d8:	48 83 c4 08          	add    $0x8,%rsp
    24dc:	c3                   	retq   
