
C. Perform the Combo.out:     file format elf64-x86-64


Disassembly of section .init:

0000000000001000 <_init>:
    1000:	48 83 ec 08          	sub    $0x8,%rsp
    1004:	48 8b 05 dd 3f 00 00 	mov    0x3fdd(%rip),%rax        # 4fe8 <__gmon_start__>
    100b:	48 85 c0             	test   %rax,%rax
    100e:	74 02                	je     1012 <_init+0x12>
    1010:	ff d0                	callq  *%rax
    1012:	48 83 c4 08          	add    $0x8,%rsp
    1016:	c3                   	retq   

Disassembly of section .plt:

0000000000001020 <.plt>:
    1020:	ff 35 e2 3f 00 00    	pushq  0x3fe2(%rip)        # 5008 <_GLOBAL_OFFSET_TABLE_+0x8>
    1026:	ff 25 e4 3f 00 00    	jmpq   *0x3fe4(%rip)        # 5010 <_GLOBAL_OFFSET_TABLE_+0x10>
    102c:	0f 1f 40 00          	nopl   0x0(%rax)

0000000000001030 <_ZNSt8ios_base15sync_with_stdioEb@plt>:
    1030:	ff 25 e2 3f 00 00    	jmpq   *0x3fe2(%rip)        # 5018 <_ZNSt8ios_base15sync_with_stdioEb@GLIBCXX_3.4>
    1036:	68 00 00 00 00       	pushq  $0x0
    103b:	e9 e0 ff ff ff       	jmpq   1020 <.plt>

0000000000001040 <memset@plt>:
    1040:	ff 25 da 3f 00 00    	jmpq   *0x3fda(%rip)        # 5020 <memset@GLIBC_2.2.5>
    1046:	68 01 00 00 00       	pushq  $0x1
    104b:	e9 d0 ff ff ff       	jmpq   1020 <.plt>

0000000000001050 <_ZNSirsERi@plt>:
    1050:	ff 25 d2 3f 00 00    	jmpq   *0x3fd2(%rip)        # 5028 <_ZNSirsERi@GLIBCXX_3.4>
    1056:	68 02 00 00 00       	pushq  $0x2
    105b:	e9 c0 ff ff ff       	jmpq   1020 <.plt>

0000000000001060 <_ZNSt7__cxx1112basic_stringIcSt11char_traitsIcESaIcEED1Ev@plt>:
    1060:	ff 25 ca 3f 00 00    	jmpq   *0x3fca(%rip)        # 5030 <_ZNSt7__cxx1112basic_stringIcSt11char_traitsIcESaIcEED1Ev@GLIBCXX_3.4.21>
    1066:	68 03 00 00 00       	pushq  $0x3
    106b:	e9 b0 ff ff ff       	jmpq   1020 <.plt>

0000000000001070 <_ZNKSt7__cxx1112basic_stringIcSt11char_traitsIcESaIcEE4sizeEv@plt>:
    1070:	ff 25 c2 3f 00 00    	jmpq   *0x3fc2(%rip)        # 5038 <_ZNKSt7__cxx1112basic_stringIcSt11char_traitsIcESaIcEE4sizeEv@GLIBCXX_3.4.21>
    1076:	68 04 00 00 00       	pushq  $0x4
    107b:	e9 a0 ff ff ff       	jmpq   1020 <.plt>

0000000000001080 <_ZNSt9basic_iosIcSt11char_traitsIcEE3tieEPSo@plt>:
    1080:	ff 25 ba 3f 00 00    	jmpq   *0x3fba(%rip)        # 5040 <_ZNSt9basic_iosIcSt11char_traitsIcEE3tieEPSo@GLIBCXX_3.4>
    1086:	68 05 00 00 00       	pushq  $0x5
    108b:	e9 90 ff ff ff       	jmpq   1020 <.plt>

0000000000001090 <__cxa_atexit@plt>:
    1090:	ff 25 b2 3f 00 00    	jmpq   *0x3fb2(%rip)        # 5048 <__cxa_atexit@GLIBC_2.2.5>
    1096:	68 06 00 00 00       	pushq  $0x6
    109b:	e9 80 ff ff ff       	jmpq   1020 <.plt>

00000000000010a0 <_ZStlsISt11char_traitsIcEERSt13basic_ostreamIcT_ES5_PKc@plt>:
    10a0:	ff 25 aa 3f 00 00    	jmpq   *0x3faa(%rip)        # 5050 <_ZStlsISt11char_traitsIcEERSt13basic_ostreamIcT_ES5_PKc@GLIBCXX_3.4>
    10a6:	68 07 00 00 00       	pushq  $0x7
    10ab:	e9 70 ff ff ff       	jmpq   1020 <.plt>

00000000000010b0 <_ZNSolsEPFRSoS_E@plt>:
    10b0:	ff 25 a2 3f 00 00    	jmpq   *0x3fa2(%rip)        # 5058 <_ZNSolsEPFRSoS_E@GLIBCXX_3.4>
    10b6:	68 08 00 00 00       	pushq  $0x8
    10bb:	e9 60 ff ff ff       	jmpq   1020 <.plt>

00000000000010c0 <_ZStrsIcSt11char_traitsIcESaIcEERSt13basic_istreamIT_T0_ES7_RNSt7__cxx1112basic_stringIS4_S5_T1_EE@plt>:
    10c0:	ff 25 9a 3f 00 00    	jmpq   *0x3f9a(%rip)        # 5060 <_ZStrsIcSt11char_traitsIcESaIcEERSt13basic_istreamIT_T0_ES7_RNSt7__cxx1112basic_stringIS4_S5_T1_EE@GLIBCXX_3.4.21>
    10c6:	68 09 00 00 00       	pushq  $0x9
    10cb:	e9 50 ff ff ff       	jmpq   1020 <.plt>

00000000000010d0 <_ZNSt7__cxx1112basic_stringIcSt11char_traitsIcESaIcEEC1Ev@plt>:
    10d0:	ff 25 92 3f 00 00    	jmpq   *0x3f92(%rip)        # 5068 <_ZNSt7__cxx1112basic_stringIcSt11char_traitsIcESaIcEEC1Ev@GLIBCXX_3.4.21>
    10d6:	68 0a 00 00 00       	pushq  $0xa
    10db:	e9 40 ff ff ff       	jmpq   1020 <.plt>

00000000000010e0 <_ZNSt8ios_base4InitC1Ev@plt>:
    10e0:	ff 25 8a 3f 00 00    	jmpq   *0x3f8a(%rip)        # 5070 <_ZNSt8ios_base4InitC1Ev@GLIBCXX_3.4>
    10e6:	68 0b 00 00 00       	pushq  $0xb
    10eb:	e9 30 ff ff ff       	jmpq   1020 <.plt>

00000000000010f0 <memmove@plt>:
    10f0:	ff 25 82 3f 00 00    	jmpq   *0x3f82(%rip)        # 5078 <memmove@GLIBC_2.2.5>
    10f6:	68 0c 00 00 00       	pushq  $0xc
    10fb:	e9 20 ff ff ff       	jmpq   1020 <.plt>

0000000000001100 <_ZNSolsEi@plt>:
    1100:	ff 25 7a 3f 00 00    	jmpq   *0x3f7a(%rip)        # 5080 <_ZNSolsEi@GLIBCXX_3.4>
    1106:	68 0d 00 00 00       	pushq  $0xd
    110b:	e9 10 ff ff ff       	jmpq   1020 <.plt>

0000000000001110 <_Unwind_Resume@plt>:
    1110:	ff 25 72 3f 00 00    	jmpq   *0x3f72(%rip)        # 5088 <_Unwind_Resume@GCC_3.0>
    1116:	68 0e 00 00 00       	pushq  $0xe
    111b:	e9 00 ff ff ff       	jmpq   1020 <.plt>

0000000000001120 <_ZNSt7__cxx1112basic_stringIcSt11char_traitsIcESaIcEEixEm@plt>:
    1120:	ff 25 6a 3f 00 00    	jmpq   *0x3f6a(%rip)        # 5090 <_ZNSt7__cxx1112basic_stringIcSt11char_traitsIcESaIcEEixEm@GLIBCXX_3.4.21>
    1126:	68 0f 00 00 00       	pushq  $0xf
    112b:	e9 f0 fe ff ff       	jmpq   1020 <.plt>

Disassembly of section .plt.got:

0000000000001130 <__cxa_finalize@plt>:
    1130:	ff 25 92 3e 00 00    	jmpq   *0x3e92(%rip)        # 4fc8 <__cxa_finalize@GLIBC_2.2.5>
    1136:	66 90                	xchg   %ax,%ax

Disassembly of section .text:

0000000000001140 <_start>:
    1140:	31 ed                	xor    %ebp,%ebp
    1142:	49 89 d1             	mov    %rdx,%r9
    1145:	5e                   	pop    %rsi
    1146:	48 89 e2             	mov    %rsp,%rdx
    1149:	48 83 e4 f0          	and    $0xfffffffffffffff0,%rsp
    114d:	50                   	push   %rax
    114e:	54                   	push   %rsp
    114f:	4c 8d 05 ba 13 00 00 	lea    0x13ba(%rip),%r8        # 2510 <__libc_csu_fini>
    1156:	48 8d 0d 53 13 00 00 	lea    0x1353(%rip),%rcx        # 24b0 <__libc_csu_init>
    115d:	48 8d 3d b2 01 00 00 	lea    0x1b2(%rip),%rdi        # 1316 <main>
    1164:	ff 15 76 3e 00 00    	callq  *0x3e76(%rip)        # 4fe0 <__libc_start_main@GLIBC_2.2.5>
    116a:	f4                   	hlt    
    116b:	0f 1f 44 00 00       	nopl   0x0(%rax,%rax,1)

0000000000001170 <deregister_tm_clones>:
    1170:	48 8d 3d 39 3f 00 00 	lea    0x3f39(%rip),%rdi        # 50b0 <__TMC_END__>
    1177:	48 8d 05 32 3f 00 00 	lea    0x3f32(%rip),%rax        # 50b0 <__TMC_END__>
    117e:	48 39 f8             	cmp    %rdi,%rax
    1181:	74 15                	je     1198 <deregister_tm_clones+0x28>
    1183:	48 8b 05 4e 3e 00 00 	mov    0x3e4e(%rip),%rax        # 4fd8 <_ITM_deregisterTMCloneTable>
    118a:	48 85 c0             	test   %rax,%rax
    118d:	74 09                	je     1198 <deregister_tm_clones+0x28>
    118f:	ff e0                	jmpq   *%rax
    1191:	0f 1f 80 00 00 00 00 	nopl   0x0(%rax)
    1198:	c3                   	retq   
    1199:	0f 1f 80 00 00 00 00 	nopl   0x0(%rax)

00000000000011a0 <register_tm_clones>:
    11a0:	48 8d 3d 09 3f 00 00 	lea    0x3f09(%rip),%rdi        # 50b0 <__TMC_END__>
    11a7:	48 8d 35 02 3f 00 00 	lea    0x3f02(%rip),%rsi        # 50b0 <__TMC_END__>
    11ae:	48 29 fe             	sub    %rdi,%rsi
    11b1:	48 89 f0             	mov    %rsi,%rax
    11b4:	48 c1 ee 3f          	shr    $0x3f,%rsi
    11b8:	48 c1 f8 03          	sar    $0x3,%rax
    11bc:	48 01 c6             	add    %rax,%rsi
    11bf:	48 d1 fe             	sar    %rsi
    11c2:	74 14                	je     11d8 <register_tm_clones+0x38>
    11c4:	48 8b 05 25 3e 00 00 	mov    0x3e25(%rip),%rax        # 4ff0 <_ITM_registerTMCloneTable>
    11cb:	48 85 c0             	test   %rax,%rax
    11ce:	74 08                	je     11d8 <register_tm_clones+0x38>
    11d0:	ff e0                	jmpq   *%rax
    11d2:	66 0f 1f 44 00 00    	nopw   0x0(%rax,%rax,1)
    11d8:	c3                   	retq   
    11d9:	0f 1f 80 00 00 00 00 	nopl   0x0(%rax)

00000000000011e0 <__do_global_dtors_aux>:
    11e0:	80 3d 11 41 00 00 00 	cmpb   $0x0,0x4111(%rip)        # 52f8 <completed.7447>
    11e7:	75 2f                	jne    1218 <__do_global_dtors_aux+0x38>
    11e9:	55                   	push   %rbp
    11ea:	48 83 3d d6 3d 00 00 	cmpq   $0x0,0x3dd6(%rip)        # 4fc8 <__cxa_finalize@GLIBC_2.2.5>
    11f1:	00 
    11f2:	48 89 e5             	mov    %rsp,%rbp
    11f5:	74 0c                	je     1203 <__do_global_dtors_aux+0x23>
    11f7:	48 8b 3d a2 3e 00 00 	mov    0x3ea2(%rip),%rdi        # 50a0 <__dso_handle>
    11fe:	e8 2d ff ff ff       	callq  1130 <__cxa_finalize@plt>
    1203:	e8 68 ff ff ff       	callq  1170 <deregister_tm_clones>
    1208:	c6 05 e9 40 00 00 01 	movb   $0x1,0x40e9(%rip)        # 52f8 <completed.7447>
    120f:	5d                   	pop    %rbp
    1210:	c3                   	retq   
    1211:	0f 1f 80 00 00 00 00 	nopl   0x0(%rax)
    1218:	c3                   	retq   
    1219:	0f 1f 80 00 00 00 00 	nopl   0x0(%rax)

0000000000001220 <frame_dummy>:
    1220:	e9 7b ff ff ff       	jmpq   11a0 <register_tm_clones>

0000000000001225 <_Z7decSortxx>:
    1225:	55                   	push   %rbp
    1226:	48 89 e5             	mov    %rsp,%rbp
    1229:	48 89 7d f8          	mov    %rdi,-0x8(%rbp)
    122d:	48 89 75 f0          	mov    %rsi,-0x10(%rbp)
    1231:	48 8b 45 f8          	mov    -0x8(%rbp),%rax
    1235:	48 3b 45 f0          	cmp    -0x10(%rbp),%rax
    1239:	0f 9f c0             	setg   %al
    123c:	5d                   	pop    %rbp
    123d:	c3                   	retq   

000000000000123e <_Z12max_of_arrayPxx>:
    123e:	55                   	push   %rbp
    123f:	48 89 e5             	mov    %rsp,%rbp
    1242:	48 89 7d e8          	mov    %rdi,-0x18(%rbp)
    1246:	48 89 75 e0          	mov    %rsi,-0x20(%rbp)
    124a:	48 8b 45 e8          	mov    -0x18(%rbp),%rax
    124e:	48 8b 00             	mov    (%rax),%rax
    1251:	48 89 45 f8          	mov    %rax,-0x8(%rbp)
    1255:	48 c7 45 f0 00 00 00 	movq   $0x0,-0x10(%rbp)
    125c:	00 
    125d:	48 8b 45 f0          	mov    -0x10(%rbp),%rax
    1261:	48 3b 45 e0          	cmp    -0x20(%rbp),%rax
    1265:	7d 3d                	jge    12a4 <_Z12max_of_arrayPxx+0x66>
    1267:	48 8b 45 f0          	mov    -0x10(%rbp),%rax
    126b:	48 8d 14 c5 00 00 00 	lea    0x0(,%rax,8),%rdx
    1272:	00 
    1273:	48 8b 45 e8          	mov    -0x18(%rbp),%rax
    1277:	48 01 d0             	add    %rdx,%rax
    127a:	48 8b 00             	mov    (%rax),%rax
    127d:	48 39 45 f8          	cmp    %rax,-0x8(%rbp)
    1281:	7d 1a                	jge    129d <_Z12max_of_arrayPxx+0x5f>
    1283:	48 8b 45 f0          	mov    -0x10(%rbp),%rax
    1287:	48 8d 14 c5 00 00 00 	lea    0x0(,%rax,8),%rdx
    128e:	00 
    128f:	48 8b 45 e8          	mov    -0x18(%rbp),%rax
    1293:	48 01 d0             	add    %rdx,%rax
    1296:	48 8b 00             	mov    (%rax),%rax
    1299:	48 89 45 f8          	mov    %rax,-0x8(%rbp)
    129d:	48 83 45 f0 01       	addq   $0x1,-0x10(%rbp)
    12a2:	eb b9                	jmp    125d <_Z12max_of_arrayPxx+0x1f>
    12a4:	48 8b 45 f8          	mov    -0x8(%rbp),%rax
    12a8:	5d                   	pop    %rbp
    12a9:	c3                   	retq   

00000000000012aa <_Z12min_of_arrayPxx>:
    12aa:	55                   	push   %rbp
    12ab:	48 89 e5             	mov    %rsp,%rbp
    12ae:	48 89 7d e8          	mov    %rdi,-0x18(%rbp)
    12b2:	48 89 75 e0          	mov    %rsi,-0x20(%rbp)
    12b6:	48 8b 45 e8          	mov    -0x18(%rbp),%rax
    12ba:	48 8b 00             	mov    (%rax),%rax
    12bd:	48 89 45 f8          	mov    %rax,-0x8(%rbp)
    12c1:	48 c7 45 f0 00 00 00 	movq   $0x0,-0x10(%rbp)
    12c8:	00 
    12c9:	48 8b 45 f0          	mov    -0x10(%rbp),%rax
    12cd:	48 3b 45 e0          	cmp    -0x20(%rbp),%rax
    12d1:	7d 3d                	jge    1310 <_Z12min_of_arrayPxx+0x66>
    12d3:	48 8b 45 f0          	mov    -0x10(%rbp),%rax
    12d7:	48 8d 14 c5 00 00 00 	lea    0x0(,%rax,8),%rdx
    12de:	00 
    12df:	48 8b 45 e8          	mov    -0x18(%rbp),%rax
    12e3:	48 01 d0             	add    %rdx,%rax
    12e6:	48 8b 00             	mov    (%rax),%rax
    12e9:	48 39 45 f8          	cmp    %rax,-0x8(%rbp)
    12ed:	7e 1a                	jle    1309 <_Z12min_of_arrayPxx+0x5f>
    12ef:	48 8b 45 f0          	mov    -0x10(%rbp),%rax
    12f3:	48 8d 14 c5 00 00 00 	lea    0x0(,%rax,8),%rdx
    12fa:	00 
    12fb:	48 8b 45 e8          	mov    -0x18(%rbp),%rax
    12ff:	48 01 d0             	add    %rdx,%rax
    1302:	48 8b 00             	mov    (%rax),%rax
    1305:	48 89 45 f8          	mov    %rax,-0x8(%rbp)
    1309:	48 83 45 f0 01       	addq   $0x1,-0x10(%rbp)
    130e:	eb b9                	jmp    12c9 <_Z12min_of_arrayPxx+0x1f>
    1310:	48 8b 45 f8          	mov    -0x8(%rbp),%rax
    1314:	5d                   	pop    %rbp
    1315:	c3                   	retq   

0000000000001316 <main>:
    1316:	55                   	push   %rbp
    1317:	48 89 e5             	mov    %rsp,%rbp
    131a:	41 57                	push   %r15
    131c:	41 56                	push   %r14
    131e:	41 54                	push   %r12
    1320:	53                   	push   %rbx
    1321:	48 81 ec e0 00 00 00 	sub    $0xe0,%rsp
    1328:	bf 00 00 00 00       	mov    $0x0,%edi
    132d:	e8 fe fc ff ff       	callq  1030 <_ZNSt8ios_base15sync_with_stdioEb@plt>
    1332:	be 00 00 00 00       	mov    $0x0,%esi
    1337:	48 8d 3d b2 3e 00 00 	lea    0x3eb2(%rip),%rdi        # 51f0 <_ZSt3cin@@GLIBCXX_3.4+0x10>
    133e:	e8 3d fd ff ff       	callq  1080 <_ZNSt9basic_iosIcSt11char_traitsIcEE3tieEPSo@plt>
    1343:	48 8d 45 b0          	lea    -0x50(%rbp),%rax
    1347:	48 89 c6             	mov    %rax,%rsi
    134a:	48 8d 3d 8f 3e 00 00 	lea    0x3e8f(%rip),%rdi        # 51e0 <_ZSt3cin@@GLIBCXX_3.4>
    1351:	e8 fa fc ff ff       	callq  1050 <_ZNSirsERi@plt>
    1356:	8b 45 b0             	mov    -0x50(%rbp),%eax
    1359:	8d 50 ff             	lea    -0x1(%rax),%edx
    135c:	89 55 b0             	mov    %edx,-0x50(%rbp)
    135f:	85 c0                	test   %eax,%eax
    1361:	0f 95 c0             	setne  %al
    1364:	84 c0                	test   %al,%al
    1366:	0f 84 be 02 00 00    	je     162a <main+0x314>
    136c:	48 89 e0             	mov    %rsp,%rax
    136f:	49 89 c4             	mov    %rax,%r12
    1372:	48 8d 45 ac          	lea    -0x54(%rbp),%rax
    1376:	48 89 c6             	mov    %rax,%rsi
    1379:	48 8d 3d 60 3e 00 00 	lea    0x3e60(%rip),%rdi        # 51e0 <_ZSt3cin@@GLIBCXX_3.4>
    1380:	e8 cb fc ff ff       	callq  1050 <_ZNSirsERi@plt>
    1385:	48 89 c2             	mov    %rax,%rdx
    1388:	48 8d 45 a8          	lea    -0x58(%rbp),%rax
    138c:	48 89 c6             	mov    %rax,%rsi
    138f:	48 89 d7             	mov    %rdx,%rdi
    1392:	e8 b9 fc ff ff       	callq  1050 <_ZNSirsERi@plt>
    1397:	48 8d 85 10 ff ff ff 	lea    -0xf0(%rbp),%rax
    139e:	48 89 c7             	mov    %rax,%rdi
    13a1:	e8 2a fd ff ff       	callq  10d0 <_ZNSt7__cxx1112basic_stringIcSt11char_traitsIcESaIcEEC1Ev@plt>
    13a6:	48 8d 85 10 ff ff ff 	lea    -0xf0(%rbp),%rax
    13ad:	48 89 c6             	mov    %rax,%rsi
    13b0:	48 8d 3d 29 3e 00 00 	lea    0x3e29(%rip),%rdi        # 51e0 <_ZSt3cin@@GLIBCXX_3.4>
    13b7:	e8 04 fd ff ff       	callq  10c0 <_ZStrsIcSt11char_traitsIcESaIcEERSt13basic_istreamIT_T0_ES7_RNSt7__cxx1112basic_stringIS4_S5_T1_EE@plt>
    13bc:	8b 45 a8             	mov    -0x58(%rbp),%eax
    13bf:	83 c0 01             	add    $0x1,%eax
    13c2:	48 98                	cltq   
    13c4:	48 83 e8 01          	sub    $0x1,%rax
    13c8:	48 89 45 c0          	mov    %rax,-0x40(%rbp)
    13cc:	48 89 c2             	mov    %rax,%rdx
    13cf:	48 83 c2 01          	add    $0x1,%rdx
    13d3:	49 89 d6             	mov    %rdx,%r14
    13d6:	41 bf 00 00 00 00    	mov    $0x0,%r15d
    13dc:	48 89 c2             	mov    %rax,%rdx
    13df:	48 83 c2 01          	add    $0x1,%rdx
    13e3:	48 89 95 00 ff ff ff 	mov    %rdx,-0x100(%rbp)
    13ea:	48 c7 85 08 ff ff ff 	movq   $0x0,-0xf8(%rbp)
    13f1:	00 00 00 00 
    13f5:	48 83 c0 01          	add    $0x1,%rax
    13f9:	48 8d 14 85 00 00 00 	lea    0x0(,%rax,4),%rdx
    1400:	00 
    1401:	b8 10 00 00 00       	mov    $0x10,%eax
    1406:	48 83 e8 01          	sub    $0x1,%rax
    140a:	48 01 d0             	add    %rdx,%rax
    140d:	b9 10 00 00 00       	mov    $0x10,%ecx
    1412:	ba 00 00 00 00       	mov    $0x0,%edx
    1417:	48 f7 f1             	div    %rcx
    141a:	48 6b c0 10          	imul   $0x10,%rax,%rax
    141e:	48 29 c4             	sub    %rax,%rsp
    1421:	48 89 e0             	mov    %rsp,%rax
    1424:	48 83 c0 03          	add    $0x3,%rax
    1428:	48 c1 e8 02          	shr    $0x2,%rax
    142c:	48 c1 e0 02          	shl    $0x2,%rax
    1430:	48 89 45 b8          	mov    %rax,-0x48(%rbp)
    1434:	c7 45 d0 00 00 00 00 	movl   $0x0,-0x30(%rbp)
    143b:	8b 45 a8             	mov    -0x58(%rbp),%eax
    143e:	39 45 d0             	cmp    %eax,-0x30(%rbp)
    1441:	7d 2c                	jge    146f <main+0x159>
    1443:	48 8d 45 a4          	lea    -0x5c(%rbp),%rax
    1447:	48 89 c6             	mov    %rax,%rsi
    144a:	48 8d 3d 8f 3d 00 00 	lea    0x3d8f(%rip),%rdi        # 51e0 <_ZSt3cin@@GLIBCXX_3.4>
    1451:	e8 fa fb ff ff       	callq  1050 <_ZNSirsERi@plt>
    1456:	8b 45 a4             	mov    -0x5c(%rbp),%eax
    1459:	8d 48 ff             	lea    -0x1(%rax),%ecx
    145c:	48 8b 45 b8          	mov    -0x48(%rbp),%rax
    1460:	8b 55 d0             	mov    -0x30(%rbp),%edx
    1463:	48 63 d2             	movslq %edx,%rdx
    1466:	89 0c 90             	mov    %ecx,(%rax,%rdx,4)
    1469:	83 45 d0 01          	addl   $0x1,-0x30(%rbp)
    146d:	eb cc                	jmp    143b <main+0x125>
    146f:	48 8b 45 b8          	mov    -0x48(%rbp),%rax
    1473:	8b 55 a8             	mov    -0x58(%rbp),%edx
    1476:	48 63 d2             	movslq %edx,%rdx
    1479:	48 c1 e2 02          	shl    $0x2,%rdx
    147d:	48 8d 0c 10          	lea    (%rax,%rdx,1),%rcx
    1481:	48 8b 45 b8          	mov    -0x48(%rbp),%rax
    1485:	48 8d 15 99 fd ff ff 	lea    -0x267(%rip),%rdx        # 1225 <_Z7decSortxx>
    148c:	48 89 ce             	mov    %rcx,%rsi
    148f:	48 89 c7             	mov    %rax,%rdi
    1492:	e8 43 02 00 00       	callq  16da <_ZSt4sortIPiPFbxxEEvT_S3_T0_>
    1497:	48 8d 85 30 ff ff ff 	lea    -0xd0(%rbp),%rax
    149e:	ba 68 00 00 00       	mov    $0x68,%edx
    14a3:	be 00 00 00 00       	mov    $0x0,%esi
    14a8:	48 89 c7             	mov    %rax,%rdi
    14ab:	e8 90 fb ff ff       	callq  1040 <memset@plt>
    14b0:	48 8b 45 b8          	mov    -0x48(%rbp),%rax
    14b4:	8b 00                	mov    (%rax),%eax
    14b6:	89 45 b4             	mov    %eax,-0x4c(%rbp)
    14b9:	8b 45 b4             	mov    -0x4c(%rbp),%eax
    14bc:	89 45 d4             	mov    %eax,-0x2c(%rbp)
    14bf:	c7 45 d8 01 00 00 00 	movl   $0x1,-0x28(%rbp)
    14c6:	8b 45 a8             	mov    -0x58(%rbp),%eax
    14c9:	39 45 d8             	cmp    %eax,-0x28(%rbp)
    14cc:	0f 8d 8c 00 00 00    	jge    155e <main+0x248>
    14d2:	83 7d d4 00          	cmpl   $0x0,-0x2c(%rbp)
    14d6:	0f 88 82 00 00 00    	js     155e <main+0x248>
    14dc:	48 8b 45 b8          	mov    -0x48(%rbp),%rax
    14e0:	8b 55 d8             	mov    -0x28(%rbp),%edx
    14e3:	48 63 d2             	movslq %edx,%rdx
    14e6:	8b 04 90             	mov    (%rax,%rdx,4),%eax
    14e9:	39 45 d4             	cmp    %eax,-0x2c(%rbp)
    14ec:	75 0c                	jne    14fa <main+0x1e4>
    14ee:	8b 45 d4             	mov    -0x2c(%rbp),%eax
    14f1:	3b 45 b4             	cmp    -0x4c(%rbp),%eax
    14f4:	74 04                	je     14fa <main+0x1e4>
    14f6:	83 45 d8 01          	addl   $0x1,-0x28(%rbp)
    14fa:	8b 45 d4             	mov    -0x2c(%rbp),%eax
    14fd:	48 63 d0             	movslq %eax,%rdx
    1500:	48 8d 85 10 ff ff ff 	lea    -0xf0(%rbp),%rax
    1507:	48 89 d6             	mov    %rdx,%rsi
    150a:	48 89 c7             	mov    %rax,%rdi
    150d:	e8 0e fc ff ff       	callq  1120 <_ZNSt7__cxx1112basic_stringIcSt11char_traitsIcESaIcEEixEm@plt>
    1512:	0f b6 00             	movzbl (%rax),%eax
    1515:	0f be c0             	movsbl %al,%eax
    1518:	83 e8 61             	sub    $0x61,%eax
    151b:	48 98                	cltq   
    151d:	8b 9c 85 30 ff ff ff 	mov    -0xd0(%rbp,%rax,4),%ebx
    1524:	8b 45 d4             	mov    -0x2c(%rbp),%eax
    1527:	48 63 d0             	movslq %eax,%rdx
    152a:	48 8d 85 10 ff ff ff 	lea    -0xf0(%rbp),%rax
    1531:	48 89 d6             	mov    %rdx,%rsi
    1534:	48 89 c7             	mov    %rax,%rdi
    1537:	e8 e4 fb ff ff       	callq  1120 <_ZNSt7__cxx1112basic_stringIcSt11char_traitsIcESaIcEEixEm@plt>
    153c:	0f b6 00             	movzbl (%rax),%eax
    153f:	0f be c0             	movsbl %al,%eax
    1542:	8d 48 9f             	lea    -0x61(%rax),%ecx
    1545:	8b 45 d8             	mov    -0x28(%rbp),%eax
    1548:	8d 14 03             	lea    (%rbx,%rax,1),%edx
    154b:	48 63 c1             	movslq %ecx,%rax
    154e:	89 94 85 30 ff ff ff 	mov    %edx,-0xd0(%rbp,%rax,4)
    1555:	83 6d d4 01          	subl   $0x1,-0x2c(%rbp)
    1559:	e9 68 ff ff ff       	jmpq   14c6 <main+0x1b0>
    155e:	c7 45 dc 00 00 00 00 	movl   $0x0,-0x24(%rbp)
    1565:	8b 45 dc             	mov    -0x24(%rbp),%eax
    1568:	48 63 d8             	movslq %eax,%rbx
    156b:	48 8d 85 10 ff ff ff 	lea    -0xf0(%rbp),%rax
    1572:	48 89 c7             	mov    %rax,%rdi
    1575:	e8 f6 fa ff ff       	callq  1070 <_ZNKSt7__cxx1112basic_stringIcSt11char_traitsIcESaIcEE4sizeEv@plt>
    157a:	48 39 c3             	cmp    %rax,%rbx
    157d:	0f 92 c0             	setb   %al
    1580:	84 c0                	test   %al,%al
    1582:	74 3d                	je     15c1 <main+0x2ab>
    1584:	8b 45 dc             	mov    -0x24(%rbp),%eax
    1587:	48 63 d0             	movslq %eax,%rdx
    158a:	48 8d 85 10 ff ff ff 	lea    -0xf0(%rbp),%rax
    1591:	48 89 d6             	mov    %rdx,%rsi
    1594:	48 89 c7             	mov    %rax,%rdi
    1597:	e8 84 fb ff ff       	callq  1120 <_ZNSt7__cxx1112basic_stringIcSt11char_traitsIcESaIcEEixEm@plt>
    159c:	0f b6 00             	movzbl (%rax),%eax
    159f:	0f be c0             	movsbl %al,%eax
    15a2:	83 e8 61             	sub    $0x61,%eax
    15a5:	48 63 d0             	movslq %eax,%rdx
    15a8:	8b 94 95 30 ff ff ff 	mov    -0xd0(%rbp,%rdx,4),%edx
    15af:	83 c2 01             	add    $0x1,%edx
    15b2:	48 98                	cltq   
    15b4:	89 94 85 30 ff ff ff 	mov    %edx,-0xd0(%rbp,%rax,4)
    15bb:	83 45 dc 01          	addl   $0x1,-0x24(%rbp)
    15bf:	eb a4                	jmp    1565 <main+0x24f>
    15c1:	c7 45 cc 00 00 00 00 	movl   $0x0,-0x34(%rbp)
    15c8:	83 7d cc 19          	cmpl   $0x19,-0x34(%rbp)
    15cc:	7f 2f                	jg     15fd <main+0x2e7>
    15ce:	8b 45 cc             	mov    -0x34(%rbp),%eax
    15d1:	48 98                	cltq   
    15d3:	8b 84 85 30 ff ff ff 	mov    -0xd0(%rbp,%rax,4),%eax
    15da:	89 c6                	mov    %eax,%esi
    15dc:	48 8d 3d dd 3a 00 00 	lea    0x3add(%rip),%rdi        # 50c0 <_ZSt4cout@@GLIBCXX_3.4>
    15e3:	e8 18 fb ff ff       	callq  1100 <_ZNSolsEi@plt>
    15e8:	48 8d 35 c1 1a 00 00 	lea    0x1ac1(%rip),%rsi        # 30b0 <_ZNSt8__detailL19_S_invalid_state_idE+0x8>
    15ef:	48 89 c7             	mov    %rax,%rdi
    15f2:	e8 a9 fa ff ff       	callq  10a0 <_ZStlsISt11char_traitsIcEERSt13basic_ostreamIcT_ES5_PKc@plt>
    15f7:	83 45 cc 01          	addl   $0x1,-0x34(%rbp)
    15fb:	eb cb                	jmp    15c8 <main+0x2b2>
    15fd:	48 8b 05 cc 39 00 00 	mov    0x39cc(%rip),%rax        # 4fd0 <_ZSt4endlIcSt11char_traitsIcEERSt13basic_ostreamIT_T0_ES6_@GLIBCXX_3.4>
    1604:	48 89 c6             	mov    %rax,%rsi
    1607:	48 8d 3d b2 3a 00 00 	lea    0x3ab2(%rip),%rdi        # 50c0 <_ZSt4cout@@GLIBCXX_3.4>
    160e:	e8 9d fa ff ff       	callq  10b0 <_ZNSolsEPFRSoS_E@plt>
    1613:	48 8d 85 10 ff ff ff 	lea    -0xf0(%rbp),%rax
    161a:	48 89 c7             	mov    %rax,%rdi
    161d:	e8 3e fa ff ff       	callq  1060 <_ZNSt7__cxx1112basic_stringIcSt11char_traitsIcESaIcEED1Ev@plt>
    1622:	4c 89 e4             	mov    %r12,%rsp
    1625:	e9 2c fd ff ff       	jmpq   1356 <main+0x40>
    162a:	b8 00 00 00 00       	mov    $0x0,%eax
    162f:	eb 1d                	jmp    164e <main+0x338>
    1631:	48 89 c3             	mov    %rax,%rbx
    1634:	48 8d 85 10 ff ff ff 	lea    -0xf0(%rbp),%rax
    163b:	48 89 c7             	mov    %rax,%rdi
    163e:	e8 1d fa ff ff       	callq  1060 <_ZNSt7__cxx1112basic_stringIcSt11char_traitsIcESaIcEED1Ev@plt>
    1643:	48 89 d8             	mov    %rbx,%rax
    1646:	48 89 c7             	mov    %rax,%rdi
    1649:	e8 c2 fa ff ff       	callq  1110 <_Unwind_Resume@plt>
    164e:	48 8d 65 e0          	lea    -0x20(%rbp),%rsp
    1652:	5b                   	pop    %rbx
    1653:	41 5c                	pop    %r12
    1655:	41 5e                	pop    %r14
    1657:	41 5f                	pop    %r15
    1659:	5d                   	pop    %rbp
    165a:	c3                   	retq   

000000000000165b <_Z41__static_initialization_and_destruction_0ii>:
    165b:	55                   	push   %rbp
    165c:	48 89 e5             	mov    %rsp,%rbp
    165f:	48 83 ec 10          	sub    $0x10,%rsp
    1663:	89 7d fc             	mov    %edi,-0x4(%rbp)
    1666:	89 75 f8             	mov    %esi,-0x8(%rbp)
    1669:	83 7d fc 01          	cmpl   $0x1,-0x4(%rbp)
    166d:	75 32                	jne    16a1 <_Z41__static_initialization_and_destruction_0ii+0x46>
    166f:	81 7d f8 ff ff 00 00 	cmpl   $0xffff,-0x8(%rbp)
    1676:	75 29                	jne    16a1 <_Z41__static_initialization_and_destruction_0ii+0x46>
    1678:	48 8d 3d 7a 3c 00 00 	lea    0x3c7a(%rip),%rdi        # 52f9 <_ZStL8__ioinit>
    167f:	e8 5c fa ff ff       	callq  10e0 <_ZNSt8ios_base4InitC1Ev@plt>
    1684:	48 8d 15 15 3a 00 00 	lea    0x3a15(%rip),%rdx        # 50a0 <__dso_handle>
    168b:	48 8d 35 67 3c 00 00 	lea    0x3c67(%rip),%rsi        # 52f9 <_ZStL8__ioinit>
    1692:	48 8b 05 5f 39 00 00 	mov    0x395f(%rip),%rax        # 4ff8 <_ZNSt8ios_base4InitD1Ev@GLIBCXX_3.4>
    1699:	48 89 c7             	mov    %rax,%rdi
    169c:	e8 ef f9 ff ff       	callq  1090 <__cxa_atexit@plt>
    16a1:	90                   	nop
    16a2:	c9                   	leaveq 
    16a3:	c3                   	retq   

00000000000016a4 <_GLOBAL__sub_I__Z7decSortxx>:
    16a4:	55                   	push   %rbp
    16a5:	48 89 e5             	mov    %rsp,%rbp
    16a8:	be ff ff 00 00       	mov    $0xffff,%esi
    16ad:	bf 01 00 00 00       	mov    $0x1,%edi
    16b2:	e8 a4 ff ff ff       	callq  165b <_Z41__static_initialization_and_destruction_0ii>
    16b7:	5d                   	pop    %rbp
    16b8:	c3                   	retq   

00000000000016b9 <_ZSt4__lgl>:
    16b9:	55                   	push   %rbp
    16ba:	48 89 e5             	mov    %rsp,%rbp
    16bd:	48 89 7d f8          	mov    %rdi,-0x8(%rbp)
    16c1:	48 8b 45 f8          	mov    -0x8(%rbp),%rax
    16c5:	48 0f bd c0          	bsr    %rax,%rax
    16c9:	48 83 f0 3f          	xor    $0x3f,%rax
    16cd:	ba 3f 00 00 00       	mov    $0x3f,%edx
    16d2:	29 c2                	sub    %eax,%edx
    16d4:	89 d0                	mov    %edx,%eax
    16d6:	48 98                	cltq   
    16d8:	5d                   	pop    %rbp
    16d9:	c3                   	retq   

00000000000016da <_ZSt4sortIPiPFbxxEEvT_S3_T0_>:
    16da:	55                   	push   %rbp
    16db:	48 89 e5             	mov    %rsp,%rbp
    16de:	48 83 ec 20          	sub    $0x20,%rsp
    16e2:	48 89 7d f8          	mov    %rdi,-0x8(%rbp)
    16e6:	48 89 75 f0          	mov    %rsi,-0x10(%rbp)
    16ea:	48 89 55 e8          	mov    %rdx,-0x18(%rbp)
    16ee:	48 8b 45 e8          	mov    -0x18(%rbp),%rax
    16f2:	48 89 c7             	mov    %rax,%rdi
    16f5:	e8 19 00 00 00       	callq  1713 <_ZN9__gnu_cxx5__ops16__iter_comp_iterIPFbxxEEENS0_15_Iter_comp_iterIT_EES5_>
    16fa:	48 89 c2             	mov    %rax,%rdx
    16fd:	48 8b 4d f0          	mov    -0x10(%rbp),%rcx
    1701:	48 8b 45 f8          	mov    -0x8(%rbp),%rax
    1705:	48 89 ce             	mov    %rcx,%rsi
    1708:	48 89 c7             	mov    %rax,%rdi
    170b:	e8 33 00 00 00       	callq  1743 <_ZSt6__sortIPiN9__gnu_cxx5__ops15_Iter_comp_iterIPFbxxEEEEvT_S7_T0_>
    1710:	90                   	nop
    1711:	c9                   	leaveq 
    1712:	c3                   	retq   

0000000000001713 <_ZN9__gnu_cxx5__ops16__iter_comp_iterIPFbxxEEENS0_15_Iter_comp_iterIT_EES5_>:
    1713:	55                   	push   %rbp
    1714:	48 89 e5             	mov    %rsp,%rbp
    1717:	48 83 ec 20          	sub    $0x20,%rsp
    171b:	48 89 7d e8          	mov    %rdi,-0x18(%rbp)
    171f:	48 8d 45 e8          	lea    -0x18(%rbp),%rax
    1723:	48 89 c7             	mov    %rax,%rdi
    1726:	e8 82 00 00 00       	callq  17ad <_ZSt4moveIRPFbxxEEONSt16remove_referenceIT_E4typeEOS4_>
    172b:	48 8b 10             	mov    (%rax),%rdx
    172e:	48 8d 45 f8          	lea    -0x8(%rbp),%rax
    1732:	48 89 d6             	mov    %rdx,%rsi
    1735:	48 89 c7             	mov    %rax,%rdi
    1738:	e8 7f 00 00 00       	callq  17bc <_ZN9__gnu_cxx5__ops15_Iter_comp_iterIPFbxxEEC1ES3_>
    173d:	48 8b 45 f8          	mov    -0x8(%rbp),%rax
    1741:	c9                   	leaveq 
    1742:	c3                   	retq   

0000000000001743 <_ZSt6__sortIPiN9__gnu_cxx5__ops15_Iter_comp_iterIPFbxxEEEEvT_S7_T0_>:
    1743:	55                   	push   %rbp
    1744:	48 89 e5             	mov    %rsp,%rbp
    1747:	48 83 ec 20          	sub    $0x20,%rsp
    174b:	48 89 7d f8          	mov    %rdi,-0x8(%rbp)
    174f:	48 89 75 f0          	mov    %rsi,-0x10(%rbp)
    1753:	48 89 55 e8          	mov    %rdx,-0x18(%rbp)
    1757:	48 8b 45 f8          	mov    -0x8(%rbp),%rax
    175b:	48 3b 45 f0          	cmp    -0x10(%rbp),%rax
    175f:	74 49                	je     17aa <_ZSt6__sortIPiN9__gnu_cxx5__ops15_Iter_comp_iterIPFbxxEEEEvT_S7_T0_+0x67>
    1761:	48 8b 45 f0          	mov    -0x10(%rbp),%rax
    1765:	48 2b 45 f8          	sub    -0x8(%rbp),%rax
    1769:	48 c1 f8 02          	sar    $0x2,%rax
    176d:	48 89 c7             	mov    %rax,%rdi
    1770:	e8 44 ff ff ff       	callq  16b9 <_ZSt4__lgl>
    1775:	48 8d 3c 00          	lea    (%rax,%rax,1),%rdi
    1779:	48 8b 55 e8          	mov    -0x18(%rbp),%rdx
    177d:	48 8b 75 f0          	mov    -0x10(%rbp),%rsi
    1781:	48 8b 45 f8          	mov    -0x8(%rbp),%rax
    1785:	48 89 d1             	mov    %rdx,%rcx
    1788:	48 89 fa             	mov    %rdi,%rdx
    178b:	48 89 c7             	mov    %rax,%rdi
    178e:	e8 52 00 00 00       	callq  17e5 <_ZSt16__introsort_loopIPilN9__gnu_cxx5__ops15_Iter_comp_iterIPFbxxEEEEvT_S7_T0_T1_>
    1793:	48 8b 55 e8          	mov    -0x18(%rbp),%rdx
    1797:	48 8b 4d f0          	mov    -0x10(%rbp),%rcx
    179b:	48 8b 45 f8          	mov    -0x8(%rbp),%rax
    179f:	48 89 ce             	mov    %rcx,%rsi
    17a2:	48 89 c7             	mov    %rax,%rdi
    17a5:	e8 c6 00 00 00       	callq  1870 <_ZSt22__final_insertion_sortIPiN9__gnu_cxx5__ops15_Iter_comp_iterIPFbxxEEEEvT_S7_T0_>
    17aa:	90                   	nop
    17ab:	c9                   	leaveq 
    17ac:	c3                   	retq   

00000000000017ad <_ZSt4moveIRPFbxxEEONSt16remove_referenceIT_E4typeEOS4_>:
    17ad:	55                   	push   %rbp
    17ae:	48 89 e5             	mov    %rsp,%rbp
    17b1:	48 89 7d f8          	mov    %rdi,-0x8(%rbp)
    17b5:	48 8b 45 f8          	mov    -0x8(%rbp),%rax
    17b9:	5d                   	pop    %rbp
    17ba:	c3                   	retq   
    17bb:	90                   	nop

00000000000017bc <_ZN9__gnu_cxx5__ops15_Iter_comp_iterIPFbxxEEC1ES3_>:
    17bc:	55                   	push   %rbp
    17bd:	48 89 e5             	mov    %rsp,%rbp
    17c0:	48 83 ec 10          	sub    $0x10,%rsp
    17c4:	48 89 7d f8          	mov    %rdi,-0x8(%rbp)
    17c8:	48 89 75 f0          	mov    %rsi,-0x10(%rbp)
    17cc:	48 8d 45 f0          	lea    -0x10(%rbp),%rax
    17d0:	48 89 c7             	mov    %rax,%rdi
    17d3:	e8 d5 ff ff ff       	callq  17ad <_ZSt4moveIRPFbxxEEONSt16remove_referenceIT_E4typeEOS4_>
    17d8:	48 8b 10             	mov    (%rax),%rdx
    17db:	48 8b 45 f8          	mov    -0x8(%rbp),%rax
    17df:	48 89 10             	mov    %rdx,(%rax)
    17e2:	90                   	nop
    17e3:	c9                   	leaveq 
    17e4:	c3                   	retq   

00000000000017e5 <_ZSt16__introsort_loopIPilN9__gnu_cxx5__ops15_Iter_comp_iterIPFbxxEEEEvT_S7_T0_T1_>:
    17e5:	55                   	push   %rbp
    17e6:	48 89 e5             	mov    %rsp,%rbp
    17e9:	48 83 ec 30          	sub    $0x30,%rsp
    17ed:	48 89 7d e8          	mov    %rdi,-0x18(%rbp)
    17f1:	48 89 75 e0          	mov    %rsi,-0x20(%rbp)
    17f5:	48 89 55 d8          	mov    %rdx,-0x28(%rbp)
    17f9:	48 89 4d d0          	mov    %rcx,-0x30(%rbp)
    17fd:	48 8b 45 e0          	mov    -0x20(%rbp),%rax
    1801:	48 2b 45 e8          	sub    -0x18(%rbp),%rax
    1805:	48 83 f8 40          	cmp    $0x40,%rax
    1809:	7e 63                	jle    186e <_ZSt16__introsort_loopIPilN9__gnu_cxx5__ops15_Iter_comp_iterIPFbxxEEEEvT_S7_T0_T1_+0x89>
    180b:	48 83 7d d8 00       	cmpq   $0x0,-0x28(%rbp)
    1810:	75 1a                	jne    182c <_ZSt16__introsort_loopIPilN9__gnu_cxx5__ops15_Iter_comp_iterIPFbxxEEEEvT_S7_T0_T1_+0x47>
    1812:	48 8b 4d d0          	mov    -0x30(%rbp),%rcx
    1816:	48 8b 55 e0          	mov    -0x20(%rbp),%rdx
    181a:	48 8b 75 e0          	mov    -0x20(%rbp),%rsi
    181e:	48 8b 45 e8          	mov    -0x18(%rbp),%rax
    1822:	48 89 c7             	mov    %rax,%rdi
    1825:	e8 ba 00 00 00       	callq  18e4 <_ZSt14__partial_sortIPiN9__gnu_cxx5__ops15_Iter_comp_iterIPFbxxEEEEvT_S7_S7_T0_>
    182a:	eb 42                	jmp    186e <_ZSt16__introsort_loopIPilN9__gnu_cxx5__ops15_Iter_comp_iterIPFbxxEEEEvT_S7_T0_T1_+0x89>
    182c:	48 83 6d d8 01       	subq   $0x1,-0x28(%rbp)
    1831:	48 8b 55 d0          	mov    -0x30(%rbp),%rdx
    1835:	48 8b 4d e0          	mov    -0x20(%rbp),%rcx
    1839:	48 8b 45 e8          	mov    -0x18(%rbp),%rax
    183d:	48 89 ce             	mov    %rcx,%rsi
    1840:	48 89 c7             	mov    %rax,%rdi
    1843:	e8 e6 00 00 00       	callq  192e <_ZSt27__unguarded_partition_pivotIPiN9__gnu_cxx5__ops15_Iter_comp_iterIPFbxxEEEET_S7_S7_T0_>
    1848:	48 89 45 f8          	mov    %rax,-0x8(%rbp)
    184c:	48 8b 4d d0          	mov    -0x30(%rbp),%rcx
    1850:	48 8b 55 d8          	mov    -0x28(%rbp),%rdx
    1854:	48 8b 75 e0          	mov    -0x20(%rbp),%rsi
    1858:	48 8b 45 f8          	mov    -0x8(%rbp),%rax
    185c:	48 89 c7             	mov    %rax,%rdi
    185f:	e8 81 ff ff ff       	callq  17e5 <_ZSt16__introsort_loopIPilN9__gnu_cxx5__ops15_Iter_comp_iterIPFbxxEEEEvT_S7_T0_T1_>
    1864:	48 8b 45 f8          	mov    -0x8(%rbp),%rax
    1868:	48 89 45 e0          	mov    %rax,-0x20(%rbp)
    186c:	eb 8f                	jmp    17fd <_ZSt16__introsort_loopIPilN9__gnu_cxx5__ops15_Iter_comp_iterIPFbxxEEEEvT_S7_T0_T1_+0x18>
    186e:	c9                   	leaveq 
    186f:	c3                   	retq   

0000000000001870 <_ZSt22__final_insertion_sortIPiN9__gnu_cxx5__ops15_Iter_comp_iterIPFbxxEEEEvT_S7_T0_>:
    1870:	55                   	push   %rbp
    1871:	48 89 e5             	mov    %rsp,%rbp
    1874:	48 83 ec 20          	sub    $0x20,%rsp
    1878:	48 89 7d f8          	mov    %rdi,-0x8(%rbp)
    187c:	48 89 75 f0          	mov    %rsi,-0x10(%rbp)
    1880:	48 89 55 e8          	mov    %rdx,-0x18(%rbp)
    1884:	48 8b 45 f0          	mov    -0x10(%rbp),%rax
    1888:	48 2b 45 f8          	sub    -0x8(%rbp),%rax
    188c:	48 83 f8 40          	cmp    $0x40,%rax
    1890:	7e 38                	jle    18ca <_ZSt22__final_insertion_sortIPiN9__gnu_cxx5__ops15_Iter_comp_iterIPFbxxEEEEvT_S7_T0_+0x5a>
    1892:	48 8b 45 f8          	mov    -0x8(%rbp),%rax
    1896:	48 8d 48 40          	lea    0x40(%rax),%rcx
    189a:	48 8b 55 e8          	mov    -0x18(%rbp),%rdx
    189e:	48 8b 45 f8          	mov    -0x8(%rbp),%rax
    18a2:	48 89 ce             	mov    %rcx,%rsi
    18a5:	48 89 c7             	mov    %rax,%rdi
    18a8:	e8 06 01 00 00       	callq  19b3 <_ZSt16__insertion_sortIPiN9__gnu_cxx5__ops15_Iter_comp_iterIPFbxxEEEEvT_S7_T0_>
    18ad:	48 8b 45 f8          	mov    -0x8(%rbp),%rax
    18b1:	48 8d 48 40          	lea    0x40(%rax),%rcx
    18b5:	48 8b 55 e8          	mov    -0x18(%rbp),%rdx
    18b9:	48 8b 45 f0          	mov    -0x10(%rbp),%rax
    18bd:	48 89 c6             	mov    %rax,%rsi
    18c0:	48 89 cf             	mov    %rcx,%rdi
    18c3:	e8 af 01 00 00       	callq  1a77 <_ZSt26__unguarded_insertion_sortIPiN9__gnu_cxx5__ops15_Iter_comp_iterIPFbxxEEEEvT_S7_T0_>
    18c8:	eb 17                	jmp    18e1 <_ZSt22__final_insertion_sortIPiN9__gnu_cxx5__ops15_Iter_comp_iterIPFbxxEEEEvT_S7_T0_+0x71>
    18ca:	48 8b 55 e8          	mov    -0x18(%rbp),%rdx
    18ce:	48 8b 4d f0          	mov    -0x10(%rbp),%rcx
    18d2:	48 8b 45 f8          	mov    -0x8(%rbp),%rax
    18d6:	48 89 ce             	mov    %rcx,%rsi
    18d9:	48 89 c7             	mov    %rax,%rdi
    18dc:	e8 d2 00 00 00       	callq  19b3 <_ZSt16__insertion_sortIPiN9__gnu_cxx5__ops15_Iter_comp_iterIPFbxxEEEEvT_S7_T0_>
    18e1:	90                   	nop
    18e2:	c9                   	leaveq 
    18e3:	c3                   	retq   

00000000000018e4 <_ZSt14__partial_sortIPiN9__gnu_cxx5__ops15_Iter_comp_iterIPFbxxEEEEvT_S7_S7_T0_>:
    18e4:	55                   	push   %rbp
    18e5:	48 89 e5             	mov    %rsp,%rbp
    18e8:	48 83 ec 20          	sub    $0x20,%rsp
    18ec:	48 89 7d f8          	mov    %rdi,-0x8(%rbp)
    18f0:	48 89 75 f0          	mov    %rsi,-0x10(%rbp)
    18f4:	48 89 55 e8          	mov    %rdx,-0x18(%rbp)
    18f8:	48 89 4d e0          	mov    %rcx,-0x20(%rbp)
    18fc:	48 8b 4d e0          	mov    -0x20(%rbp),%rcx
    1900:	48 8b 55 e8          	mov    -0x18(%rbp),%rdx
    1904:	48 8b 75 f0          	mov    -0x10(%rbp),%rsi
    1908:	48 8b 45 f8          	mov    -0x8(%rbp),%rax
    190c:	48 89 c7             	mov    %rax,%rdi
    190f:	e8 b1 01 00 00       	callq  1ac5 <_ZSt13__heap_selectIPiN9__gnu_cxx5__ops15_Iter_comp_iterIPFbxxEEEEvT_S7_S7_T0_>
    1914:	48 8d 55 e0          	lea    -0x20(%rbp),%rdx
    1918:	48 8b 4d f0          	mov    -0x10(%rbp),%rcx
    191c:	48 8b 45 f8          	mov    -0x8(%rbp),%rax
    1920:	48 89 ce             	mov    %rcx,%rsi
    1923:	48 89 c7             	mov    %rax,%rdi
    1926:	e8 18 02 00 00       	callq  1b43 <_ZSt11__sort_heapIPiN9__gnu_cxx5__ops15_Iter_comp_iterIPFbxxEEEEvT_S7_RT0_>
    192b:	90                   	nop
    192c:	c9                   	leaveq 
    192d:	c3                   	retq   

000000000000192e <_ZSt27__unguarded_partition_pivotIPiN9__gnu_cxx5__ops15_Iter_comp_iterIPFbxxEEEET_S7_S7_T0_>:
    192e:	55                   	push   %rbp
    192f:	48 89 e5             	mov    %rsp,%rbp
    1932:	48 83 ec 30          	sub    $0x30,%rsp
    1936:	48 89 7d e8          	mov    %rdi,-0x18(%rbp)
    193a:	48 89 75 e0          	mov    %rsi,-0x20(%rbp)
    193e:	48 89 55 d8          	mov    %rdx,-0x28(%rbp)
    1942:	48 8b 45 e0          	mov    -0x20(%rbp),%rax
    1946:	48 2b 45 e8          	sub    -0x18(%rbp),%rax
    194a:	48 c1 f8 02          	sar    $0x2,%rax
    194e:	48 89 c2             	mov    %rax,%rdx
    1951:	48 c1 ea 3f          	shr    $0x3f,%rdx
    1955:	48 01 d0             	add    %rdx,%rax
    1958:	48 d1 f8             	sar    %rax
    195b:	48 8d 14 85 00 00 00 	lea    0x0(,%rax,4),%rdx
    1962:	00 
    1963:	48 8b 45 e8          	mov    -0x18(%rbp),%rax
    1967:	48 01 d0             	add    %rdx,%rax
    196a:	48 89 45 f8          	mov    %rax,-0x8(%rbp)
    196e:	48 8b 45 e0          	mov    -0x20(%rbp),%rax
    1972:	48 8d 48 fc          	lea    -0x4(%rax),%rcx
    1976:	48 8b 45 e8          	mov    -0x18(%rbp),%rax
    197a:	48 8d 70 04          	lea    0x4(%rax),%rsi
    197e:	48 8b 7d d8          	mov    -0x28(%rbp),%rdi
    1982:	48 8b 55 f8          	mov    -0x8(%rbp),%rdx
    1986:	48 8b 45 e8          	mov    -0x18(%rbp),%rax
    198a:	49 89 f8             	mov    %rdi,%r8
    198d:	48 89 c7             	mov    %rax,%rdi
    1990:	e8 29 02 00 00       	callq  1bbe <_ZSt22__move_median_to_firstIPiN9__gnu_cxx5__ops15_Iter_comp_iterIPFbxxEEEEvT_S7_S7_S7_T0_>
    1995:	48 8b 45 e8          	mov    -0x18(%rbp),%rax
    1999:	48 8d 78 04          	lea    0x4(%rax),%rdi
    199d:	48 8b 4d d8          	mov    -0x28(%rbp),%rcx
    19a1:	48 8b 55 e8          	mov    -0x18(%rbp),%rdx
    19a5:	48 8b 45 e0          	mov    -0x20(%rbp),%rax
    19a9:	48 89 c6             	mov    %rax,%rsi
    19ac:	e8 35 03 00 00       	callq  1ce6 <_ZSt21__unguarded_partitionIPiN9__gnu_cxx5__ops15_Iter_comp_iterIPFbxxEEEET_S7_S7_S7_T0_>
    19b1:	c9                   	leaveq 
    19b2:	c3                   	retq   

00000000000019b3 <_ZSt16__insertion_sortIPiN9__gnu_cxx5__ops15_Iter_comp_iterIPFbxxEEEEvT_S7_T0_>:
    19b3:	55                   	push   %rbp
    19b4:	48 89 e5             	mov    %rsp,%rbp
    19b7:	48 83 ec 30          	sub    $0x30,%rsp
    19bb:	48 89 7d e8          	mov    %rdi,-0x18(%rbp)
    19bf:	48 89 75 e0          	mov    %rsi,-0x20(%rbp)
    19c3:	48 89 55 d8          	mov    %rdx,-0x28(%rbp)
    19c7:	48 8b 45 e8          	mov    -0x18(%rbp),%rax
    19cb:	48 3b 45 e0          	cmp    -0x20(%rbp),%rax
    19cf:	0f 84 9f 00 00 00    	je     1a74 <_ZSt16__insertion_sortIPiN9__gnu_cxx5__ops15_Iter_comp_iterIPFbxxEEEEvT_S7_T0_+0xc1>
    19d5:	48 8b 45 e8          	mov    -0x18(%rbp),%rax
    19d9:	48 83 c0 04          	add    $0x4,%rax
    19dd:	48 89 45 f8          	mov    %rax,-0x8(%rbp)
    19e1:	48 8b 45 f8          	mov    -0x8(%rbp),%rax
    19e5:	48 3b 45 e0          	cmp    -0x20(%rbp),%rax
    19e9:	0f 84 86 00 00 00    	je     1a75 <_ZSt16__insertion_sortIPiN9__gnu_cxx5__ops15_Iter_comp_iterIPFbxxEEEEvT_S7_T0_+0xc2>
    19ef:	48 8b 55 e8          	mov    -0x18(%rbp),%rdx
    19f3:	48 8b 4d f8          	mov    -0x8(%rbp),%rcx
    19f7:	48 8d 45 d8          	lea    -0x28(%rbp),%rax
    19fb:	48 89 ce             	mov    %rcx,%rsi
    19fe:	48 89 c7             	mov    %rax,%rdi
    1a01:	e8 82 01 00 00       	callq  1b88 <_ZN9__gnu_cxx5__ops15_Iter_comp_iterIPFbxxEEclIPiS6_EEbT_T0_>
    1a06:	84 c0                	test   %al,%al
    1a08:	74 42                	je     1a4c <_ZSt16__insertion_sortIPiN9__gnu_cxx5__ops15_Iter_comp_iterIPFbxxEEEEvT_S7_T0_+0x99>
    1a0a:	48 8b 45 f8          	mov    -0x8(%rbp),%rax
    1a0e:	48 89 c7             	mov    %rax,%rdi
    1a11:	e8 5d 03 00 00       	callq  1d73 <_ZSt4moveIRiEONSt16remove_referenceIT_E4typeEOS2_>
    1a16:	8b 00                	mov    (%rax),%eax
    1a18:	89 45 f4             	mov    %eax,-0xc(%rbp)
    1a1b:	48 8b 45 f8          	mov    -0x8(%rbp),%rax
    1a1f:	48 8d 50 04          	lea    0x4(%rax),%rdx
    1a23:	48 8b 4d f8          	mov    -0x8(%rbp),%rcx
    1a27:	48 8b 45 e8          	mov    -0x18(%rbp),%rax
    1a2b:	48 89 ce             	mov    %rcx,%rsi
    1a2e:	48 89 c7             	mov    %rax,%rdi
    1a31:	e8 4b 03 00 00       	callq  1d81 <_ZSt13move_backwardIPiS0_ET0_T_S2_S1_>
    1a36:	48 8d 45 f4          	lea    -0xc(%rbp),%rax
    1a3a:	48 89 c7             	mov    %rax,%rdi
    1a3d:	e8 31 03 00 00       	callq  1d73 <_ZSt4moveIRiEONSt16remove_referenceIT_E4typeEOS2_>
    1a42:	8b 10                	mov    (%rax),%edx
    1a44:	48 8b 45 e8          	mov    -0x18(%rbp),%rax
    1a48:	89 10                	mov    %edx,(%rax)
    1a4a:	eb 1e                	jmp    1a6a <_ZSt16__insertion_sortIPiN9__gnu_cxx5__ops15_Iter_comp_iterIPFbxxEEEEvT_S7_T0_+0xb7>
    1a4c:	48 8b 45 d8          	mov    -0x28(%rbp),%rax
    1a50:	48 89 c7             	mov    %rax,%rdi
    1a53:	e8 75 03 00 00       	callq  1dcd <_ZN9__gnu_cxx5__ops15__val_comp_iterIPFbxxEEENS0_14_Val_comp_iterIT_EENS0_15_Iter_comp_iterIS5_EE>
    1a58:	48 89 c2             	mov    %rax,%rdx
    1a5b:	48 8b 45 f8          	mov    -0x8(%rbp),%rax
    1a5f:	48 89 d6             	mov    %rdx,%rsi
    1a62:	48 89 c7             	mov    %rax,%rdi
    1a65:	e8 93 03 00 00       	callq  1dfd <_ZSt25__unguarded_linear_insertIPiN9__gnu_cxx5__ops14_Val_comp_iterIPFbxxEEEEvT_T0_>
    1a6a:	48 83 45 f8 04       	addq   $0x4,-0x8(%rbp)
    1a6f:	e9 6d ff ff ff       	jmpq   19e1 <_ZSt16__insertion_sortIPiN9__gnu_cxx5__ops15_Iter_comp_iterIPFbxxEEEEvT_S7_T0_+0x2e>
    1a74:	90                   	nop
    1a75:	c9                   	leaveq 
    1a76:	c3                   	retq   

0000000000001a77 <_ZSt26__unguarded_insertion_sortIPiN9__gnu_cxx5__ops15_Iter_comp_iterIPFbxxEEEEvT_S7_T0_>:
    1a77:	55                   	push   %rbp
    1a78:	48 89 e5             	mov    %rsp,%rbp
    1a7b:	48 83 ec 30          	sub    $0x30,%rsp
    1a7f:	48 89 7d e8          	mov    %rdi,-0x18(%rbp)
    1a83:	48 89 75 e0          	mov    %rsi,-0x20(%rbp)
    1a87:	48 89 55 d8          	mov    %rdx,-0x28(%rbp)
    1a8b:	48 8b 45 e8          	mov    -0x18(%rbp),%rax
    1a8f:	48 89 45 f8          	mov    %rax,-0x8(%rbp)
    1a93:	48 8b 45 f8          	mov    -0x8(%rbp),%rax
    1a97:	48 3b 45 e0          	cmp    -0x20(%rbp),%rax
    1a9b:	74 25                	je     1ac2 <_ZSt26__unguarded_insertion_sortIPiN9__gnu_cxx5__ops15_Iter_comp_iterIPFbxxEEEEvT_S7_T0_+0x4b>
    1a9d:	48 8b 45 d8          	mov    -0x28(%rbp),%rax
    1aa1:	48 89 c7             	mov    %rax,%rdi
    1aa4:	e8 24 03 00 00       	callq  1dcd <_ZN9__gnu_cxx5__ops15__val_comp_iterIPFbxxEEENS0_14_Val_comp_iterIT_EENS0_15_Iter_comp_iterIS5_EE>
    1aa9:	48 89 c2             	mov    %rax,%rdx
    1aac:	48 8b 45 f8          	mov    -0x8(%rbp),%rax
    1ab0:	48 89 d6             	mov    %rdx,%rsi
    1ab3:	48 89 c7             	mov    %rax,%rdi
    1ab6:	e8 42 03 00 00       	callq  1dfd <_ZSt25__unguarded_linear_insertIPiN9__gnu_cxx5__ops14_Val_comp_iterIPFbxxEEEEvT_T0_>
    1abb:	48 83 45 f8 04       	addq   $0x4,-0x8(%rbp)
    1ac0:	eb d1                	jmp    1a93 <_ZSt26__unguarded_insertion_sortIPiN9__gnu_cxx5__ops15_Iter_comp_iterIPFbxxEEEEvT_S7_T0_+0x1c>
    1ac2:	90                   	nop
    1ac3:	c9                   	leaveq 
    1ac4:	c3                   	retq   

0000000000001ac5 <_ZSt13__heap_selectIPiN9__gnu_cxx5__ops15_Iter_comp_iterIPFbxxEEEEvT_S7_S7_T0_>:
    1ac5:	55                   	push   %rbp
    1ac6:	48 89 e5             	mov    %rsp,%rbp
    1ac9:	48 83 ec 30          	sub    $0x30,%rsp
    1acd:	48 89 7d e8          	mov    %rdi,-0x18(%rbp)
    1ad1:	48 89 75 e0          	mov    %rsi,-0x20(%rbp)
    1ad5:	48 89 55 d8          	mov    %rdx,-0x28(%rbp)
    1ad9:	48 89 4d d0          	mov    %rcx,-0x30(%rbp)
    1add:	48 8d 55 d0          	lea    -0x30(%rbp),%rdx
    1ae1:	48 8b 4d e0          	mov    -0x20(%rbp),%rcx
    1ae5:	48 8b 45 e8          	mov    -0x18(%rbp),%rax
    1ae9:	48 89 ce             	mov    %rcx,%rsi
    1aec:	48 89 c7             	mov    %rax,%rdi
    1aef:	e8 8c 03 00 00       	callq  1e80 <_ZSt11__make_heapIPiN9__gnu_cxx5__ops15_Iter_comp_iterIPFbxxEEEEvT_S7_RT0_>
    1af4:	48 8b 45 e0          	mov    -0x20(%rbp),%rax
    1af8:	48 89 45 f8          	mov    %rax,-0x8(%rbp)
    1afc:	48 8b 45 f8          	mov    -0x8(%rbp),%rax
    1b00:	48 3b 45 d8          	cmp    -0x28(%rbp),%rax
    1b04:	73 3a                	jae    1b40 <_ZSt13__heap_selectIPiN9__gnu_cxx5__ops15_Iter_comp_iterIPFbxxEEEEvT_S7_S7_T0_+0x7b>
    1b06:	48 8b 55 e8          	mov    -0x18(%rbp),%rdx
    1b0a:	48 8b 4d f8          	mov    -0x8(%rbp),%rcx
    1b0e:	48 8d 45 d0          	lea    -0x30(%rbp),%rax
    1b12:	48 89 ce             	mov    %rcx,%rsi
    1b15:	48 89 c7             	mov    %rax,%rdi
    1b18:	e8 6b 00 00 00       	callq  1b88 <_ZN9__gnu_cxx5__ops15_Iter_comp_iterIPFbxxEEclIPiS6_EEbT_T0_>
    1b1d:	84 c0                	test   %al,%al
    1b1f:	74 18                	je     1b39 <_ZSt13__heap_selectIPiN9__gnu_cxx5__ops15_Iter_comp_iterIPFbxxEEEEvT_S7_S7_T0_+0x74>
    1b21:	48 8d 4d d0          	lea    -0x30(%rbp),%rcx
    1b25:	48 8b 55 f8          	mov    -0x8(%rbp),%rdx
    1b29:	48 8b 75 e0          	mov    -0x20(%rbp),%rsi
    1b2d:	48 8b 45 e8          	mov    -0x18(%rbp),%rax
    1b31:	48 89 c7             	mov    %rax,%rdi
    1b34:	e8 f3 03 00 00       	callq  1f2c <_ZSt10__pop_heapIPiN9__gnu_cxx5__ops15_Iter_comp_iterIPFbxxEEEEvT_S7_S7_RT0_>
    1b39:	48 83 45 f8 04       	addq   $0x4,-0x8(%rbp)
    1b3e:	eb bc                	jmp    1afc <_ZSt13__heap_selectIPiN9__gnu_cxx5__ops15_Iter_comp_iterIPFbxxEEEEvT_S7_S7_T0_+0x37>
    1b40:	90                   	nop
    1b41:	c9                   	leaveq 
    1b42:	c3                   	retq   

0000000000001b43 <_ZSt11__sort_heapIPiN9__gnu_cxx5__ops15_Iter_comp_iterIPFbxxEEEEvT_S7_RT0_>:
    1b43:	55                   	push   %rbp
    1b44:	48 89 e5             	mov    %rsp,%rbp
    1b47:	48 83 ec 20          	sub    $0x20,%rsp
    1b4b:	48 89 7d f8          	mov    %rdi,-0x8(%rbp)
    1b4f:	48 89 75 f0          	mov    %rsi,-0x10(%rbp)
    1b53:	48 89 55 e8          	mov    %rdx,-0x18(%rbp)
    1b57:	48 8b 45 f0          	mov    -0x10(%rbp),%rax
    1b5b:	48 2b 45 f8          	sub    -0x8(%rbp),%rax
    1b5f:	48 83 f8 04          	cmp    $0x4,%rax
    1b63:	7e 1f                	jle    1b84 <_ZSt11__sort_heapIPiN9__gnu_cxx5__ops15_Iter_comp_iterIPFbxxEEEEvT_S7_RT0_+0x41>
    1b65:	48 83 6d f0 04       	subq   $0x4,-0x10(%rbp)
    1b6a:	48 8b 4d e8          	mov    -0x18(%rbp),%rcx
    1b6e:	48 8b 55 f0          	mov    -0x10(%rbp),%rdx
    1b72:	48 8b 75 f0          	mov    -0x10(%rbp),%rsi
    1b76:	48 8b 45 f8          	mov    -0x8(%rbp),%rax
    1b7a:	48 89 c7             	mov    %rax,%rdi
    1b7d:	e8 aa 03 00 00       	callq  1f2c <_ZSt10__pop_heapIPiN9__gnu_cxx5__ops15_Iter_comp_iterIPFbxxEEEEvT_S7_S7_RT0_>
    1b82:	eb d3                	jmp    1b57 <_ZSt11__sort_heapIPiN9__gnu_cxx5__ops15_Iter_comp_iterIPFbxxEEEEvT_S7_RT0_+0x14>
    1b84:	90                   	nop
    1b85:	c9                   	leaveq 
    1b86:	c3                   	retq   
    1b87:	90                   	nop

0000000000001b88 <_ZN9__gnu_cxx5__ops15_Iter_comp_iterIPFbxxEEclIPiS6_EEbT_T0_>:
    1b88:	55                   	push   %rbp
    1b89:	48 89 e5             	mov    %rsp,%rbp
    1b8c:	48 83 ec 20          	sub    $0x20,%rsp
    1b90:	48 89 7d f8          	mov    %rdi,-0x8(%rbp)
    1b94:	48 89 75 f0          	mov    %rsi,-0x10(%rbp)
    1b98:	48 89 55 e8          	mov    %rdx,-0x18(%rbp)
    1b9c:	48 8b 45 f8          	mov    -0x8(%rbp),%rax
    1ba0:	48 8b 08             	mov    (%rax),%rcx
    1ba3:	48 8b 45 e8          	mov    -0x18(%rbp),%rax
    1ba7:	8b 00                	mov    (%rax),%eax
    1ba9:	48 63 d0             	movslq %eax,%rdx
    1bac:	48 8b 45 f0          	mov    -0x10(%rbp),%rax
    1bb0:	8b 00                	mov    (%rax),%eax
    1bb2:	48 98                	cltq   
    1bb4:	48 89 d6             	mov    %rdx,%rsi
    1bb7:	48 89 c7             	mov    %rax,%rdi
    1bba:	ff d1                	callq  *%rcx
    1bbc:	c9                   	leaveq 
    1bbd:	c3                   	retq   

0000000000001bbe <_ZSt22__move_median_to_firstIPiN9__gnu_cxx5__ops15_Iter_comp_iterIPFbxxEEEEvT_S7_S7_S7_T0_>:
    1bbe:	55                   	push   %rbp
    1bbf:	48 89 e5             	mov    %rsp,%rbp
    1bc2:	48 83 ec 30          	sub    $0x30,%rsp
    1bc6:	48 89 7d f8          	mov    %rdi,-0x8(%rbp)
    1bca:	48 89 75 f0          	mov    %rsi,-0x10(%rbp)
    1bce:	48 89 55 e8          	mov    %rdx,-0x18(%rbp)
    1bd2:	48 89 4d e0          	mov    %rcx,-0x20(%rbp)
    1bd6:	4c 89 45 d8          	mov    %r8,-0x28(%rbp)
    1bda:	48 8b 55 e8          	mov    -0x18(%rbp),%rdx
    1bde:	48 8b 4d f0          	mov    -0x10(%rbp),%rcx
    1be2:	48 8d 45 d8          	lea    -0x28(%rbp),%rax
    1be6:	48 89 ce             	mov    %rcx,%rsi
    1be9:	48 89 c7             	mov    %rax,%rdi
    1bec:	e8 97 ff ff ff       	callq  1b88 <_ZN9__gnu_cxx5__ops15_Iter_comp_iterIPFbxxEEclIPiS6_EEbT_T0_>
    1bf1:	84 c0                	test   %al,%al
    1bf3:	74 7b                	je     1c70 <_ZSt22__move_median_to_firstIPiN9__gnu_cxx5__ops15_Iter_comp_iterIPFbxxEEEEvT_S7_S7_S7_T0_+0xb2>
    1bf5:	48 8b 55 e0          	mov    -0x20(%rbp),%rdx
    1bf9:	48 8b 4d e8          	mov    -0x18(%rbp),%rcx
    1bfd:	48 8d 45 d8          	lea    -0x28(%rbp),%rax
    1c01:	48 89 ce             	mov    %rcx,%rsi
    1c04:	48 89 c7             	mov    %rax,%rdi
    1c07:	e8 7c ff ff ff       	callq  1b88 <_ZN9__gnu_cxx5__ops15_Iter_comp_iterIPFbxxEEclIPiS6_EEbT_T0_>
    1c0c:	84 c0                	test   %al,%al
    1c0e:	74 18                	je     1c28 <_ZSt22__move_median_to_firstIPiN9__gnu_cxx5__ops15_Iter_comp_iterIPFbxxEEEEvT_S7_S7_S7_T0_+0x6a>
    1c10:	48 8b 55 e8          	mov    -0x18(%rbp),%rdx
    1c14:	48 8b 45 f8          	mov    -0x8(%rbp),%rax
    1c18:	48 89 d6             	mov    %rdx,%rsi
    1c1b:	48 89 c7             	mov    %rax,%rdi
    1c1e:	e8 83 03 00 00       	callq  1fa6 <_ZSt9iter_swapIPiS0_EvT_T0_>
    1c23:	e9 bb 00 00 00       	jmpq   1ce3 <_ZSt22__move_median_to_firstIPiN9__gnu_cxx5__ops15_Iter_comp_iterIPFbxxEEEEvT_S7_S7_S7_T0_+0x125>
    1c28:	48 8b 55 e0          	mov    -0x20(%rbp),%rdx
    1c2c:	48 8b 4d f0          	mov    -0x10(%rbp),%rcx
    1c30:	48 8d 45 d8          	lea    -0x28(%rbp),%rax
    1c34:	48 89 ce             	mov    %rcx,%rsi
    1c37:	48 89 c7             	mov    %rax,%rdi
    1c3a:	e8 49 ff ff ff       	callq  1b88 <_ZN9__gnu_cxx5__ops15_Iter_comp_iterIPFbxxEEclIPiS6_EEbT_T0_>
    1c3f:	84 c0                	test   %al,%al
    1c41:	74 18                	je     1c5b <_ZSt22__move_median_to_firstIPiN9__gnu_cxx5__ops15_Iter_comp_iterIPFbxxEEEEvT_S7_S7_S7_T0_+0x9d>
    1c43:	48 8b 55 e0          	mov    -0x20(%rbp),%rdx
    1c47:	48 8b 45 f8          	mov    -0x8(%rbp),%rax
    1c4b:	48 89 d6             	mov    %rdx,%rsi
    1c4e:	48 89 c7             	mov    %rax,%rdi
    1c51:	e8 50 03 00 00       	callq  1fa6 <_ZSt9iter_swapIPiS0_EvT_T0_>
    1c56:	e9 88 00 00 00       	jmpq   1ce3 <_ZSt22__move_median_to_firstIPiN9__gnu_cxx5__ops15_Iter_comp_iterIPFbxxEEEEvT_S7_S7_S7_T0_+0x125>
    1c5b:	48 8b 55 f0          	mov    -0x10(%rbp),%rdx
    1c5f:	48 8b 45 f8          	mov    -0x8(%rbp),%rax
    1c63:	48 89 d6             	mov    %rdx,%rsi
    1c66:	48 89 c7             	mov    %rax,%rdi
    1c69:	e8 38 03 00 00       	callq  1fa6 <_ZSt9iter_swapIPiS0_EvT_T0_>
    1c6e:	eb 73                	jmp    1ce3 <_ZSt22__move_median_to_firstIPiN9__gnu_cxx5__ops15_Iter_comp_iterIPFbxxEEEEvT_S7_S7_S7_T0_+0x125>
    1c70:	48 8b 55 e0          	mov    -0x20(%rbp),%rdx
    1c74:	48 8b 4d f0          	mov    -0x10(%rbp),%rcx
    1c78:	48 8d 45 d8          	lea    -0x28(%rbp),%rax
    1c7c:	48 89 ce             	mov    %rcx,%rsi
    1c7f:	48 89 c7             	mov    %rax,%rdi
    1c82:	e8 01 ff ff ff       	callq  1b88 <_ZN9__gnu_cxx5__ops15_Iter_comp_iterIPFbxxEEclIPiS6_EEbT_T0_>
    1c87:	84 c0                	test   %al,%al
    1c89:	74 15                	je     1ca0 <_ZSt22__move_median_to_firstIPiN9__gnu_cxx5__ops15_Iter_comp_iterIPFbxxEEEEvT_S7_S7_S7_T0_+0xe2>
    1c8b:	48 8b 55 f0          	mov    -0x10(%rbp),%rdx
    1c8f:	48 8b 45 f8          	mov    -0x8(%rbp),%rax
    1c93:	48 89 d6             	mov    %rdx,%rsi
    1c96:	48 89 c7             	mov    %rax,%rdi
    1c99:	e8 08 03 00 00       	callq  1fa6 <_ZSt9iter_swapIPiS0_EvT_T0_>
    1c9e:	eb 43                	jmp    1ce3 <_ZSt22__move_median_to_firstIPiN9__gnu_cxx5__ops15_Iter_comp_iterIPFbxxEEEEvT_S7_S7_S7_T0_+0x125>
    1ca0:	48 8b 55 e0          	mov    -0x20(%rbp),%rdx
    1ca4:	48 8b 4d e8          	mov    -0x18(%rbp),%rcx
    1ca8:	48 8d 45 d8          	lea    -0x28(%rbp),%rax
    1cac:	48 89 ce             	mov    %rcx,%rsi
    1caf:	48 89 c7             	mov    %rax,%rdi
    1cb2:	e8 d1 fe ff ff       	callq  1b88 <_ZN9__gnu_cxx5__ops15_Iter_comp_iterIPFbxxEEclIPiS6_EEbT_T0_>
    1cb7:	84 c0                	test   %al,%al
    1cb9:	74 15                	je     1cd0 <_ZSt22__move_median_to_firstIPiN9__gnu_cxx5__ops15_Iter_comp_iterIPFbxxEEEEvT_S7_S7_S7_T0_+0x112>
    1cbb:	48 8b 55 e0          	mov    -0x20(%rbp),%rdx
    1cbf:	48 8b 45 f8          	mov    -0x8(%rbp),%rax
    1cc3:	48 89 d6             	mov    %rdx,%rsi
    1cc6:	48 89 c7             	mov    %rax,%rdi
    1cc9:	e8 d8 02 00 00       	callq  1fa6 <_ZSt9iter_swapIPiS0_EvT_T0_>
    1cce:	eb 13                	jmp    1ce3 <_ZSt22__move_median_to_firstIPiN9__gnu_cxx5__ops15_Iter_comp_iterIPFbxxEEEEvT_S7_S7_S7_T0_+0x125>
    1cd0:	48 8b 55 e8          	mov    -0x18(%rbp),%rdx
    1cd4:	48 8b 45 f8          	mov    -0x8(%rbp),%rax
    1cd8:	48 89 d6             	mov    %rdx,%rsi
    1cdb:	48 89 c7             	mov    %rax,%rdi
    1cde:	e8 c3 02 00 00       	callq  1fa6 <_ZSt9iter_swapIPiS0_EvT_T0_>
    1ce3:	90                   	nop
    1ce4:	c9                   	leaveq 
    1ce5:	c3                   	retq   

0000000000001ce6 <_ZSt21__unguarded_partitionIPiN9__gnu_cxx5__ops15_Iter_comp_iterIPFbxxEEEET_S7_S7_S7_T0_>:
    1ce6:	55                   	push   %rbp
    1ce7:	48 89 e5             	mov    %rsp,%rbp
    1cea:	48 83 ec 20          	sub    $0x20,%rsp
    1cee:	48 89 7d f8          	mov    %rdi,-0x8(%rbp)
    1cf2:	48 89 75 f0          	mov    %rsi,-0x10(%rbp)
    1cf6:	48 89 55 e8          	mov    %rdx,-0x18(%rbp)
    1cfa:	48 89 4d e0          	mov    %rcx,-0x20(%rbp)
    1cfe:	48 8b 55 e8          	mov    -0x18(%rbp),%rdx
    1d02:	48 8b 4d f8          	mov    -0x8(%rbp),%rcx
    1d06:	48 8d 45 e0          	lea    -0x20(%rbp),%rax
    1d0a:	48 89 ce             	mov    %rcx,%rsi
    1d0d:	48 89 c7             	mov    %rax,%rdi
    1d10:	e8 73 fe ff ff       	callq  1b88 <_ZN9__gnu_cxx5__ops15_Iter_comp_iterIPFbxxEEclIPiS6_EEbT_T0_>
    1d15:	84 c0                	test   %al,%al
    1d17:	74 07                	je     1d20 <_ZSt21__unguarded_partitionIPiN9__gnu_cxx5__ops15_Iter_comp_iterIPFbxxEEEET_S7_S7_S7_T0_+0x3a>
    1d19:	48 83 45 f8 04       	addq   $0x4,-0x8(%rbp)
    1d1e:	eb de                	jmp    1cfe <_ZSt21__unguarded_partitionIPiN9__gnu_cxx5__ops15_Iter_comp_iterIPFbxxEEEET_S7_S7_S7_T0_+0x18>
    1d20:	48 83 6d f0 04       	subq   $0x4,-0x10(%rbp)
    1d25:	48 8b 55 f0          	mov    -0x10(%rbp),%rdx
    1d29:	48 8b 4d e8          	mov    -0x18(%rbp),%rcx
    1d2d:	48 8d 45 e0          	lea    -0x20(%rbp),%rax
    1d31:	48 89 ce             	mov    %rcx,%rsi
    1d34:	48 89 c7             	mov    %rax,%rdi
    1d37:	e8 4c fe ff ff       	callq  1b88 <_ZN9__gnu_cxx5__ops15_Iter_comp_iterIPFbxxEEclIPiS6_EEbT_T0_>
    1d3c:	84 c0                	test   %al,%al
    1d3e:	74 07                	je     1d47 <_ZSt21__unguarded_partitionIPiN9__gnu_cxx5__ops15_Iter_comp_iterIPFbxxEEEET_S7_S7_S7_T0_+0x61>
    1d40:	48 83 6d f0 04       	subq   $0x4,-0x10(%rbp)
    1d45:	eb de                	jmp    1d25 <_ZSt21__unguarded_partitionIPiN9__gnu_cxx5__ops15_Iter_comp_iterIPFbxxEEEET_S7_S7_S7_T0_+0x3f>
    1d47:	48 8b 45 f8          	mov    -0x8(%rbp),%rax
    1d4b:	48 3b 45 f0          	cmp    -0x10(%rbp),%rax
    1d4f:	72 06                	jb     1d57 <_ZSt21__unguarded_partitionIPiN9__gnu_cxx5__ops15_Iter_comp_iterIPFbxxEEEET_S7_S7_S7_T0_+0x71>
    1d51:	48 8b 45 f8          	mov    -0x8(%rbp),%rax
    1d55:	eb 1a                	jmp    1d71 <_ZSt21__unguarded_partitionIPiN9__gnu_cxx5__ops15_Iter_comp_iterIPFbxxEEEET_S7_S7_S7_T0_+0x8b>
    1d57:	48 8b 55 f0          	mov    -0x10(%rbp),%rdx
    1d5b:	48 8b 45 f8          	mov    -0x8(%rbp),%rax
    1d5f:	48 89 d6             	mov    %rdx,%rsi
    1d62:	48 89 c7             	mov    %rax,%rdi
    1d65:	e8 3c 02 00 00       	callq  1fa6 <_ZSt9iter_swapIPiS0_EvT_T0_>
    1d6a:	48 83 45 f8 04       	addq   $0x4,-0x8(%rbp)
    1d6f:	eb 8d                	jmp    1cfe <_ZSt21__unguarded_partitionIPiN9__gnu_cxx5__ops15_Iter_comp_iterIPFbxxEEEET_S7_S7_S7_T0_+0x18>
    1d71:	c9                   	leaveq 
    1d72:	c3                   	retq   

0000000000001d73 <_ZSt4moveIRiEONSt16remove_referenceIT_E4typeEOS2_>:
    1d73:	55                   	push   %rbp
    1d74:	48 89 e5             	mov    %rsp,%rbp
    1d77:	48 89 7d f8          	mov    %rdi,-0x8(%rbp)
    1d7b:	48 8b 45 f8          	mov    -0x8(%rbp),%rax
    1d7f:	5d                   	pop    %rbp
    1d80:	c3                   	retq   

0000000000001d81 <_ZSt13move_backwardIPiS0_ET0_T_S2_S1_>:
    1d81:	55                   	push   %rbp
    1d82:	48 89 e5             	mov    %rsp,%rbp
    1d85:	53                   	push   %rbx
    1d86:	48 83 ec 28          	sub    $0x28,%rsp
    1d8a:	48 89 7d e8          	mov    %rdi,-0x18(%rbp)
    1d8e:	48 89 75 e0          	mov    %rsi,-0x20(%rbp)
    1d92:	48 89 55 d8          	mov    %rdx,-0x28(%rbp)
    1d96:	48 8b 45 e0          	mov    -0x20(%rbp),%rax
    1d9a:	48 89 c7             	mov    %rax,%rdi
    1d9d:	e8 2a 02 00 00       	callq  1fcc <_ZSt12__miter_baseIPiET_S1_>
    1da2:	48 89 c3             	mov    %rax,%rbx
    1da5:	48 8b 45 e8          	mov    -0x18(%rbp),%rax
    1da9:	48 89 c7             	mov    %rax,%rdi
    1dac:	e8 1b 02 00 00       	callq  1fcc <_ZSt12__miter_baseIPiET_S1_>
    1db1:	48 89 c1             	mov    %rax,%rcx
    1db4:	48 8b 45 d8          	mov    -0x28(%rbp),%rax
    1db8:	48 89 c2             	mov    %rax,%rdx
    1dbb:	48 89 de             	mov    %rbx,%rsi
    1dbe:	48 89 cf             	mov    %rcx,%rdi
    1dc1:	e8 14 02 00 00       	callq  1fda <_ZSt23__copy_move_backward_a2ILb1EPiS0_ET1_T0_S2_S1_>
    1dc6:	48 83 c4 28          	add    $0x28,%rsp
    1dca:	5b                   	pop    %rbx
    1dcb:	5d                   	pop    %rbp
    1dcc:	c3                   	retq   

0000000000001dcd <_ZN9__gnu_cxx5__ops15__val_comp_iterIPFbxxEEENS0_14_Val_comp_iterIT_EENS0_15_Iter_comp_iterIS5_EE>:
    1dcd:	55                   	push   %rbp
    1dce:	48 89 e5             	mov    %rsp,%rbp
    1dd1:	48 83 ec 20          	sub    $0x20,%rsp
    1dd5:	48 89 7d e8          	mov    %rdi,-0x18(%rbp)
    1dd9:	48 8d 45 e8          	lea    -0x18(%rbp),%rax
    1ddd:	48 89 c7             	mov    %rax,%rdi
    1de0:	e8 5f 02 00 00       	callq  2044 <_ZSt4moveIRN9__gnu_cxx5__ops15_Iter_comp_iterIPFbxxEEEEONSt16remove_referenceIT_E4typeEOS8_>
    1de5:	48 89 c2             	mov    %rax,%rdx
    1de8:	48 8d 45 f8          	lea    -0x8(%rbp),%rax
    1dec:	48 89 d6             	mov    %rdx,%rsi
    1def:	48 89 c7             	mov    %rax,%rdi
    1df2:	e8 5b 02 00 00       	callq  2052 <_ZN9__gnu_cxx5__ops14_Val_comp_iterIPFbxxEEC1EONS0_15_Iter_comp_iterIS3_EE>
    1df7:	48 8b 45 f8          	mov    -0x8(%rbp),%rax
    1dfb:	c9                   	leaveq 
    1dfc:	c3                   	retq   

0000000000001dfd <_ZSt25__unguarded_linear_insertIPiN9__gnu_cxx5__ops14_Val_comp_iterIPFbxxEEEEvT_T0_>:
    1dfd:	55                   	push   %rbp
    1dfe:	48 89 e5             	mov    %rsp,%rbp
    1e01:	48 83 ec 20          	sub    $0x20,%rsp
    1e05:	48 89 7d e8          	mov    %rdi,-0x18(%rbp)
    1e09:	48 89 75 e0          	mov    %rsi,-0x20(%rbp)
    1e0d:	48 8b 45 e8          	mov    -0x18(%rbp),%rax
    1e11:	48 89 c7             	mov    %rax,%rdi
    1e14:	e8 5a ff ff ff       	callq  1d73 <_ZSt4moveIRiEONSt16remove_referenceIT_E4typeEOS2_>
    1e19:	8b 00                	mov    (%rax),%eax
    1e1b:	89 45 f4             	mov    %eax,-0xc(%rbp)
    1e1e:	48 8b 45 e8          	mov    -0x18(%rbp),%rax
    1e22:	48 89 45 f8          	mov    %rax,-0x8(%rbp)
    1e26:	48 83 6d f8 04       	subq   $0x4,-0x8(%rbp)
    1e2b:	48 8b 55 f8          	mov    -0x8(%rbp),%rdx
    1e2f:	48 8d 4d f4          	lea    -0xc(%rbp),%rcx
    1e33:	48 8d 45 e0          	lea    -0x20(%rbp),%rax
    1e37:	48 89 ce             	mov    %rcx,%rsi
    1e3a:	48 89 c7             	mov    %rax,%rdi
    1e3d:	e8 3a 02 00 00       	callq  207c <_ZN9__gnu_cxx5__ops14_Val_comp_iterIPFbxxEEclIiPiEEbRT_T0_>
    1e42:	84 c0                	test   %al,%al
    1e44:	74 23                	je     1e69 <_ZSt25__unguarded_linear_insertIPiN9__gnu_cxx5__ops14_Val_comp_iterIPFbxxEEEEvT_T0_+0x6c>
    1e46:	48 8b 45 f8          	mov    -0x8(%rbp),%rax
    1e4a:	48 89 c7             	mov    %rax,%rdi
    1e4d:	e8 21 ff ff ff       	callq  1d73 <_ZSt4moveIRiEONSt16remove_referenceIT_E4typeEOS2_>
    1e52:	8b 10                	mov    (%rax),%edx
    1e54:	48 8b 45 e8          	mov    -0x18(%rbp),%rax
    1e58:	89 10                	mov    %edx,(%rax)
    1e5a:	48 8b 45 f8          	mov    -0x8(%rbp),%rax
    1e5e:	48 89 45 e8          	mov    %rax,-0x18(%rbp)
    1e62:	48 83 6d f8 04       	subq   $0x4,-0x8(%rbp)
    1e67:	eb c2                	jmp    1e2b <_ZSt25__unguarded_linear_insertIPiN9__gnu_cxx5__ops14_Val_comp_iterIPFbxxEEEEvT_T0_+0x2e>
    1e69:	48 8d 45 f4          	lea    -0xc(%rbp),%rax
    1e6d:	48 89 c7             	mov    %rax,%rdi
    1e70:	e8 fe fe ff ff       	callq  1d73 <_ZSt4moveIRiEONSt16remove_referenceIT_E4typeEOS2_>
    1e75:	8b 10                	mov    (%rax),%edx
    1e77:	48 8b 45 e8          	mov    -0x18(%rbp),%rax
    1e7b:	89 10                	mov    %edx,(%rax)
    1e7d:	90                   	nop
    1e7e:	c9                   	leaveq 
    1e7f:	c3                   	retq   

0000000000001e80 <_ZSt11__make_heapIPiN9__gnu_cxx5__ops15_Iter_comp_iterIPFbxxEEEEvT_S7_RT0_>:
    1e80:	55                   	push   %rbp
    1e81:	48 89 e5             	mov    %rsp,%rbp
    1e84:	48 83 ec 40          	sub    $0x40,%rsp
    1e88:	48 89 7d d8          	mov    %rdi,-0x28(%rbp)
    1e8c:	48 89 75 d0          	mov    %rsi,-0x30(%rbp)
    1e90:	48 89 55 c8          	mov    %rdx,-0x38(%rbp)
    1e94:	48 8b 45 d0          	mov    -0x30(%rbp),%rax
    1e98:	48 2b 45 d8          	sub    -0x28(%rbp),%rax
    1e9c:	48 83 f8 04          	cmp    $0x4,%rax
    1ea0:	0f 8e 80 00 00 00    	jle    1f26 <_ZSt11__make_heapIPiN9__gnu_cxx5__ops15_Iter_comp_iterIPFbxxEEEEvT_S7_RT0_+0xa6>
    1ea6:	48 8b 45 d0          	mov    -0x30(%rbp),%rax
    1eaa:	48 2b 45 d8          	sub    -0x28(%rbp),%rax
    1eae:	48 c1 f8 02          	sar    $0x2,%rax
    1eb2:	48 89 45 f0          	mov    %rax,-0x10(%rbp)
    1eb6:	48 8b 45 f0          	mov    -0x10(%rbp),%rax
    1eba:	48 83 e8 02          	sub    $0x2,%rax
    1ebe:	48 89 c2             	mov    %rax,%rdx
    1ec1:	48 c1 ea 3f          	shr    $0x3f,%rdx
    1ec5:	48 01 d0             	add    %rdx,%rax
    1ec8:	48 d1 f8             	sar    %rax
    1ecb:	48 89 45 f8          	mov    %rax,-0x8(%rbp)
    1ecf:	48 8b 45 f8          	mov    -0x8(%rbp),%rax
    1ed3:	48 8d 14 85 00 00 00 	lea    0x0(,%rax,4),%rdx
    1eda:	00 
    1edb:	48 8b 45 d8          	mov    -0x28(%rbp),%rax
    1edf:	48 01 d0             	add    %rdx,%rax
    1ee2:	48 89 c7             	mov    %rax,%rdi
    1ee5:	e8 89 fe ff ff       	callq  1d73 <_ZSt4moveIRiEONSt16remove_referenceIT_E4typeEOS2_>
    1eea:	8b 00                	mov    (%rax),%eax
    1eec:	89 45 ec             	mov    %eax,-0x14(%rbp)
    1eef:	48 8d 45 ec          	lea    -0x14(%rbp),%rax
    1ef3:	48 89 c7             	mov    %rax,%rdi
    1ef6:	e8 78 fe ff ff       	callq  1d73 <_ZSt4moveIRiEONSt16remove_referenceIT_E4typeEOS2_>
    1efb:	8b 08                	mov    (%rax),%ecx
    1efd:	48 8b 7d c8          	mov    -0x38(%rbp),%rdi
    1f01:	48 8b 55 f0          	mov    -0x10(%rbp),%rdx
    1f05:	48 8b 75 f8          	mov    -0x8(%rbp),%rsi
    1f09:	48 8b 45 d8          	mov    -0x28(%rbp),%rax
    1f0d:	4c 8b 07             	mov    (%rdi),%r8
    1f10:	48 89 c7             	mov    %rax,%rdi
    1f13:	e8 9a 01 00 00       	callq  20b2 <_ZSt13__adjust_heapIPiliN9__gnu_cxx5__ops15_Iter_comp_iterIPFbxxEEEEvT_T0_S8_T1_T2_>
    1f18:	48 83 7d f8 00       	cmpq   $0x0,-0x8(%rbp)
    1f1d:	74 0a                	je     1f29 <_ZSt11__make_heapIPiN9__gnu_cxx5__ops15_Iter_comp_iterIPFbxxEEEEvT_S7_RT0_+0xa9>
    1f1f:	48 83 6d f8 01       	subq   $0x1,-0x8(%rbp)
    1f24:	eb a9                	jmp    1ecf <_ZSt11__make_heapIPiN9__gnu_cxx5__ops15_Iter_comp_iterIPFbxxEEEEvT_S7_RT0_+0x4f>
    1f26:	90                   	nop
    1f27:	eb 01                	jmp    1f2a <_ZSt11__make_heapIPiN9__gnu_cxx5__ops15_Iter_comp_iterIPFbxxEEEEvT_S7_RT0_+0xaa>
    1f29:	90                   	nop
    1f2a:	c9                   	leaveq 
    1f2b:	c3                   	retq   

0000000000001f2c <_ZSt10__pop_heapIPiN9__gnu_cxx5__ops15_Iter_comp_iterIPFbxxEEEEvT_S7_S7_RT0_>:
    1f2c:	55                   	push   %rbp
    1f2d:	48 89 e5             	mov    %rsp,%rbp
    1f30:	48 83 ec 30          	sub    $0x30,%rsp
    1f34:	48 89 7d e8          	mov    %rdi,-0x18(%rbp)
    1f38:	48 89 75 e0          	mov    %rsi,-0x20(%rbp)
    1f3c:	48 89 55 d8          	mov    %rdx,-0x28(%rbp)
    1f40:	48 89 4d d0          	mov    %rcx,-0x30(%rbp)
    1f44:	48 8b 45 d8          	mov    -0x28(%rbp),%rax
    1f48:	48 89 c7             	mov    %rax,%rdi
    1f4b:	e8 23 fe ff ff       	callq  1d73 <_ZSt4moveIRiEONSt16remove_referenceIT_E4typeEOS2_>
    1f50:	8b 00                	mov    (%rax),%eax
    1f52:	89 45 fc             	mov    %eax,-0x4(%rbp)
    1f55:	48 8b 45 e8          	mov    -0x18(%rbp),%rax
    1f59:	48 89 c7             	mov    %rax,%rdi
    1f5c:	e8 12 fe ff ff       	callq  1d73 <_ZSt4moveIRiEONSt16remove_referenceIT_E4typeEOS2_>
    1f61:	8b 10                	mov    (%rax),%edx
    1f63:	48 8b 45 d8          	mov    -0x28(%rbp),%rax
    1f67:	89 10                	mov    %edx,(%rax)
    1f69:	48 8d 45 fc          	lea    -0x4(%rbp),%rax
    1f6d:	48 89 c7             	mov    %rax,%rdi
    1f70:	e8 fe fd ff ff       	callq  1d73 <_ZSt4moveIRiEONSt16remove_referenceIT_E4typeEOS2_>
    1f75:	8b 10                	mov    (%rax),%edx
    1f77:	48 8b 45 e0          	mov    -0x20(%rbp),%rax
    1f7b:	48 2b 45 e8          	sub    -0x18(%rbp),%rax
    1f7f:	48 c1 f8 02          	sar    $0x2,%rax
    1f83:	48 89 c6             	mov    %rax,%rsi
    1f86:	48 8b 4d d0          	mov    -0x30(%rbp),%rcx
    1f8a:	48 8b 45 e8          	mov    -0x18(%rbp),%rax
    1f8e:	4c 8b 01             	mov    (%rcx),%r8
    1f91:	89 d1                	mov    %edx,%ecx
    1f93:	48 89 f2             	mov    %rsi,%rdx
    1f96:	be 00 00 00 00       	mov    $0x0,%esi
    1f9b:	48 89 c7             	mov    %rax,%rdi
    1f9e:	e8 0f 01 00 00       	callq  20b2 <_ZSt13__adjust_heapIPiliN9__gnu_cxx5__ops15_Iter_comp_iterIPFbxxEEEEvT_T0_S8_T1_T2_>
    1fa3:	90                   	nop
    1fa4:	c9                   	leaveq 
    1fa5:	c3                   	retq   

0000000000001fa6 <_ZSt9iter_swapIPiS0_EvT_T0_>:
    1fa6:	55                   	push   %rbp
    1fa7:	48 89 e5             	mov    %rsp,%rbp
    1faa:	48 83 ec 10          	sub    $0x10,%rsp
    1fae:	48 89 7d f8          	mov    %rdi,-0x8(%rbp)
    1fb2:	48 89 75 f0          	mov    %rsi,-0x10(%rbp)
    1fb6:	48 8b 55 f0          	mov    -0x10(%rbp),%rdx
    1fba:	48 8b 45 f8          	mov    -0x8(%rbp),%rax
    1fbe:	48 89 d6             	mov    %rdx,%rsi
    1fc1:	48 89 c7             	mov    %rax,%rdi
    1fc4:	e8 7d 02 00 00       	callq  2246 <_ZSt4swapIiENSt9enable_ifIXsrSt6__and_IJSt6__not_ISt15__is_tuple_likeIT_EESt21is_move_constructibleIS4_ESt18is_move_assignableIS4_EEE5valueEvE4typeERS4_SE_>
    1fc9:	90                   	nop
    1fca:	c9                   	leaveq 
    1fcb:	c3                   	retq   

0000000000001fcc <_ZSt12__miter_baseIPiET_S1_>:
    1fcc:	55                   	push   %rbp
    1fcd:	48 89 e5             	mov    %rsp,%rbp
    1fd0:	48 89 7d f8          	mov    %rdi,-0x8(%rbp)
    1fd4:	48 8b 45 f8          	mov    -0x8(%rbp),%rax
    1fd8:	5d                   	pop    %rbp
    1fd9:	c3                   	retq   

0000000000001fda <_ZSt23__copy_move_backward_a2ILb1EPiS0_ET1_T0_S2_S1_>:
    1fda:	55                   	push   %rbp
    1fdb:	48 89 e5             	mov    %rsp,%rbp
    1fde:	41 54                	push   %r12
    1fe0:	53                   	push   %rbx
    1fe1:	48 83 ec 20          	sub    $0x20,%rsp
    1fe5:	48 89 7d e8          	mov    %rdi,-0x18(%rbp)
    1fe9:	48 89 75 e0          	mov    %rsi,-0x20(%rbp)
    1fed:	48 89 55 d8          	mov    %rdx,-0x28(%rbp)
    1ff1:	48 8b 45 d8          	mov    -0x28(%rbp),%rax
    1ff5:	48 89 c7             	mov    %rax,%rdi
    1ff8:	e8 95 02 00 00       	callq  2292 <_ZSt12__niter_baseIPiET_S1_>
    1ffd:	49 89 c4             	mov    %rax,%r12
    2000:	48 8b 45 e0          	mov    -0x20(%rbp),%rax
    2004:	48 89 c7             	mov    %rax,%rdi
    2007:	e8 86 02 00 00       	callq  2292 <_ZSt12__niter_baseIPiET_S1_>
    200c:	48 89 c3             	mov    %rax,%rbx
    200f:	48 8b 45 e8          	mov    -0x18(%rbp),%rax
    2013:	48 89 c7             	mov    %rax,%rdi
    2016:	e8 77 02 00 00       	callq  2292 <_ZSt12__niter_baseIPiET_S1_>
    201b:	4c 89 e2             	mov    %r12,%rdx
    201e:	48 89 de             	mov    %rbx,%rsi
    2021:	48 89 c7             	mov    %rax,%rdi
    2024:	e8 77 02 00 00       	callq  22a0 <_ZSt22__copy_move_backward_aILb1EPiS0_ET1_T0_S2_S1_>
    2029:	48 89 c2             	mov    %rax,%rdx
    202c:	48 8d 45 d8          	lea    -0x28(%rbp),%rax
    2030:	48 89 d6             	mov    %rdx,%rsi
    2033:	48 89 c7             	mov    %rax,%rdi
    2036:	e8 96 02 00 00       	callq  22d1 <_ZSt12__niter_wrapIPiET_RKS1_S1_>
    203b:	48 83 c4 20          	add    $0x20,%rsp
    203f:	5b                   	pop    %rbx
    2040:	41 5c                	pop    %r12
    2042:	5d                   	pop    %rbp
    2043:	c3                   	retq   

0000000000002044 <_ZSt4moveIRN9__gnu_cxx5__ops15_Iter_comp_iterIPFbxxEEEEONSt16remove_referenceIT_E4typeEOS8_>:
    2044:	55                   	push   %rbp
    2045:	48 89 e5             	mov    %rsp,%rbp
    2048:	48 89 7d f8          	mov    %rdi,-0x8(%rbp)
    204c:	48 8b 45 f8          	mov    -0x8(%rbp),%rax
    2050:	5d                   	pop    %rbp
    2051:	c3                   	retq   

0000000000002052 <_ZN9__gnu_cxx5__ops14_Val_comp_iterIPFbxxEEC1EONS0_15_Iter_comp_iterIS3_EE>:
    2052:	55                   	push   %rbp
    2053:	48 89 e5             	mov    %rsp,%rbp
    2056:	48 83 ec 10          	sub    $0x10,%rsp
    205a:	48 89 7d f8          	mov    %rdi,-0x8(%rbp)
    205e:	48 89 75 f0          	mov    %rsi,-0x10(%rbp)
    2062:	48 8b 45 f0          	mov    -0x10(%rbp),%rax
    2066:	48 89 c7             	mov    %rax,%rdi
    2069:	e8 3f f7 ff ff       	callq  17ad <_ZSt4moveIRPFbxxEEONSt16remove_referenceIT_E4typeEOS4_>
    206e:	48 8b 10             	mov    (%rax),%rdx
    2071:	48 8b 45 f8          	mov    -0x8(%rbp),%rax
    2075:	48 89 10             	mov    %rdx,(%rax)
    2078:	90                   	nop
    2079:	c9                   	leaveq 
    207a:	c3                   	retq   
    207b:	90                   	nop

000000000000207c <_ZN9__gnu_cxx5__ops14_Val_comp_iterIPFbxxEEclIiPiEEbRT_T0_>:
    207c:	55                   	push   %rbp
    207d:	48 89 e5             	mov    %rsp,%rbp
    2080:	48 83 ec 20          	sub    $0x20,%rsp
    2084:	48 89 7d f8          	mov    %rdi,-0x8(%rbp)
    2088:	48 89 75 f0          	mov    %rsi,-0x10(%rbp)
    208c:	48 89 55 e8          	mov    %rdx,-0x18(%rbp)
    2090:	48 8b 45 f8          	mov    -0x8(%rbp),%rax
    2094:	48 8b 08             	mov    (%rax),%rcx
    2097:	48 8b 45 e8          	mov    -0x18(%rbp),%rax
    209b:	8b 00                	mov    (%rax),%eax
    209d:	48 63 d0             	movslq %eax,%rdx
    20a0:	48 8b 45 f0          	mov    -0x10(%rbp),%rax
    20a4:	8b 00                	mov    (%rax),%eax
    20a6:	48 98                	cltq   
    20a8:	48 89 d6             	mov    %rdx,%rsi
    20ab:	48 89 c7             	mov    %rax,%rdi
    20ae:	ff d1                	callq  *%rcx
    20b0:	c9                   	leaveq 
    20b1:	c3                   	retq   

00000000000020b2 <_ZSt13__adjust_heapIPiliN9__gnu_cxx5__ops15_Iter_comp_iterIPFbxxEEEEvT_T0_S8_T1_T2_>:
    20b2:	55                   	push   %rbp
    20b3:	48 89 e5             	mov    %rsp,%rbp
    20b6:	48 83 ec 50          	sub    $0x50,%rsp
    20ba:	48 89 7d d8          	mov    %rdi,-0x28(%rbp)
    20be:	48 89 75 d0          	mov    %rsi,-0x30(%rbp)
    20c2:	48 89 55 c8          	mov    %rdx,-0x38(%rbp)
    20c6:	89 4d c4             	mov    %ecx,-0x3c(%rbp)
    20c9:	4c 89 45 b8          	mov    %r8,-0x48(%rbp)
    20cd:	48 8b 45 d0          	mov    -0x30(%rbp),%rax
    20d1:	48 89 45 f0          	mov    %rax,-0x10(%rbp)
    20d5:	48 8b 45 d0          	mov    -0x30(%rbp),%rax
    20d9:	48 89 45 f8          	mov    %rax,-0x8(%rbp)
    20dd:	48 8b 45 c8          	mov    -0x38(%rbp),%rax
    20e1:	48 83 e8 01          	sub    $0x1,%rax
    20e5:	48 89 c2             	mov    %rax,%rdx
    20e8:	48 c1 ea 3f          	shr    $0x3f,%rdx
    20ec:	48 01 d0             	add    %rdx,%rax
    20ef:	48 d1 f8             	sar    %rax
    20f2:	48 39 45 f8          	cmp    %rax,-0x8(%rbp)
    20f6:	0f 8d 8c 00 00 00    	jge    2188 <_ZSt13__adjust_heapIPiliN9__gnu_cxx5__ops15_Iter_comp_iterIPFbxxEEEEvT_T0_S8_T1_T2_+0xd6>
    20fc:	48 8b 45 f8          	mov    -0x8(%rbp),%rax
    2100:	48 83 c0 01          	add    $0x1,%rax
    2104:	48 01 c0             	add    %rax,%rax
    2107:	48 89 45 f8          	mov    %rax,-0x8(%rbp)
    210b:	48 8b 45 f8          	mov    -0x8(%rbp),%rax
    210f:	48 c1 e0 02          	shl    $0x2,%rax
    2113:	48 8d 50 fc          	lea    -0x4(%rax),%rdx
    2117:	48 8b 45 d8          	mov    -0x28(%rbp),%rax
    211b:	48 01 c2             	add    %rax,%rdx
    211e:	48 8b 45 f8          	mov    -0x8(%rbp),%rax
    2122:	48 8d 0c 85 00 00 00 	lea    0x0(,%rax,4),%rcx
    2129:	00 
    212a:	48 8b 45 d8          	mov    -0x28(%rbp),%rax
    212e:	48 01 c1             	add    %rax,%rcx
    2131:	48 8d 45 b8          	lea    -0x48(%rbp),%rax
    2135:	48 89 ce             	mov    %rcx,%rsi
    2138:	48 89 c7             	mov    %rax,%rdi
    213b:	e8 48 fa ff ff       	callq  1b88 <_ZN9__gnu_cxx5__ops15_Iter_comp_iterIPFbxxEEclIPiS6_EEbT_T0_>
    2140:	84 c0                	test   %al,%al
    2142:	74 05                	je     2149 <_ZSt13__adjust_heapIPiliN9__gnu_cxx5__ops15_Iter_comp_iterIPFbxxEEEEvT_T0_S8_T1_T2_+0x97>
    2144:	48 83 6d f8 01       	subq   $0x1,-0x8(%rbp)
    2149:	48 8b 45 f8          	mov    -0x8(%rbp),%rax
    214d:	48 8d 14 85 00 00 00 	lea    0x0(,%rax,4),%rdx
    2154:	00 
    2155:	48 8b 45 d8          	mov    -0x28(%rbp),%rax
    2159:	48 01 d0             	add    %rdx,%rax
    215c:	48 89 c7             	mov    %rax,%rdi
    215f:	e8 0f fc ff ff       	callq  1d73 <_ZSt4moveIRiEONSt16remove_referenceIT_E4typeEOS2_>
    2164:	48 8b 55 d0          	mov    -0x30(%rbp),%rdx
    2168:	48 8d 0c 95 00 00 00 	lea    0x0(,%rdx,4),%rcx
    216f:	00 
    2170:	48 8b 55 d8          	mov    -0x28(%rbp),%rdx
    2174:	48 01 ca             	add    %rcx,%rdx
    2177:	8b 00                	mov    (%rax),%eax
    2179:	89 02                	mov    %eax,(%rdx)
    217b:	48 8b 45 f8          	mov    -0x8(%rbp),%rax
    217f:	48 89 45 d0          	mov    %rax,-0x30(%rbp)
    2183:	e9 55 ff ff ff       	jmpq   20dd <_ZSt13__adjust_heapIPiliN9__gnu_cxx5__ops15_Iter_comp_iterIPFbxxEEEEvT_T0_S8_T1_T2_+0x2b>
    2188:	48 8b 45 c8          	mov    -0x38(%rbp),%rax
    218c:	83 e0 01             	and    $0x1,%eax
    218f:	48 85 c0             	test   %rax,%rax
    2192:	75 68                	jne    21fc <_ZSt13__adjust_heapIPiliN9__gnu_cxx5__ops15_Iter_comp_iterIPFbxxEEEEvT_T0_S8_T1_T2_+0x14a>
    2194:	48 8b 45 c8          	mov    -0x38(%rbp),%rax
    2198:	48 83 e8 02          	sub    $0x2,%rax
    219c:	48 89 c2             	mov    %rax,%rdx
    219f:	48 c1 ea 3f          	shr    $0x3f,%rdx
    21a3:	48 01 d0             	add    %rdx,%rax
    21a6:	48 d1 f8             	sar    %rax
    21a9:	48 39 45 f8          	cmp    %rax,-0x8(%rbp)
    21ad:	75 4d                	jne    21fc <_ZSt13__adjust_heapIPiliN9__gnu_cxx5__ops15_Iter_comp_iterIPFbxxEEEEvT_T0_S8_T1_T2_+0x14a>
    21af:	48 8b 45 f8          	mov    -0x8(%rbp),%rax
    21b3:	48 83 c0 01          	add    $0x1,%rax
    21b7:	48 01 c0             	add    %rax,%rax
    21ba:	48 89 45 f8          	mov    %rax,-0x8(%rbp)
    21be:	48 8b 45 f8          	mov    -0x8(%rbp),%rax
    21c2:	48 c1 e0 02          	shl    $0x2,%rax
    21c6:	48 8d 50 fc          	lea    -0x4(%rax),%rdx
    21ca:	48 8b 45 d8          	mov    -0x28(%rbp),%rax
    21ce:	48 01 d0             	add    %rdx,%rax
    21d1:	48 89 c7             	mov    %rax,%rdi
    21d4:	e8 9a fb ff ff       	callq  1d73 <_ZSt4moveIRiEONSt16remove_referenceIT_E4typeEOS2_>
    21d9:	48 8b 55 d0          	mov    -0x30(%rbp),%rdx
    21dd:	48 8d 0c 95 00 00 00 	lea    0x0(,%rdx,4),%rcx
    21e4:	00 
    21e5:	48 8b 55 d8          	mov    -0x28(%rbp),%rdx
    21e9:	48 01 ca             	add    %rcx,%rdx
    21ec:	8b 00                	mov    (%rax),%eax
    21ee:	89 02                	mov    %eax,(%rdx)
    21f0:	48 8b 45 f8          	mov    -0x8(%rbp),%rax
    21f4:	48 83 e8 01          	sub    $0x1,%rax
    21f8:	48 89 45 d0          	mov    %rax,-0x30(%rbp)
    21fc:	48 8d 45 b8          	lea    -0x48(%rbp),%rax
    2200:	48 89 c7             	mov    %rax,%rdi
    2203:	e8 3c fe ff ff       	callq  2044 <_ZSt4moveIRN9__gnu_cxx5__ops15_Iter_comp_iterIPFbxxEEEEONSt16remove_referenceIT_E4typeEOS8_>
    2208:	48 89 c2             	mov    %rax,%rdx
    220b:	48 8d 45 e8          	lea    -0x18(%rbp),%rax
    220f:	48 89 d6             	mov    %rdx,%rsi
    2212:	48 89 c7             	mov    %rax,%rdi
    2215:	e8 ca 00 00 00       	callq  22e4 <_ZN9__gnu_cxx5__ops14_Iter_comp_valIPFbxxEEC1EONS0_15_Iter_comp_iterIS3_EE>
    221a:	48 8d 45 c4          	lea    -0x3c(%rbp),%rax
    221e:	48 89 c7             	mov    %rax,%rdi
    2221:	e8 4d fb ff ff       	callq  1d73 <_ZSt4moveIRiEONSt16remove_referenceIT_E4typeEOS2_>
    2226:	8b 08                	mov    (%rax),%ecx
    2228:	48 8d 7d e8          	lea    -0x18(%rbp),%rdi
    222c:	48 8b 55 f0          	mov    -0x10(%rbp),%rdx
    2230:	48 8b 75 d0          	mov    -0x30(%rbp),%rsi
    2234:	48 8b 45 d8          	mov    -0x28(%rbp),%rax
    2238:	49 89 f8             	mov    %rdi,%r8
    223b:	48 89 c7             	mov    %rax,%rdi
    223e:	e8 ca 00 00 00       	callq  230d <_ZSt11__push_heapIPiliN9__gnu_cxx5__ops14_Iter_comp_valIPFbxxEEEEvT_T0_S8_T1_RT2_>
    2243:	90                   	nop
    2244:	c9                   	leaveq 
    2245:	c3                   	retq   

0000000000002246 <_ZSt4swapIiENSt9enable_ifIXsrSt6__and_IJSt6__not_ISt15__is_tuple_likeIT_EESt21is_move_constructibleIS4_ESt18is_move_assignableIS4_EEE5valueEvE4typeERS4_SE_>:
    2246:	55                   	push   %rbp
    2247:	48 89 e5             	mov    %rsp,%rbp
    224a:	48 83 ec 20          	sub    $0x20,%rsp
    224e:	48 89 7d e8          	mov    %rdi,-0x18(%rbp)
    2252:	48 89 75 e0          	mov    %rsi,-0x20(%rbp)
    2256:	48 8b 45 e8          	mov    -0x18(%rbp),%rax
    225a:	48 89 c7             	mov    %rax,%rdi
    225d:	e8 11 fb ff ff       	callq  1d73 <_ZSt4moveIRiEONSt16remove_referenceIT_E4typeEOS2_>
    2262:	8b 00                	mov    (%rax),%eax
    2264:	89 45 fc             	mov    %eax,-0x4(%rbp)
    2267:	48 8b 45 e0          	mov    -0x20(%rbp),%rax
    226b:	48 89 c7             	mov    %rax,%rdi
    226e:	e8 00 fb ff ff       	callq  1d73 <_ZSt4moveIRiEONSt16remove_referenceIT_E4typeEOS2_>
    2273:	8b 10                	mov    (%rax),%edx
    2275:	48 8b 45 e8          	mov    -0x18(%rbp),%rax
    2279:	89 10                	mov    %edx,(%rax)
    227b:	48 8d 45 fc          	lea    -0x4(%rbp),%rax
    227f:	48 89 c7             	mov    %rax,%rdi
    2282:	e8 ec fa ff ff       	callq  1d73 <_ZSt4moveIRiEONSt16remove_referenceIT_E4typeEOS2_>
    2287:	8b 10                	mov    (%rax),%edx
    2289:	48 8b 45 e0          	mov    -0x20(%rbp),%rax
    228d:	89 10                	mov    %edx,(%rax)
    228f:	90                   	nop
    2290:	c9                   	leaveq 
    2291:	c3                   	retq   

0000000000002292 <_ZSt12__niter_baseIPiET_S1_>:
    2292:	55                   	push   %rbp
    2293:	48 89 e5             	mov    %rsp,%rbp
    2296:	48 89 7d f8          	mov    %rdi,-0x8(%rbp)
    229a:	48 8b 45 f8          	mov    -0x8(%rbp),%rax
    229e:	5d                   	pop    %rbp
    229f:	c3                   	retq   

00000000000022a0 <_ZSt22__copy_move_backward_aILb1EPiS0_ET1_T0_S2_S1_>:
    22a0:	55                   	push   %rbp
    22a1:	48 89 e5             	mov    %rsp,%rbp
    22a4:	48 83 ec 30          	sub    $0x30,%rsp
    22a8:	48 89 7d e8          	mov    %rdi,-0x18(%rbp)
    22ac:	48 89 75 e0          	mov    %rsi,-0x20(%rbp)
    22b0:	48 89 55 d8          	mov    %rdx,-0x28(%rbp)
    22b4:	c6 45 ff 01          	movb   $0x1,-0x1(%rbp)
    22b8:	48 8b 55 d8          	mov    -0x28(%rbp),%rdx
    22bc:	48 8b 4d e0          	mov    -0x20(%rbp),%rcx
    22c0:	48 8b 45 e8          	mov    -0x18(%rbp),%rax
    22c4:	48 89 ce             	mov    %rcx,%rsi
    22c7:	48 89 c7             	mov    %rax,%rdi
    22ca:	e8 35 01 00 00       	callq  2404 <_ZNSt20__copy_move_backwardILb1ELb1ESt26random_access_iterator_tagE13__copy_move_bIiEEPT_PKS3_S6_S4_>
    22cf:	c9                   	leaveq 
    22d0:	c3                   	retq   

00000000000022d1 <_ZSt12__niter_wrapIPiET_RKS1_S1_>:
    22d1:	55                   	push   %rbp
    22d2:	48 89 e5             	mov    %rsp,%rbp
    22d5:	48 89 7d f8          	mov    %rdi,-0x8(%rbp)
    22d9:	48 89 75 f0          	mov    %rsi,-0x10(%rbp)
    22dd:	48 8b 45 f0          	mov    -0x10(%rbp),%rax
    22e1:	5d                   	pop    %rbp
    22e2:	c3                   	retq   
    22e3:	90                   	nop

00000000000022e4 <_ZN9__gnu_cxx5__ops14_Iter_comp_valIPFbxxEEC1EONS0_15_Iter_comp_iterIS3_EE>:
    22e4:	55                   	push   %rbp
    22e5:	48 89 e5             	mov    %rsp,%rbp
    22e8:	48 83 ec 10          	sub    $0x10,%rsp
    22ec:	48 89 7d f8          	mov    %rdi,-0x8(%rbp)
    22f0:	48 89 75 f0          	mov    %rsi,-0x10(%rbp)
    22f4:	48 8b 45 f0          	mov    -0x10(%rbp),%rax
    22f8:	48 89 c7             	mov    %rax,%rdi
    22fb:	e8 ad f4 ff ff       	callq  17ad <_ZSt4moveIRPFbxxEEONSt16remove_referenceIT_E4typeEOS4_>
    2300:	48 8b 10             	mov    (%rax),%rdx
    2303:	48 8b 45 f8          	mov    -0x8(%rbp),%rax
    2307:	48 89 10             	mov    %rdx,(%rax)
    230a:	90                   	nop
    230b:	c9                   	leaveq 
    230c:	c3                   	retq   

000000000000230d <_ZSt11__push_heapIPiliN9__gnu_cxx5__ops14_Iter_comp_valIPFbxxEEEEvT_T0_S8_T1_RT2_>:
    230d:	55                   	push   %rbp
    230e:	48 89 e5             	mov    %rsp,%rbp
    2311:	48 83 ec 40          	sub    $0x40,%rsp
    2315:	48 89 7d e8          	mov    %rdi,-0x18(%rbp)
    2319:	48 89 75 e0          	mov    %rsi,-0x20(%rbp)
    231d:	48 89 55 d8          	mov    %rdx,-0x28(%rbp)
    2321:	89 4d d4             	mov    %ecx,-0x2c(%rbp)
    2324:	4c 89 45 c8          	mov    %r8,-0x38(%rbp)
    2328:	48 8b 45 e0          	mov    -0x20(%rbp),%rax
    232c:	48 83 e8 01          	sub    $0x1,%rax
    2330:	48 89 c2             	mov    %rax,%rdx
    2333:	48 c1 ea 3f          	shr    $0x3f,%rdx
    2337:	48 01 d0             	add    %rdx,%rax
    233a:	48 d1 f8             	sar    %rax
    233d:	48 89 45 f8          	mov    %rax,-0x8(%rbp)
    2341:	48 8b 45 e0          	mov    -0x20(%rbp),%rax
    2345:	48 3b 45 d8          	cmp    -0x28(%rbp),%rax
    2349:	7e 32                	jle    237d <_ZSt11__push_heapIPiliN9__gnu_cxx5__ops14_Iter_comp_valIPFbxxEEEEvT_T0_S8_T1_RT2_+0x70>
    234b:	48 8b 45 f8          	mov    -0x8(%rbp),%rax
    234f:	48 8d 14 85 00 00 00 	lea    0x0(,%rax,4),%rdx
    2356:	00 
    2357:	48 8b 45 e8          	mov    -0x18(%rbp),%rax
    235b:	48 8d 0c 02          	lea    (%rdx,%rax,1),%rcx
    235f:	48 8d 55 d4          	lea    -0x2c(%rbp),%rdx
    2363:	48 8b 45 c8          	mov    -0x38(%rbp),%rax
    2367:	48 89 ce             	mov    %rcx,%rsi
    236a:	48 89 c7             	mov    %rax,%rdi
    236d:	e8 04 01 00 00       	callq  2476 <_ZN9__gnu_cxx5__ops14_Iter_comp_valIPFbxxEEclIPiiEEbT_RT0_>
    2372:	84 c0                	test   %al,%al
    2374:	74 07                	je     237d <_ZSt11__push_heapIPiliN9__gnu_cxx5__ops14_Iter_comp_valIPFbxxEEEEvT_T0_S8_T1_RT2_+0x70>
    2376:	b8 01 00 00 00       	mov    $0x1,%eax
    237b:	eb 05                	jmp    2382 <_ZSt11__push_heapIPiliN9__gnu_cxx5__ops14_Iter_comp_valIPFbxxEEEEvT_T0_S8_T1_RT2_+0x75>
    237d:	b8 00 00 00 00       	mov    $0x0,%eax
    2382:	84 c0                	test   %al,%al
    2384:	74 58                	je     23de <_ZSt11__push_heapIPiliN9__gnu_cxx5__ops14_Iter_comp_valIPFbxxEEEEvT_T0_S8_T1_RT2_+0xd1>
    2386:	48 8b 45 f8          	mov    -0x8(%rbp),%rax
    238a:	48 8d 14 85 00 00 00 	lea    0x0(,%rax,4),%rdx
    2391:	00 
    2392:	48 8b 45 e8          	mov    -0x18(%rbp),%rax
    2396:	48 01 d0             	add    %rdx,%rax
    2399:	48 89 c7             	mov    %rax,%rdi
    239c:	e8 d2 f9 ff ff       	callq  1d73 <_ZSt4moveIRiEONSt16remove_referenceIT_E4typeEOS2_>
    23a1:	48 8b 55 e0          	mov    -0x20(%rbp),%rdx
    23a5:	48 8d 0c 95 00 00 00 	lea    0x0(,%rdx,4),%rcx
    23ac:	00 
    23ad:	48 8b 55 e8          	mov    -0x18(%rbp),%rdx
    23b1:	48 01 ca             	add    %rcx,%rdx
    23b4:	8b 00                	mov    (%rax),%eax
    23b6:	89 02                	mov    %eax,(%rdx)
    23b8:	48 8b 45 f8          	mov    -0x8(%rbp),%rax
    23bc:	48 89 45 e0          	mov    %rax,-0x20(%rbp)
    23c0:	48 8b 45 e0          	mov    -0x20(%rbp),%rax
    23c4:	48 83 e8 01          	sub    $0x1,%rax
    23c8:	48 89 c2             	mov    %rax,%rdx
    23cb:	48 c1 ea 3f          	shr    $0x3f,%rdx
    23cf:	48 01 d0             	add    %rdx,%rax
    23d2:	48 d1 f8             	sar    %rax
    23d5:	48 89 45 f8          	mov    %rax,-0x8(%rbp)
    23d9:	e9 63 ff ff ff       	jmpq   2341 <_ZSt11__push_heapIPiliN9__gnu_cxx5__ops14_Iter_comp_valIPFbxxEEEEvT_T0_S8_T1_RT2_+0x34>
    23de:	48 8d 45 d4          	lea    -0x2c(%rbp),%rax
    23e2:	48 89 c7             	mov    %rax,%rdi
    23e5:	e8 89 f9 ff ff       	callq  1d73 <_ZSt4moveIRiEONSt16remove_referenceIT_E4typeEOS2_>
    23ea:	48 8b 55 e0          	mov    -0x20(%rbp),%rdx
    23ee:	48 8d 0c 95 00 00 00 	lea    0x0(,%rdx,4),%rcx
    23f5:	00 
    23f6:	48 8b 55 e8          	mov    -0x18(%rbp),%rdx
    23fa:	48 01 ca             	add    %rcx,%rdx
    23fd:	8b 00                	mov    (%rax),%eax
    23ff:	89 02                	mov    %eax,(%rdx)
    2401:	90                   	nop
    2402:	c9                   	leaveq 
    2403:	c3                   	retq   

0000000000002404 <_ZNSt20__copy_move_backwardILb1ELb1ESt26random_access_iterator_tagE13__copy_move_bIiEEPT_PKS3_S6_S4_>:
    2404:	55                   	push   %rbp
    2405:	48 89 e5             	mov    %rsp,%rbp
    2408:	48 83 ec 30          	sub    $0x30,%rsp
    240c:	48 89 7d e8          	mov    %rdi,-0x18(%rbp)
    2410:	48 89 75 e0          	mov    %rsi,-0x20(%rbp)
    2414:	48 89 55 d8          	mov    %rdx,-0x28(%rbp)
    2418:	48 8b 45 e0          	mov    -0x20(%rbp),%rax
    241c:	48 2b 45 e8          	sub    -0x18(%rbp),%rax
    2420:	48 c1 f8 02          	sar    $0x2,%rax
    2424:	48 89 45 f8          	mov    %rax,-0x8(%rbp)
    2428:	48 83 7d f8 00       	cmpq   $0x0,-0x8(%rbp)
    242d:	74 30                	je     245f <_ZNSt20__copy_move_backwardILb1ELb1ESt26random_access_iterator_tagE13__copy_move_bIiEEPT_PKS3_S6_S4_+0x5b>
    242f:	48 8b 45 f8          	mov    -0x8(%rbp),%rax
    2433:	48 8d 14 85 00 00 00 	lea    0x0(,%rax,4),%rdx
    243a:	00 
    243b:	48 8b 45 f8          	mov    -0x8(%rbp),%rax
    243f:	48 c1 e0 02          	shl    $0x2,%rax
    2443:	48 f7 d8             	neg    %rax
    2446:	48 89 c1             	mov    %rax,%rcx
    2449:	48 8b 45 d8          	mov    -0x28(%rbp),%rax
    244d:	48 01 c1             	add    %rax,%rcx
    2450:	48 8b 45 e8          	mov    -0x18(%rbp),%rax
    2454:	48 89 c6             	mov    %rax,%rsi
    2457:	48 89 cf             	mov    %rcx,%rdi
    245a:	e8 91 ec ff ff       	callq  10f0 <memmove@plt>
    245f:	48 8b 45 f8          	mov    -0x8(%rbp),%rax
    2463:	48 c1 e0 02          	shl    $0x2,%rax
    2467:	48 f7 d8             	neg    %rax
    246a:	48 89 c2             	mov    %rax,%rdx
    246d:	48 8b 45 d8          	mov    -0x28(%rbp),%rax
    2471:	48 01 d0             	add    %rdx,%rax
    2474:	c9                   	leaveq 
    2475:	c3                   	retq   

0000000000002476 <_ZN9__gnu_cxx5__ops14_Iter_comp_valIPFbxxEEclIPiiEEbT_RT0_>:
    2476:	55                   	push   %rbp
    2477:	48 89 e5             	mov    %rsp,%rbp
    247a:	48 83 ec 20          	sub    $0x20,%rsp
    247e:	48 89 7d f8          	mov    %rdi,-0x8(%rbp)
    2482:	48 89 75 f0          	mov    %rsi,-0x10(%rbp)
    2486:	48 89 55 e8          	mov    %rdx,-0x18(%rbp)
    248a:	48 8b 45 f8          	mov    -0x8(%rbp),%rax
    248e:	48 8b 08             	mov    (%rax),%rcx
    2491:	48 8b 45 e8          	mov    -0x18(%rbp),%rax
    2495:	8b 00                	mov    (%rax),%eax
    2497:	48 63 d0             	movslq %eax,%rdx
    249a:	48 8b 45 f0          	mov    -0x10(%rbp),%rax
    249e:	8b 00                	mov    (%rax),%eax
    24a0:	48 98                	cltq   
    24a2:	48 89 d6             	mov    %rdx,%rsi
    24a5:	48 89 c7             	mov    %rax,%rdi
    24a8:	ff d1                	callq  *%rcx
    24aa:	c9                   	leaveq 
    24ab:	c3                   	retq   
    24ac:	0f 1f 40 00          	nopl   0x0(%rax)

00000000000024b0 <__libc_csu_init>:
    24b0:	41 57                	push   %r15
    24b2:	4c 8d 3d f7 28 00 00 	lea    0x28f7(%rip),%r15        # 4db0 <__frame_dummy_init_array_entry>
    24b9:	41 56                	push   %r14
    24bb:	49 89 d6             	mov    %rdx,%r14
    24be:	41 55                	push   %r13
    24c0:	49 89 f5             	mov    %rsi,%r13
    24c3:	41 54                	push   %r12
    24c5:	41 89 fc             	mov    %edi,%r12d
    24c8:	55                   	push   %rbp
    24c9:	48 8d 2d f0 28 00 00 	lea    0x28f0(%rip),%rbp        # 4dc0 <__do_global_dtors_aux_fini_array_entry>
    24d0:	53                   	push   %rbx
    24d1:	4c 29 fd             	sub    %r15,%rbp
    24d4:	48 83 ec 08          	sub    $0x8,%rsp
    24d8:	e8 23 eb ff ff       	callq  1000 <_init>
    24dd:	48 c1 fd 03          	sar    $0x3,%rbp
    24e1:	74 1b                	je     24fe <__libc_csu_init+0x4e>
    24e3:	31 db                	xor    %ebx,%ebx
    24e5:	0f 1f 00             	nopl   (%rax)
    24e8:	4c 89 f2             	mov    %r14,%rdx
    24eb:	4c 89 ee             	mov    %r13,%rsi
    24ee:	44 89 e7             	mov    %r12d,%edi
    24f1:	41 ff 14 df          	callq  *(%r15,%rbx,8)
    24f5:	48 83 c3 01          	add    $0x1,%rbx
    24f9:	48 39 dd             	cmp    %rbx,%rbp
    24fc:	75 ea                	jne    24e8 <__libc_csu_init+0x38>
    24fe:	48 83 c4 08          	add    $0x8,%rsp
    2502:	5b                   	pop    %rbx
    2503:	5d                   	pop    %rbp
    2504:	41 5c                	pop    %r12
    2506:	41 5d                	pop    %r13
    2508:	41 5e                	pop    %r14
    250a:	41 5f                	pop    %r15
    250c:	c3                   	retq   
    250d:	0f 1f 00             	nopl   (%rax)

0000000000002510 <__libc_csu_fini>:
    2510:	c3                   	retq   

Disassembly of section .fini:

0000000000002514 <_fini>:
    2514:	48 83 ec 08          	sub    $0x8,%rsp
    2518:	48 83 c4 08          	add    $0x8,%rsp
    251c:	c3                   	retq   
