
valid_email_checker.out:     file format elf64-x86-64


Disassembly of section .init:

0000000000001000 <_init>:
    1000:	48 83 ec 08          	sub    $0x8,%rsp
    1004:	48 8b 05 dd 2f 00 00 	mov    0x2fdd(%rip),%rax        # 3fe8 <__gmon_start__>
    100b:	48 85 c0             	test   %rax,%rax
    100e:	74 02                	je     1012 <_init+0x12>
    1010:	ff d0                	callq  *%rax
    1012:	48 83 c4 08          	add    $0x8,%rsp
    1016:	c3                   	retq   

Disassembly of section .plt:

0000000000001020 <.plt>:
    1020:	ff 35 e2 2f 00 00    	pushq  0x2fe2(%rip)        # 4008 <_GLOBAL_OFFSET_TABLE_+0x8>
    1026:	ff 25 e4 2f 00 00    	jmpq   *0x2fe4(%rip)        # 4010 <_GLOBAL_OFFSET_TABLE_+0x10>
    102c:	0f 1f 40 00          	nopl   0x0(%rax)

0000000000001030 <_ZSt7getlineIcSt11char_traitsIcESaIcEERSt13basic_istreamIT_T0_ES7_RNSt7__cxx1112basic_stringIS4_S5_T1_EE@plt>:
    1030:	ff 25 e2 2f 00 00    	jmpq   *0x2fe2(%rip)        # 4018 <_ZSt7getlineIcSt11char_traitsIcESaIcEERSt13basic_istreamIT_T0_ES7_RNSt7__cxx1112basic_stringIS4_S5_T1_EE@GLIBCXX_3.4.21>
    1036:	68 00 00 00 00       	pushq  $0x0
    103b:	e9 e0 ff ff ff       	jmpq   1020 <.plt>

0000000000001040 <_ZNSt8ios_base15sync_with_stdioEb@plt>:
    1040:	ff 25 da 2f 00 00    	jmpq   *0x2fda(%rip)        # 4020 <_ZNSt8ios_base15sync_with_stdioEb@GLIBCXX_3.4>
    1046:	68 01 00 00 00       	pushq  $0x1
    104b:	e9 d0 ff ff ff       	jmpq   1020 <.plt>

0000000000001050 <_ZNSt7__cxx1112basic_stringIcSt11char_traitsIcESaIcEED1Ev@plt>:
    1050:	ff 25 d2 2f 00 00    	jmpq   *0x2fd2(%rip)        # 4028 <_ZNSt7__cxx1112basic_stringIcSt11char_traitsIcESaIcEED1Ev@GLIBCXX_3.4.21>
    1056:	68 02 00 00 00       	pushq  $0x2
    105b:	e9 c0 ff ff ff       	jmpq   1020 <.plt>

0000000000001060 <_ZNKSt7__cxx1112basic_stringIcSt11char_traitsIcESaIcEE4sizeEv@plt>:
    1060:	ff 25 ca 2f 00 00    	jmpq   *0x2fca(%rip)        # 4030 <_ZNKSt7__cxx1112basic_stringIcSt11char_traitsIcESaIcEE4sizeEv@GLIBCXX_3.4.21>
    1066:	68 03 00 00 00       	pushq  $0x3
    106b:	e9 b0 ff ff ff       	jmpq   1020 <.plt>

0000000000001070 <_ZNSt9basic_iosIcSt11char_traitsIcEE3tieEPSo@plt>:
    1070:	ff 25 c2 2f 00 00    	jmpq   *0x2fc2(%rip)        # 4038 <_ZNSt9basic_iosIcSt11char_traitsIcEE3tieEPSo@GLIBCXX_3.4>
    1076:	68 04 00 00 00       	pushq  $0x4
    107b:	e9 a0 ff ff ff       	jmpq   1020 <.plt>

0000000000001080 <__cxa_atexit@plt>:
    1080:	ff 25 ba 2f 00 00    	jmpq   *0x2fba(%rip)        # 4040 <__cxa_atexit@GLIBC_2.2.5>
    1086:	68 05 00 00 00       	pushq  $0x5
    108b:	e9 90 ff ff ff       	jmpq   1020 <.plt>

0000000000001090 <_ZStlsISt11char_traitsIcEERSt13basic_ostreamIcT_ES5_PKc@plt>:
    1090:	ff 25 b2 2f 00 00    	jmpq   *0x2fb2(%rip)        # 4048 <_ZStlsISt11char_traitsIcEERSt13basic_ostreamIcT_ES5_PKc@GLIBCXX_3.4>
    1096:	68 06 00 00 00       	pushq  $0x6
    109b:	e9 80 ff ff ff       	jmpq   1020 <.plt>

00000000000010a0 <isalnum@plt>:
    10a0:	ff 25 aa 2f 00 00    	jmpq   *0x2faa(%rip)        # 4050 <isalnum@GLIBC_2.2.5>
    10a6:	68 07 00 00 00       	pushq  $0x7
    10ab:	e9 70 ff ff ff       	jmpq   1020 <.plt>

00000000000010b0 <_ZNSolsEPFRSoS_E@plt>:
    10b0:	ff 25 a2 2f 00 00    	jmpq   *0x2fa2(%rip)        # 4058 <_ZNSolsEPFRSoS_E@GLIBCXX_3.4>
    10b6:	68 08 00 00 00       	pushq  $0x8
    10bb:	e9 60 ff ff ff       	jmpq   1020 <.plt>

00000000000010c0 <_ZNSt7__cxx1112basic_stringIcSt11char_traitsIcESaIcEEC1Ev@plt>:
    10c0:	ff 25 9a 2f 00 00    	jmpq   *0x2f9a(%rip)        # 4060 <_ZNSt7__cxx1112basic_stringIcSt11char_traitsIcESaIcEEC1Ev@GLIBCXX_3.4.21>
    10c6:	68 09 00 00 00       	pushq  $0x9
    10cb:	e9 50 ff ff ff       	jmpq   1020 <.plt>

00000000000010d0 <_ZNSt8ios_base4InitC1Ev@plt>:
    10d0:	ff 25 92 2f 00 00    	jmpq   *0x2f92(%rip)        # 4068 <_ZNSt8ios_base4InitC1Ev@GLIBCXX_3.4>
    10d6:	68 0a 00 00 00       	pushq  $0xa
    10db:	e9 40 ff ff ff       	jmpq   1020 <.plt>

00000000000010e0 <isalpha@plt>:
    10e0:	ff 25 8a 2f 00 00    	jmpq   *0x2f8a(%rip)        # 4070 <isalpha@GLIBC_2.2.5>
    10e6:	68 0b 00 00 00       	pushq  $0xb
    10eb:	e9 30 ff ff ff       	jmpq   1020 <.plt>

00000000000010f0 <_Unwind_Resume@plt>:
    10f0:	ff 25 82 2f 00 00    	jmpq   *0x2f82(%rip)        # 4078 <_Unwind_Resume@GCC_3.0>
    10f6:	68 0c 00 00 00       	pushq  $0xc
    10fb:	e9 20 ff ff ff       	jmpq   1020 <.plt>

0000000000001100 <_ZNSt7__cxx1112basic_stringIcSt11char_traitsIcESaIcEEixEm@plt>:
    1100:	ff 25 7a 2f 00 00    	jmpq   *0x2f7a(%rip)        # 4080 <_ZNSt7__cxx1112basic_stringIcSt11char_traitsIcESaIcEEixEm@GLIBCXX_3.4.21>
    1106:	68 0d 00 00 00       	pushq  $0xd
    110b:	e9 10 ff ff ff       	jmpq   1020 <.plt>

Disassembly of section .plt.got:

0000000000001110 <__cxa_finalize@plt>:
    1110:	ff 25 b2 2e 00 00    	jmpq   *0x2eb2(%rip)        # 3fc8 <__cxa_finalize@GLIBC_2.2.5>
    1116:	66 90                	xchg   %ax,%ax

Disassembly of section .text:

0000000000001120 <_start>:
    1120:	31 ed                	xor    %ebp,%ebp
    1122:	49 89 d1             	mov    %rdx,%r9
    1125:	5e                   	pop    %rsi
    1126:	48 89 e2             	mov    %rsp,%rdx
    1129:	48 83 e4 f0          	and    $0xfffffffffffffff0,%rsp
    112d:	50                   	push   %rax
    112e:	54                   	push   %rsp
    112f:	4c 8d 05 ca 08 00 00 	lea    0x8ca(%rip),%r8        # 1a00 <__libc_csu_fini>
    1136:	48 8d 0d 63 08 00 00 	lea    0x863(%rip),%rcx        # 19a0 <__libc_csu_init>
    113d:	48 8d 3d b2 01 00 00 	lea    0x1b2(%rip),%rdi        # 12f6 <main>
    1144:	ff 15 96 2e 00 00    	callq  *0x2e96(%rip)        # 3fe0 <__libc_start_main@GLIBC_2.2.5>
    114a:	f4                   	hlt    
    114b:	0f 1f 44 00 00       	nopl   0x0(%rax,%rax,1)

0000000000001150 <deregister_tm_clones>:
    1150:	48 8d 3d 49 2f 00 00 	lea    0x2f49(%rip),%rdi        # 40a0 <_ZSt4cout@@GLIBCXX_3.4>
    1157:	48 8d 05 42 2f 00 00 	lea    0x2f42(%rip),%rax        # 40a0 <_ZSt4cout@@GLIBCXX_3.4>
    115e:	48 39 f8             	cmp    %rdi,%rax
    1161:	74 15                	je     1178 <deregister_tm_clones+0x28>
    1163:	48 8b 05 6e 2e 00 00 	mov    0x2e6e(%rip),%rax        # 3fd8 <_ITM_deregisterTMCloneTable>
    116a:	48 85 c0             	test   %rax,%rax
    116d:	74 09                	je     1178 <deregister_tm_clones+0x28>
    116f:	ff e0                	jmpq   *%rax
    1171:	0f 1f 80 00 00 00 00 	nopl   0x0(%rax)
    1178:	c3                   	retq   
    1179:	0f 1f 80 00 00 00 00 	nopl   0x0(%rax)

0000000000001180 <register_tm_clones>:
    1180:	48 8d 3d 19 2f 00 00 	lea    0x2f19(%rip),%rdi        # 40a0 <_ZSt4cout@@GLIBCXX_3.4>
    1187:	48 8d 35 12 2f 00 00 	lea    0x2f12(%rip),%rsi        # 40a0 <_ZSt4cout@@GLIBCXX_3.4>
    118e:	48 29 fe             	sub    %rdi,%rsi
    1191:	48 89 f0             	mov    %rsi,%rax
    1194:	48 c1 ee 3f          	shr    $0x3f,%rsi
    1198:	48 c1 f8 03          	sar    $0x3,%rax
    119c:	48 01 c6             	add    %rax,%rsi
    119f:	48 d1 fe             	sar    %rsi
    11a2:	74 14                	je     11b8 <register_tm_clones+0x38>
    11a4:	48 8b 05 45 2e 00 00 	mov    0x2e45(%rip),%rax        # 3ff0 <_ITM_registerTMCloneTable>
    11ab:	48 85 c0             	test   %rax,%rax
    11ae:	74 08                	je     11b8 <register_tm_clones+0x38>
    11b0:	ff e0                	jmpq   *%rax
    11b2:	66 0f 1f 44 00 00    	nopw   0x0(%rax,%rax,1)
    11b8:	c3                   	retq   
    11b9:	0f 1f 80 00 00 00 00 	nopl   0x0(%rax)

00000000000011c0 <__do_global_dtors_aux>:
    11c0:	80 3d 11 31 00 00 00 	cmpb   $0x0,0x3111(%rip)        # 42d8 <completed.7447>
    11c7:	75 2f                	jne    11f8 <__do_global_dtors_aux+0x38>
    11c9:	55                   	push   %rbp
    11ca:	48 83 3d f6 2d 00 00 	cmpq   $0x0,0x2df6(%rip)        # 3fc8 <__cxa_finalize@GLIBC_2.2.5>
    11d1:	00 
    11d2:	48 89 e5             	mov    %rsp,%rbp
    11d5:	74 0c                	je     11e3 <__do_global_dtors_aux+0x23>
    11d7:	48 8b 3d b2 2e 00 00 	mov    0x2eb2(%rip),%rdi        # 4090 <__dso_handle>
    11de:	e8 2d ff ff ff       	callq  1110 <__cxa_finalize@plt>
    11e3:	e8 68 ff ff ff       	callq  1150 <deregister_tm_clones>
    11e8:	c6 05 e9 30 00 00 01 	movb   $0x1,0x30e9(%rip)        # 42d8 <completed.7447>
    11ef:	5d                   	pop    %rbp
    11f0:	c3                   	retq   
    11f1:	0f 1f 80 00 00 00 00 	nopl   0x0(%rax)
    11f8:	c3                   	retq   
    11f9:	0f 1f 80 00 00 00 00 	nopl   0x0(%rax)

0000000000001200 <frame_dummy>:
    1200:	e9 7b ff ff ff       	jmpq   1180 <register_tm_clones>

0000000000001205 <_Z7decSortxx>:
    1205:	55                   	push   %rbp
    1206:	48 89 e5             	mov    %rsp,%rbp
    1209:	48 89 7d f8          	mov    %rdi,-0x8(%rbp)
    120d:	48 89 75 f0          	mov    %rsi,-0x10(%rbp)
    1211:	48 8b 45 f8          	mov    -0x8(%rbp),%rax
    1215:	48 3b 45 f0          	cmp    -0x10(%rbp),%rax
    1219:	0f 9f c0             	setg   %al
    121c:	5d                   	pop    %rbp
    121d:	c3                   	retq   

000000000000121e <_Z12max_of_arrayPxx>:
    121e:	55                   	push   %rbp
    121f:	48 89 e5             	mov    %rsp,%rbp
    1222:	48 89 7d e8          	mov    %rdi,-0x18(%rbp)
    1226:	48 89 75 e0          	mov    %rsi,-0x20(%rbp)
    122a:	48 8b 45 e8          	mov    -0x18(%rbp),%rax
    122e:	48 8b 00             	mov    (%rax),%rax
    1231:	48 89 45 f8          	mov    %rax,-0x8(%rbp)
    1235:	48 c7 45 f0 00 00 00 	movq   $0x0,-0x10(%rbp)
    123c:	00 
    123d:	48 8b 45 f0          	mov    -0x10(%rbp),%rax
    1241:	48 3b 45 e0          	cmp    -0x20(%rbp),%rax
    1245:	7d 3d                	jge    1284 <_Z12max_of_arrayPxx+0x66>
    1247:	48 8b 45 f0          	mov    -0x10(%rbp),%rax
    124b:	48 8d 14 c5 00 00 00 	lea    0x0(,%rax,8),%rdx
    1252:	00 
    1253:	48 8b 45 e8          	mov    -0x18(%rbp),%rax
    1257:	48 01 d0             	add    %rdx,%rax
    125a:	48 8b 00             	mov    (%rax),%rax
    125d:	48 39 45 f8          	cmp    %rax,-0x8(%rbp)
    1261:	7d 1a                	jge    127d <_Z12max_of_arrayPxx+0x5f>
    1263:	48 8b 45 f0          	mov    -0x10(%rbp),%rax
    1267:	48 8d 14 c5 00 00 00 	lea    0x0(,%rax,8),%rdx
    126e:	00 
    126f:	48 8b 45 e8          	mov    -0x18(%rbp),%rax
    1273:	48 01 d0             	add    %rdx,%rax
    1276:	48 8b 00             	mov    (%rax),%rax
    1279:	48 89 45 f8          	mov    %rax,-0x8(%rbp)
    127d:	48 83 45 f0 01       	addq   $0x1,-0x10(%rbp)
    1282:	eb b9                	jmp    123d <_Z12max_of_arrayPxx+0x1f>
    1284:	48 8b 45 f8          	mov    -0x8(%rbp),%rax
    1288:	5d                   	pop    %rbp
    1289:	c3                   	retq   

000000000000128a <_Z12min_of_arrayPxx>:
    128a:	55                   	push   %rbp
    128b:	48 89 e5             	mov    %rsp,%rbp
    128e:	48 89 7d e8          	mov    %rdi,-0x18(%rbp)
    1292:	48 89 75 e0          	mov    %rsi,-0x20(%rbp)
    1296:	48 8b 45 e8          	mov    -0x18(%rbp),%rax
    129a:	48 8b 00             	mov    (%rax),%rax
    129d:	48 89 45 f8          	mov    %rax,-0x8(%rbp)
    12a1:	48 c7 45 f0 00 00 00 	movq   $0x0,-0x10(%rbp)
    12a8:	00 
    12a9:	48 8b 45 f0          	mov    -0x10(%rbp),%rax
    12ad:	48 3b 45 e0          	cmp    -0x20(%rbp),%rax
    12b1:	7d 3d                	jge    12f0 <_Z12min_of_arrayPxx+0x66>
    12b3:	48 8b 45 f0          	mov    -0x10(%rbp),%rax
    12b7:	48 8d 14 c5 00 00 00 	lea    0x0(,%rax,8),%rdx
    12be:	00 
    12bf:	48 8b 45 e8          	mov    -0x18(%rbp),%rax
    12c3:	48 01 d0             	add    %rdx,%rax
    12c6:	48 8b 00             	mov    (%rax),%rax
    12c9:	48 39 45 f8          	cmp    %rax,-0x8(%rbp)
    12cd:	7e 1a                	jle    12e9 <_Z12min_of_arrayPxx+0x5f>
    12cf:	48 8b 45 f0          	mov    -0x10(%rbp),%rax
    12d3:	48 8d 14 c5 00 00 00 	lea    0x0(,%rax,8),%rdx
    12da:	00 
    12db:	48 8b 45 e8          	mov    -0x18(%rbp),%rax
    12df:	48 01 d0             	add    %rdx,%rax
    12e2:	48 8b 00             	mov    (%rax),%rax
    12e5:	48 89 45 f8          	mov    %rax,-0x8(%rbp)
    12e9:	48 83 45 f0 01       	addq   $0x1,-0x10(%rbp)
    12ee:	eb b9                	jmp    12a9 <_Z12min_of_arrayPxx+0x1f>
    12f0:	48 8b 45 f8          	mov    -0x8(%rbp),%rax
    12f4:	5d                   	pop    %rbp
    12f5:	c3                   	retq   

00000000000012f6 <main>:
    12f6:	55                   	push   %rbp
    12f7:	48 89 e5             	mov    %rsp,%rbp
    12fa:	53                   	push   %rbx
    12fb:	48 83 ec 78          	sub    $0x78,%rsp
    12ff:	bf 00 00 00 00       	mov    $0x0,%edi
    1304:	e8 37 fd ff ff       	callq  1040 <_ZNSt8ios_base15sync_with_stdioEb@plt>
    1309:	be 00 00 00 00       	mov    $0x0,%esi
    130e:	48 8d 3d bb 2e 00 00 	lea    0x2ebb(%rip),%rdi        # 41d0 <_ZSt3cin@@GLIBCXX_3.4+0x10>
    1315:	e8 56 fd ff ff       	callq  1070 <_ZNSt9basic_iosIcSt11char_traitsIcEE3tieEPSo@plt>
    131a:	48 8d 45 80          	lea    -0x80(%rbp),%rax
    131e:	48 89 c7             	mov    %rax,%rdi
    1321:	e8 9a fd ff ff       	callq  10c0 <_ZNSt7__cxx1112basic_stringIcSt11char_traitsIcESaIcEEC1Ev@plt>
    1326:	48 8d 45 80          	lea    -0x80(%rbp),%rax
    132a:	48 89 c6             	mov    %rax,%rsi
    132d:	48 8d 3d 8c 2e 00 00 	lea    0x2e8c(%rip),%rdi        # 41c0 <_ZSt3cin@@GLIBCXX_3.4>
    1334:	e8 f7 fc ff ff       	callq  1030 <_ZSt7getlineIcSt11char_traitsIcESaIcEERSt13basic_istreamIT_T0_ES7_RNSt7__cxx1112basic_stringIS4_S5_T1_EE@plt>
    1339:	c6 45 ef 00          	movb   $0x0,-0x11(%rbp)
    133d:	c7 45 e8 00 00 00 00 	movl   $0x0,-0x18(%rbp)
    1344:	48 8d 45 80          	lea    -0x80(%rbp),%rax
    1348:	48 89 c7             	mov    %rax,%rdi
    134b:	e8 10 fd ff ff       	callq  1060 <_ZNKSt7__cxx1112basic_stringIcSt11char_traitsIcESaIcEE4sizeEv@plt>
    1350:	83 e8 01             	sub    $0x1,%eax
    1353:	89 45 e4             	mov    %eax,-0x1c(%rbp)
    1356:	83 7d e4 00          	cmpl   $0x0,-0x1c(%rbp)
    135a:	78 33                	js     138f <main+0x99>
    135c:	8b 45 e4             	mov    -0x1c(%rbp),%eax
    135f:	48 63 d0             	movslq %eax,%rdx
    1362:	48 8d 45 80          	lea    -0x80(%rbp),%rax
    1366:	48 89 d6             	mov    %rdx,%rsi
    1369:	48 89 c7             	mov    %rax,%rdi
    136c:	e8 8f fd ff ff       	callq  1100 <_ZNSt7__cxx1112basic_stringIcSt11char_traitsIcESaIcEEixEm@plt>
    1371:	0f b6 00             	movzbl (%rax),%eax
    1374:	3c 40                	cmp    $0x40,%al
    1376:	0f 94 c0             	sete   %al
    1379:	84 c0                	test   %al,%al
    137b:	74 0c                	je     1389 <main+0x93>
    137d:	8b 45 e4             	mov    -0x1c(%rbp),%eax
    1380:	89 45 e8             	mov    %eax,-0x18(%rbp)
    1383:	c6 45 ef 01          	movb   $0x1,-0x11(%rbp)
    1387:	eb 06                	jmp    138f <main+0x99>
    1389:	83 6d e4 01          	subl   $0x1,-0x1c(%rbp)
    138d:	eb c7                	jmp    1356 <main+0x60>
    138f:	80 7d ef 00          	cmpb   $0x0,-0x11(%rbp)
    1393:	0f 84 4a 05 00 00    	je     18e3 <main+0x5ed>
    1399:	c6 45 e3 00          	movb   $0x0,-0x1d(%rbp)
    139d:	48 8d 45 80          	lea    -0x80(%rbp),%rax
    13a1:	be 00 00 00 00       	mov    $0x0,%esi
    13a6:	48 89 c7             	mov    %rax,%rdi
    13a9:	e8 52 fd ff ff       	callq  1100 <_ZNSt7__cxx1112basic_stringIcSt11char_traitsIcESaIcEEixEm@plt>
    13ae:	0f b6 00             	movzbl (%rax),%eax
    13b1:	0f be c0             	movsbl %al,%eax
    13b4:	89 c7                	mov    %eax,%edi
    13b6:	e8 25 fd ff ff       	callq  10e0 <isalpha@plt>
    13bb:	85 c0                	test   %eax,%eax
    13bd:	0f 95 c0             	setne  %al
    13c0:	84 c0                	test   %al,%al
    13c2:	74 04                	je     13c8 <main+0xd2>
    13c4:	c6 45 e3 01          	movb   $0x1,-0x1d(%rbp)
    13c8:	0f b6 45 e3          	movzbl -0x1d(%rbp),%eax
    13cc:	83 f0 01             	xor    $0x1,%eax
    13cf:	84 c0                	test   %al,%al
    13d1:	74 2d                	je     1400 <main+0x10a>
    13d3:	48 8d 35 d6 0c 00 00 	lea    0xcd6(%rip),%rsi        # 20b0 <_ZNSt8__detailL19_S_invalid_state_idE+0x8>
    13da:	48 8d 3d bf 2c 00 00 	lea    0x2cbf(%rip),%rdi        # 40a0 <_ZSt4cout@@GLIBCXX_3.4>
    13e1:	e8 aa fc ff ff       	callq  1090 <_ZStlsISt11char_traitsIcEERSt13basic_ostreamIcT_ES5_PKc@plt>
    13e6:	48 89 c2             	mov    %rax,%rdx
    13e9:	48 8b 05 e0 2b 00 00 	mov    0x2be0(%rip),%rax        # 3fd0 <_ZSt4endlIcSt11char_traitsIcEERSt13basic_ostreamIT_T0_ES6_@GLIBCXX_3.4>
    13f0:	48 89 c6             	mov    %rax,%rsi
    13f3:	48 89 d7             	mov    %rdx,%rdi
    13f6:	e8 b5 fc ff ff       	callq  10b0 <_ZNSolsEPFRSoS_E@plt>
    13fb:	e9 0b 05 00 00       	jmpq   190b <main+0x615>
    1400:	c6 45 e2 01          	movb   $0x1,-0x1e(%rbp)
    1404:	c7 45 dc 00 00 00 00 	movl   $0x0,-0x24(%rbp)
    140b:	8b 45 dc             	mov    -0x24(%rbp),%eax
    140e:	3b 45 e8             	cmp    -0x18(%rbp),%eax
    1411:	7d 37                	jge    144a <main+0x154>
    1413:	8b 45 dc             	mov    -0x24(%rbp),%eax
    1416:	48 63 d0             	movslq %eax,%rdx
    1419:	48 8d 45 80          	lea    -0x80(%rbp),%rax
    141d:	48 89 d6             	mov    %rdx,%rsi
    1420:	48 89 c7             	mov    %rax,%rdi
    1423:	e8 d8 fc ff ff       	callq  1100 <_ZNSt7__cxx1112basic_stringIcSt11char_traitsIcESaIcEEixEm@plt>
    1428:	0f b6 00             	movzbl (%rax),%eax
    142b:	0f be c0             	movsbl %al,%eax
    142e:	89 c7                	mov    %eax,%edi
    1430:	e8 6b fc ff ff       	callq  10a0 <isalnum@plt>
    1435:	85 c0                	test   %eax,%eax
    1437:	0f 94 c0             	sete   %al
    143a:	84 c0                	test   %al,%al
    143c:	74 06                	je     1444 <main+0x14e>
    143e:	c6 45 e2 00          	movb   $0x0,-0x1e(%rbp)
    1442:	eb 06                	jmp    144a <main+0x154>
    1444:	83 45 dc 01          	addl   $0x1,-0x24(%rbp)
    1448:	eb c1                	jmp    140b <main+0x115>
    144a:	0f b6 45 e2          	movzbl -0x1e(%rbp),%eax
    144e:	83 f0 01             	xor    $0x1,%eax
    1451:	84 c0                	test   %al,%al
    1453:	74 2d                	je     1482 <main+0x18c>
    1455:	48 8d 35 54 0c 00 00 	lea    0xc54(%rip),%rsi        # 20b0 <_ZNSt8__detailL19_S_invalid_state_idE+0x8>
    145c:	48 8d 3d 3d 2c 00 00 	lea    0x2c3d(%rip),%rdi        # 40a0 <_ZSt4cout@@GLIBCXX_3.4>
    1463:	e8 28 fc ff ff       	callq  1090 <_ZStlsISt11char_traitsIcEERSt13basic_ostreamIcT_ES5_PKc@plt>
    1468:	48 89 c2             	mov    %rax,%rdx
    146b:	48 8b 05 5e 2b 00 00 	mov    0x2b5e(%rip),%rax        # 3fd0 <_ZSt4endlIcSt11char_traitsIcEERSt13basic_ostreamIT_T0_ES6_@GLIBCXX_3.4>
    1472:	48 89 c6             	mov    %rax,%rsi
    1475:	48 89 d7             	mov    %rdx,%rdi
    1478:	e8 33 fc ff ff       	callq  10b0 <_ZNSolsEPFRSoS_E@plt>
    147d:	e9 89 04 00 00       	jmpq   190b <main+0x615>
    1482:	c6 45 db 00          	movb   $0x0,-0x25(%rbp)
    1486:	8b 45 e8             	mov    -0x18(%rbp),%eax
    1489:	83 c0 01             	add    $0x1,%eax
    148c:	89 45 d0             	mov    %eax,-0x30(%rbp)
    148f:	8b 45 d0             	mov    -0x30(%rbp),%eax
    1492:	48 63 d8             	movslq %eax,%rbx
    1495:	48 8d 45 80          	lea    -0x80(%rbp),%rax
    1499:	48 89 c7             	mov    %rax,%rdi
    149c:	e8 bf fb ff ff       	callq  1060 <_ZNKSt7__cxx1112basic_stringIcSt11char_traitsIcESaIcEE4sizeEv@plt>
    14a1:	48 39 c3             	cmp    %rax,%rbx
    14a4:	0f 92 c0             	setb   %al
    14a7:	84 c0                	test   %al,%al
    14a9:	74 33                	je     14de <main+0x1e8>
    14ab:	8b 45 d0             	mov    -0x30(%rbp),%eax
    14ae:	48 63 d0             	movslq %eax,%rdx
    14b1:	48 8d 45 80          	lea    -0x80(%rbp),%rax
    14b5:	48 89 d6             	mov    %rdx,%rsi
    14b8:	48 89 c7             	mov    %rax,%rdi
    14bb:	e8 40 fc ff ff       	callq  1100 <_ZNSt7__cxx1112basic_stringIcSt11char_traitsIcESaIcEEixEm@plt>
    14c0:	0f b6 00             	movzbl (%rax),%eax
    14c3:	3c 2e                	cmp    $0x2e,%al
    14c5:	0f 94 c0             	sete   %al
    14c8:	84 c0                	test   %al,%al
    14ca:	74 0c                	je     14d8 <main+0x1e2>
    14cc:	8b 45 d0             	mov    -0x30(%rbp),%eax
    14cf:	89 45 d4             	mov    %eax,-0x2c(%rbp)
    14d2:	c6 45 db 01          	movb   $0x1,-0x25(%rbp)
    14d6:	eb 06                	jmp    14de <main+0x1e8>
    14d8:	83 45 d0 01          	addl   $0x1,-0x30(%rbp)
    14dc:	eb b1                	jmp    148f <main+0x199>
    14de:	0f b6 45 db          	movzbl -0x25(%rbp),%eax
    14e2:	83 f0 01             	xor    $0x1,%eax
    14e5:	84 c0                	test   %al,%al
    14e7:	74 2d                	je     1516 <main+0x220>
    14e9:	48 8d 35 c0 0b 00 00 	lea    0xbc0(%rip),%rsi        # 20b0 <_ZNSt8__detailL19_S_invalid_state_idE+0x8>
    14f0:	48 8d 3d a9 2b 00 00 	lea    0x2ba9(%rip),%rdi        # 40a0 <_ZSt4cout@@GLIBCXX_3.4>
    14f7:	e8 94 fb ff ff       	callq  1090 <_ZStlsISt11char_traitsIcEERSt13basic_ostreamIcT_ES5_PKc@plt>
    14fc:	48 89 c2             	mov    %rax,%rdx
    14ff:	48 8b 05 ca 2a 00 00 	mov    0x2aca(%rip),%rax        # 3fd0 <_ZSt4endlIcSt11char_traitsIcEERSt13basic_ostreamIT_T0_ES6_@GLIBCXX_3.4>
    1506:	48 89 c6             	mov    %rax,%rsi
    1509:	48 89 d7             	mov    %rdx,%rdi
    150c:	e8 9f fb ff ff       	callq  10b0 <_ZNSolsEPFRSoS_E@plt>
    1511:	e9 f5 03 00 00       	jmpq   190b <main+0x615>
    1516:	c6 45 cf 01          	movb   $0x1,-0x31(%rbp)
    151a:	8b 45 e8             	mov    -0x18(%rbp),%eax
    151d:	83 c0 01             	add    $0x1,%eax
    1520:	89 45 c8             	mov    %eax,-0x38(%rbp)
    1523:	8b 45 c8             	mov    -0x38(%rbp),%eax
    1526:	3b 45 d4             	cmp    -0x2c(%rbp),%eax
    1529:	7d 37                	jge    1562 <main+0x26c>
    152b:	8b 45 c8             	mov    -0x38(%rbp),%eax
    152e:	48 63 d0             	movslq %eax,%rdx
    1531:	48 8d 45 80          	lea    -0x80(%rbp),%rax
    1535:	48 89 d6             	mov    %rdx,%rsi
    1538:	48 89 c7             	mov    %rax,%rdi
    153b:	e8 c0 fb ff ff       	callq  1100 <_ZNSt7__cxx1112basic_stringIcSt11char_traitsIcESaIcEEixEm@plt>
    1540:	0f b6 00             	movzbl (%rax),%eax
    1543:	0f be c0             	movsbl %al,%eax
    1546:	89 c7                	mov    %eax,%edi
    1548:	e8 53 fb ff ff       	callq  10a0 <isalnum@plt>
    154d:	85 c0                	test   %eax,%eax
    154f:	0f 94 c0             	sete   %al
    1552:	84 c0                	test   %al,%al
    1554:	74 06                	je     155c <main+0x266>
    1556:	c6 45 cf 00          	movb   $0x0,-0x31(%rbp)
    155a:	eb 06                	jmp    1562 <main+0x26c>
    155c:	83 45 c8 01          	addl   $0x1,-0x38(%rbp)
    1560:	eb c1                	jmp    1523 <main+0x22d>
    1562:	0f b6 45 cf          	movzbl -0x31(%rbp),%eax
    1566:	83 f0 01             	xor    $0x1,%eax
    1569:	84 c0                	test   %al,%al
    156b:	74 2d                	je     159a <main+0x2a4>
    156d:	48 8d 35 3c 0b 00 00 	lea    0xb3c(%rip),%rsi        # 20b0 <_ZNSt8__detailL19_S_invalid_state_idE+0x8>
    1574:	48 8d 3d 25 2b 00 00 	lea    0x2b25(%rip),%rdi        # 40a0 <_ZSt4cout@@GLIBCXX_3.4>
    157b:	e8 10 fb ff ff       	callq  1090 <_ZStlsISt11char_traitsIcEERSt13basic_ostreamIcT_ES5_PKc@plt>
    1580:	48 89 c2             	mov    %rax,%rdx
    1583:	48 8b 05 46 2a 00 00 	mov    0x2a46(%rip),%rax        # 3fd0 <_ZSt4endlIcSt11char_traitsIcEERSt13basic_ostreamIT_T0_ES6_@GLIBCXX_3.4>
    158a:	48 89 c6             	mov    %rax,%rsi
    158d:	48 89 d7             	mov    %rdx,%rdi
    1590:	e8 1b fb ff ff       	callq  10b0 <_ZNSolsEPFRSoS_E@plt>
    1595:	e9 71 03 00 00       	jmpq   190b <main+0x615>
    159a:	c6 45 c7 00          	movb   $0x0,-0x39(%rbp)
    159e:	8b 45 d4             	mov    -0x2c(%rbp),%eax
    15a1:	83 c0 01             	add    $0x1,%eax
    15a4:	89 45 bc             	mov    %eax,-0x44(%rbp)
    15a7:	8b 45 bc             	mov    -0x44(%rbp),%eax
    15aa:	48 63 d8             	movslq %eax,%rbx
    15ad:	48 8d 45 80          	lea    -0x80(%rbp),%rax
    15b1:	48 89 c7             	mov    %rax,%rdi
    15b4:	e8 a7 fa ff ff       	callq  1060 <_ZNKSt7__cxx1112basic_stringIcSt11char_traitsIcESaIcEE4sizeEv@plt>
    15b9:	48 39 c3             	cmp    %rax,%rbx
    15bc:	0f 92 c0             	setb   %al
    15bf:	84 c0                	test   %al,%al
    15c1:	74 33                	je     15f6 <main+0x300>
    15c3:	8b 45 bc             	mov    -0x44(%rbp),%eax
    15c6:	48 63 d0             	movslq %eax,%rdx
    15c9:	48 8d 45 80          	lea    -0x80(%rbp),%rax
    15cd:	48 89 d6             	mov    %rdx,%rsi
    15d0:	48 89 c7             	mov    %rax,%rdi
    15d3:	e8 28 fb ff ff       	callq  1100 <_ZNSt7__cxx1112basic_stringIcSt11char_traitsIcESaIcEEixEm@plt>
    15d8:	0f b6 00             	movzbl (%rax),%eax
    15db:	3c 2e                	cmp    $0x2e,%al
    15dd:	0f 94 c0             	sete   %al
    15e0:	84 c0                	test   %al,%al
    15e2:	74 0c                	je     15f0 <main+0x2fa>
    15e4:	c6 45 c7 01          	movb   $0x1,-0x39(%rbp)
    15e8:	8b 45 bc             	mov    -0x44(%rbp),%eax
    15eb:	89 45 c0             	mov    %eax,-0x40(%rbp)
    15ee:	eb 06                	jmp    15f6 <main+0x300>
    15f0:	83 45 bc 01          	addl   $0x1,-0x44(%rbp)
    15f4:	eb b1                	jmp    15a7 <main+0x2b1>
    15f6:	80 7d c7 00          	cmpb   $0x0,-0x39(%rbp)
    15fa:	0f 84 b6 01 00 00    	je     17b6 <main+0x4c0>
    1600:	c6 45 bb 01          	movb   $0x1,-0x45(%rbp)
    1604:	8b 45 d4             	mov    -0x2c(%rbp),%eax
    1607:	83 c0 01             	add    $0x1,%eax
    160a:	89 45 b4             	mov    %eax,-0x4c(%rbp)
    160d:	8b 45 b4             	mov    -0x4c(%rbp),%eax
    1610:	3b 45 c0             	cmp    -0x40(%rbp),%eax
    1613:	7d 37                	jge    164c <main+0x356>
    1615:	8b 45 b4             	mov    -0x4c(%rbp),%eax
    1618:	48 63 d0             	movslq %eax,%rdx
    161b:	48 8d 45 80          	lea    -0x80(%rbp),%rax
    161f:	48 89 d6             	mov    %rdx,%rsi
    1622:	48 89 c7             	mov    %rax,%rdi
    1625:	e8 d6 fa ff ff       	callq  1100 <_ZNSt7__cxx1112basic_stringIcSt11char_traitsIcESaIcEEixEm@plt>
    162a:	0f b6 00             	movzbl (%rax),%eax
    162d:	0f be c0             	movsbl %al,%eax
    1630:	89 c7                	mov    %eax,%edi
    1632:	e8 69 fa ff ff       	callq  10a0 <isalnum@plt>
    1637:	85 c0                	test   %eax,%eax
    1639:	0f 94 c0             	sete   %al
    163c:	84 c0                	test   %al,%al
    163e:	74 06                	je     1646 <main+0x350>
    1640:	c6 45 bb 00          	movb   $0x0,-0x45(%rbp)
    1644:	eb 06                	jmp    164c <main+0x356>
    1646:	83 45 b4 01          	addl   $0x1,-0x4c(%rbp)
    164a:	eb c1                	jmp    160d <main+0x317>
    164c:	80 7d bb 00          	cmpb   $0x0,-0x45(%rbp)
    1650:	0f 84 33 01 00 00    	je     1789 <main+0x493>
    1656:	48 8d 45 80          	lea    -0x80(%rbp),%rax
    165a:	48 89 c7             	mov    %rax,%rdi
    165d:	e8 fe f9 ff ff       	callq  1060 <_ZNKSt7__cxx1112basic_stringIcSt11char_traitsIcESaIcEE4sizeEv@plt>
    1662:	8b 55 c0             	mov    -0x40(%rbp),%edx
    1665:	48 63 d2             	movslq %edx,%rdx
    1668:	48 29 d0             	sub    %rdx,%rax
    166b:	48 83 f8 04          	cmp    $0x4,%rax
    166f:	77 1b                	ja     168c <main+0x396>
    1671:	48 8d 45 80          	lea    -0x80(%rbp),%rax
    1675:	48 89 c7             	mov    %rax,%rdi
    1678:	e8 e3 f9 ff ff       	callq  1060 <_ZNKSt7__cxx1112basic_stringIcSt11char_traitsIcESaIcEE4sizeEv@plt>
    167d:	8b 55 c0             	mov    -0x40(%rbp),%edx
    1680:	48 63 d2             	movslq %edx,%rdx
    1683:	48 29 d0             	sub    %rdx,%rax
    1686:	48 83 f8 02          	cmp    $0x2,%rax
    168a:	77 07                	ja     1693 <main+0x39d>
    168c:	b8 01 00 00 00       	mov    $0x1,%eax
    1691:	eb 05                	jmp    1698 <main+0x3a2>
    1693:	b8 00 00 00 00       	mov    $0x0,%eax
    1698:	84 c0                	test   %al,%al
    169a:	74 2d                	je     16c9 <main+0x3d3>
    169c:	48 8d 35 0d 0a 00 00 	lea    0xa0d(%rip),%rsi        # 20b0 <_ZNSt8__detailL19_S_invalid_state_idE+0x8>
    16a3:	48 8d 3d f6 29 00 00 	lea    0x29f6(%rip),%rdi        # 40a0 <_ZSt4cout@@GLIBCXX_3.4>
    16aa:	e8 e1 f9 ff ff       	callq  1090 <_ZStlsISt11char_traitsIcEERSt13basic_ostreamIcT_ES5_PKc@plt>
    16af:	48 89 c2             	mov    %rax,%rdx
    16b2:	48 8b 05 17 29 00 00 	mov    0x2917(%rip),%rax        # 3fd0 <_ZSt4endlIcSt11char_traitsIcEERSt13basic_ostreamIT_T0_ES6_@GLIBCXX_3.4>
    16b9:	48 89 c6             	mov    %rax,%rsi
    16bc:	48 89 d7             	mov    %rdx,%rdi
    16bf:	e8 ec f9 ff ff       	callq  10b0 <_ZNSolsEPFRSoS_E@plt>
    16c4:	e9 42 02 00 00       	jmpq   190b <main+0x615>
    16c9:	c6 45 b3 01          	movb   $0x1,-0x4d(%rbp)
    16cd:	8b 45 c0             	mov    -0x40(%rbp),%eax
    16d0:	83 c0 01             	add    $0x1,%eax
    16d3:	89 45 ac             	mov    %eax,-0x54(%rbp)
    16d6:	8b 45 ac             	mov    -0x54(%rbp),%eax
    16d9:	48 63 d8             	movslq %eax,%rbx
    16dc:	48 8d 45 80          	lea    -0x80(%rbp),%rax
    16e0:	48 89 c7             	mov    %rax,%rdi
    16e3:	e8 78 f9 ff ff       	callq  1060 <_ZNKSt7__cxx1112basic_stringIcSt11char_traitsIcESaIcEE4sizeEv@plt>
    16e8:	48 39 c3             	cmp    %rax,%rbx
    16eb:	0f 92 c0             	setb   %al
    16ee:	84 c0                	test   %al,%al
    16f0:	74 37                	je     1729 <main+0x433>
    16f2:	8b 45 ac             	mov    -0x54(%rbp),%eax
    16f5:	48 63 d0             	movslq %eax,%rdx
    16f8:	48 8d 45 80          	lea    -0x80(%rbp),%rax
    16fc:	48 89 d6             	mov    %rdx,%rsi
    16ff:	48 89 c7             	mov    %rax,%rdi
    1702:	e8 f9 f9 ff ff       	callq  1100 <_ZNSt7__cxx1112basic_stringIcSt11char_traitsIcESaIcEEixEm@plt>
    1707:	0f b6 00             	movzbl (%rax),%eax
    170a:	0f be c0             	movsbl %al,%eax
    170d:	89 c7                	mov    %eax,%edi
    170f:	e8 cc f9 ff ff       	callq  10e0 <isalpha@plt>
    1714:	85 c0                	test   %eax,%eax
    1716:	0f 94 c0             	sete   %al
    1719:	84 c0                	test   %al,%al
    171b:	74 06                	je     1723 <main+0x42d>
    171d:	c6 45 b3 00          	movb   $0x0,-0x4d(%rbp)
    1721:	eb 06                	jmp    1729 <main+0x433>
    1723:	83 45 ac 01          	addl   $0x1,-0x54(%rbp)
    1727:	eb ad                	jmp    16d6 <main+0x3e0>
    1729:	80 7d b3 00          	cmpb   $0x0,-0x4d(%rbp)
    172d:	74 2d                	je     175c <main+0x466>
    172f:	48 8d 35 82 09 00 00 	lea    0x982(%rip),%rsi        # 20b8 <_ZNSt8__detailL19_S_invalid_state_idE+0x10>
    1736:	48 8d 3d 63 29 00 00 	lea    0x2963(%rip),%rdi        # 40a0 <_ZSt4cout@@GLIBCXX_3.4>
    173d:	e8 4e f9 ff ff       	callq  1090 <_ZStlsISt11char_traitsIcEERSt13basic_ostreamIcT_ES5_PKc@plt>
    1742:	48 89 c2             	mov    %rax,%rdx
    1745:	48 8b 05 84 28 00 00 	mov    0x2884(%rip),%rax        # 3fd0 <_ZSt4endlIcSt11char_traitsIcEERSt13basic_ostreamIT_T0_ES6_@GLIBCXX_3.4>
    174c:	48 89 c6             	mov    %rax,%rsi
    174f:	48 89 d7             	mov    %rdx,%rdi
    1752:	e8 59 f9 ff ff       	callq  10b0 <_ZNSolsEPFRSoS_E@plt>
    1757:	e9 af 01 00 00       	jmpq   190b <main+0x615>
    175c:	48 8d 35 4d 09 00 00 	lea    0x94d(%rip),%rsi        # 20b0 <_ZNSt8__detailL19_S_invalid_state_idE+0x8>
    1763:	48 8d 3d 36 29 00 00 	lea    0x2936(%rip),%rdi        # 40a0 <_ZSt4cout@@GLIBCXX_3.4>
    176a:	e8 21 f9 ff ff       	callq  1090 <_ZStlsISt11char_traitsIcEERSt13basic_ostreamIcT_ES5_PKc@plt>
    176f:	48 89 c2             	mov    %rax,%rdx
    1772:	48 8b 05 57 28 00 00 	mov    0x2857(%rip),%rax        # 3fd0 <_ZSt4endlIcSt11char_traitsIcEERSt13basic_ostreamIT_T0_ES6_@GLIBCXX_3.4>
    1779:	48 89 c6             	mov    %rax,%rsi
    177c:	48 89 d7             	mov    %rdx,%rdi
    177f:	e8 2c f9 ff ff       	callq  10b0 <_ZNSolsEPFRSoS_E@plt>
    1784:	e9 82 01 00 00       	jmpq   190b <main+0x615>
    1789:	48 8d 35 20 09 00 00 	lea    0x920(%rip),%rsi        # 20b0 <_ZNSt8__detailL19_S_invalid_state_idE+0x8>
    1790:	48 8d 3d 09 29 00 00 	lea    0x2909(%rip),%rdi        # 40a0 <_ZSt4cout@@GLIBCXX_3.4>
    1797:	e8 f4 f8 ff ff       	callq  1090 <_ZStlsISt11char_traitsIcEERSt13basic_ostreamIcT_ES5_PKc@plt>
    179c:	48 89 c2             	mov    %rax,%rdx
    179f:	48 8b 05 2a 28 00 00 	mov    0x282a(%rip),%rax        # 3fd0 <_ZSt4endlIcSt11char_traitsIcEERSt13basic_ostreamIT_T0_ES6_@GLIBCXX_3.4>
    17a6:	48 89 c6             	mov    %rax,%rsi
    17a9:	48 89 d7             	mov    %rdx,%rdi
    17ac:	e8 ff f8 ff ff       	callq  10b0 <_ZNSolsEPFRSoS_E@plt>
    17b1:	e9 55 01 00 00       	jmpq   190b <main+0x615>
    17b6:	48 8d 45 80          	lea    -0x80(%rbp),%rax
    17ba:	48 89 c7             	mov    %rax,%rdi
    17bd:	e8 9e f8 ff ff       	callq  1060 <_ZNKSt7__cxx1112basic_stringIcSt11char_traitsIcESaIcEE4sizeEv@plt>
    17c2:	8b 55 d4             	mov    -0x2c(%rbp),%edx
    17c5:	48 63 d2             	movslq %edx,%rdx
    17c8:	48 29 d0             	sub    %rdx,%rax
    17cb:	48 83 f8 04          	cmp    $0x4,%rax
    17cf:	77 1b                	ja     17ec <main+0x4f6>
    17d1:	48 8d 45 80          	lea    -0x80(%rbp),%rax
    17d5:	48 89 c7             	mov    %rax,%rdi
    17d8:	e8 83 f8 ff ff       	callq  1060 <_ZNKSt7__cxx1112basic_stringIcSt11char_traitsIcESaIcEE4sizeEv@plt>
    17dd:	8b 55 d4             	mov    -0x2c(%rbp),%edx
    17e0:	48 63 d2             	movslq %edx,%rdx
    17e3:	48 29 d0             	sub    %rdx,%rax
    17e6:	48 83 f8 02          	cmp    $0x2,%rax
    17ea:	77 07                	ja     17f3 <main+0x4fd>
    17ec:	b8 01 00 00 00       	mov    $0x1,%eax
    17f1:	eb 05                	jmp    17f8 <main+0x502>
    17f3:	b8 00 00 00 00       	mov    $0x0,%eax
    17f8:	84 c0                	test   %al,%al
    17fa:	74 2d                	je     1829 <main+0x533>
    17fc:	48 8d 35 ad 08 00 00 	lea    0x8ad(%rip),%rsi        # 20b0 <_ZNSt8__detailL19_S_invalid_state_idE+0x8>
    1803:	48 8d 3d 96 28 00 00 	lea    0x2896(%rip),%rdi        # 40a0 <_ZSt4cout@@GLIBCXX_3.4>
    180a:	e8 81 f8 ff ff       	callq  1090 <_ZStlsISt11char_traitsIcEERSt13basic_ostreamIcT_ES5_PKc@plt>
    180f:	48 89 c2             	mov    %rax,%rdx
    1812:	48 8b 05 b7 27 00 00 	mov    0x27b7(%rip),%rax        # 3fd0 <_ZSt4endlIcSt11char_traitsIcEERSt13basic_ostreamIT_T0_ES6_@GLIBCXX_3.4>
    1819:	48 89 c6             	mov    %rax,%rsi
    181c:	48 89 d7             	mov    %rdx,%rdi
    181f:	e8 8c f8 ff ff       	callq  10b0 <_ZNSolsEPFRSoS_E@plt>
    1824:	e9 e2 00 00 00       	jmpq   190b <main+0x615>
    1829:	c6 45 ab 01          	movb   $0x1,-0x55(%rbp)
    182d:	8b 45 d4             	mov    -0x2c(%rbp),%eax
    1830:	83 c0 01             	add    $0x1,%eax
    1833:	89 45 a4             	mov    %eax,-0x5c(%rbp)
    1836:	8b 45 a4             	mov    -0x5c(%rbp),%eax
    1839:	48 63 d8             	movslq %eax,%rbx
    183c:	48 8d 45 80          	lea    -0x80(%rbp),%rax
    1840:	48 89 c7             	mov    %rax,%rdi
    1843:	e8 18 f8 ff ff       	callq  1060 <_ZNKSt7__cxx1112basic_stringIcSt11char_traitsIcESaIcEE4sizeEv@plt>
    1848:	48 39 c3             	cmp    %rax,%rbx
    184b:	0f 92 c0             	setb   %al
    184e:	84 c0                	test   %al,%al
    1850:	74 37                	je     1889 <main+0x593>
    1852:	8b 45 a4             	mov    -0x5c(%rbp),%eax
    1855:	48 63 d0             	movslq %eax,%rdx
    1858:	48 8d 45 80          	lea    -0x80(%rbp),%rax
    185c:	48 89 d6             	mov    %rdx,%rsi
    185f:	48 89 c7             	mov    %rax,%rdi
    1862:	e8 99 f8 ff ff       	callq  1100 <_ZNSt7__cxx1112basic_stringIcSt11char_traitsIcESaIcEEixEm@plt>
    1867:	0f b6 00             	movzbl (%rax),%eax
    186a:	0f be c0             	movsbl %al,%eax
    186d:	89 c7                	mov    %eax,%edi
    186f:	e8 6c f8 ff ff       	callq  10e0 <isalpha@plt>
    1874:	85 c0                	test   %eax,%eax
    1876:	0f 94 c0             	sete   %al
    1879:	84 c0                	test   %al,%al
    187b:	74 06                	je     1883 <main+0x58d>
    187d:	c6 45 ab 00          	movb   $0x0,-0x55(%rbp)
    1881:	eb 06                	jmp    1889 <main+0x593>
    1883:	83 45 a4 01          	addl   $0x1,-0x5c(%rbp)
    1887:	eb ad                	jmp    1836 <main+0x540>
    1889:	80 7d ab 00          	cmpb   $0x0,-0x55(%rbp)
    188d:	74 2a                	je     18b9 <main+0x5c3>
    188f:	48 8d 35 22 08 00 00 	lea    0x822(%rip),%rsi        # 20b8 <_ZNSt8__detailL19_S_invalid_state_idE+0x10>
    1896:	48 8d 3d 03 28 00 00 	lea    0x2803(%rip),%rdi        # 40a0 <_ZSt4cout@@GLIBCXX_3.4>
    189d:	e8 ee f7 ff ff       	callq  1090 <_ZStlsISt11char_traitsIcEERSt13basic_ostreamIcT_ES5_PKc@plt>
    18a2:	48 89 c2             	mov    %rax,%rdx
    18a5:	48 8b 05 24 27 00 00 	mov    0x2724(%rip),%rax        # 3fd0 <_ZSt4endlIcSt11char_traitsIcEERSt13basic_ostreamIT_T0_ES6_@GLIBCXX_3.4>
    18ac:	48 89 c6             	mov    %rax,%rsi
    18af:	48 89 d7             	mov    %rdx,%rdi
    18b2:	e8 f9 f7 ff ff       	callq  10b0 <_ZNSolsEPFRSoS_E@plt>
    18b7:	eb 52                	jmp    190b <main+0x615>
    18b9:	48 8d 35 f0 07 00 00 	lea    0x7f0(%rip),%rsi        # 20b0 <_ZNSt8__detailL19_S_invalid_state_idE+0x8>
    18c0:	48 8d 3d d9 27 00 00 	lea    0x27d9(%rip),%rdi        # 40a0 <_ZSt4cout@@GLIBCXX_3.4>
    18c7:	e8 c4 f7 ff ff       	callq  1090 <_ZStlsISt11char_traitsIcEERSt13basic_ostreamIcT_ES5_PKc@plt>
    18cc:	48 89 c2             	mov    %rax,%rdx
    18cf:	48 8b 05 fa 26 00 00 	mov    0x26fa(%rip),%rax        # 3fd0 <_ZSt4endlIcSt11char_traitsIcEERSt13basic_ostreamIT_T0_ES6_@GLIBCXX_3.4>
    18d6:	48 89 c6             	mov    %rax,%rsi
    18d9:	48 89 d7             	mov    %rdx,%rdi
    18dc:	e8 cf f7 ff ff       	callq  10b0 <_ZNSolsEPFRSoS_E@plt>
    18e1:	eb 28                	jmp    190b <main+0x615>
    18e3:	48 8d 35 c6 07 00 00 	lea    0x7c6(%rip),%rsi        # 20b0 <_ZNSt8__detailL19_S_invalid_state_idE+0x8>
    18ea:	48 8d 3d af 27 00 00 	lea    0x27af(%rip),%rdi        # 40a0 <_ZSt4cout@@GLIBCXX_3.4>
    18f1:	e8 9a f7 ff ff       	callq  1090 <_ZStlsISt11char_traitsIcEERSt13basic_ostreamIcT_ES5_PKc@plt>
    18f6:	48 89 c2             	mov    %rax,%rdx
    18f9:	48 8b 05 d0 26 00 00 	mov    0x26d0(%rip),%rax        # 3fd0 <_ZSt4endlIcSt11char_traitsIcEERSt13basic_ostreamIT_T0_ES6_@GLIBCXX_3.4>
    1900:	48 89 c6             	mov    %rax,%rsi
    1903:	48 89 d7             	mov    %rdx,%rdi
    1906:	e8 a5 f7 ff ff       	callq  10b0 <_ZNSolsEPFRSoS_E@plt>
    190b:	bb 00 00 00 00       	mov    $0x0,%ebx
    1910:	48 8d 45 80          	lea    -0x80(%rbp),%rax
    1914:	48 89 c7             	mov    %rax,%rdi
    1917:	e8 34 f7 ff ff       	callq  1050 <_ZNSt7__cxx1112basic_stringIcSt11char_traitsIcESaIcEED1Ev@plt>
    191c:	89 d8                	mov    %ebx,%eax
    191e:	eb 1a                	jmp    193a <main+0x644>
    1920:	48 89 c3             	mov    %rax,%rbx
    1923:	48 8d 45 80          	lea    -0x80(%rbp),%rax
    1927:	48 89 c7             	mov    %rax,%rdi
    192a:	e8 21 f7 ff ff       	callq  1050 <_ZNSt7__cxx1112basic_stringIcSt11char_traitsIcESaIcEED1Ev@plt>
    192f:	48 89 d8             	mov    %rbx,%rax
    1932:	48 89 c7             	mov    %rax,%rdi
    1935:	e8 b6 f7 ff ff       	callq  10f0 <_Unwind_Resume@plt>
    193a:	48 83 c4 78          	add    $0x78,%rsp
    193e:	5b                   	pop    %rbx
    193f:	5d                   	pop    %rbp
    1940:	c3                   	retq   

0000000000001941 <_Z41__static_initialization_and_destruction_0ii>:
    1941:	55                   	push   %rbp
    1942:	48 89 e5             	mov    %rsp,%rbp
    1945:	48 83 ec 10          	sub    $0x10,%rsp
    1949:	89 7d fc             	mov    %edi,-0x4(%rbp)
    194c:	89 75 f8             	mov    %esi,-0x8(%rbp)
    194f:	83 7d fc 01          	cmpl   $0x1,-0x4(%rbp)
    1953:	75 32                	jne    1987 <_Z41__static_initialization_and_destruction_0ii+0x46>
    1955:	81 7d f8 ff ff 00 00 	cmpl   $0xffff,-0x8(%rbp)
    195c:	75 29                	jne    1987 <_Z41__static_initialization_and_destruction_0ii+0x46>
    195e:	48 8d 3d 74 29 00 00 	lea    0x2974(%rip),%rdi        # 42d9 <_ZStL8__ioinit>
    1965:	e8 66 f7 ff ff       	callq  10d0 <_ZNSt8ios_base4InitC1Ev@plt>
    196a:	48 8d 15 1f 27 00 00 	lea    0x271f(%rip),%rdx        # 4090 <__dso_handle>
    1971:	48 8d 35 61 29 00 00 	lea    0x2961(%rip),%rsi        # 42d9 <_ZStL8__ioinit>
    1978:	48 8b 05 79 26 00 00 	mov    0x2679(%rip),%rax        # 3ff8 <_ZNSt8ios_base4InitD1Ev@GLIBCXX_3.4>
    197f:	48 89 c7             	mov    %rax,%rdi
    1982:	e8 f9 f6 ff ff       	callq  1080 <__cxa_atexit@plt>
    1987:	90                   	nop
    1988:	c9                   	leaveq 
    1989:	c3                   	retq   

000000000000198a <_GLOBAL__sub_I__Z7decSortxx>:
    198a:	55                   	push   %rbp
    198b:	48 89 e5             	mov    %rsp,%rbp
    198e:	be ff ff 00 00       	mov    $0xffff,%esi
    1993:	bf 01 00 00 00       	mov    $0x1,%edi
    1998:	e8 a4 ff ff ff       	callq  1941 <_Z41__static_initialization_and_destruction_0ii>
    199d:	5d                   	pop    %rbp
    199e:	c3                   	retq   
    199f:	90                   	nop

00000000000019a0 <__libc_csu_init>:
    19a0:	41 57                	push   %r15
    19a2:	4c 8d 3d 07 24 00 00 	lea    0x2407(%rip),%r15        # 3db0 <__frame_dummy_init_array_entry>
    19a9:	41 56                	push   %r14
    19ab:	49 89 d6             	mov    %rdx,%r14
    19ae:	41 55                	push   %r13
    19b0:	49 89 f5             	mov    %rsi,%r13
    19b3:	41 54                	push   %r12
    19b5:	41 89 fc             	mov    %edi,%r12d
    19b8:	55                   	push   %rbp
    19b9:	48 8d 2d 00 24 00 00 	lea    0x2400(%rip),%rbp        # 3dc0 <__do_global_dtors_aux_fini_array_entry>
    19c0:	53                   	push   %rbx
    19c1:	4c 29 fd             	sub    %r15,%rbp
    19c4:	48 83 ec 08          	sub    $0x8,%rsp
    19c8:	e8 33 f6 ff ff       	callq  1000 <_init>
    19cd:	48 c1 fd 03          	sar    $0x3,%rbp
    19d1:	74 1b                	je     19ee <__libc_csu_init+0x4e>
    19d3:	31 db                	xor    %ebx,%ebx
    19d5:	0f 1f 00             	nopl   (%rax)
    19d8:	4c 89 f2             	mov    %r14,%rdx
    19db:	4c 89 ee             	mov    %r13,%rsi
    19de:	44 89 e7             	mov    %r12d,%edi
    19e1:	41 ff 14 df          	callq  *(%r15,%rbx,8)
    19e5:	48 83 c3 01          	add    $0x1,%rbx
    19e9:	48 39 dd             	cmp    %rbx,%rbp
    19ec:	75 ea                	jne    19d8 <__libc_csu_init+0x38>
    19ee:	48 83 c4 08          	add    $0x8,%rsp
    19f2:	5b                   	pop    %rbx
    19f3:	5d                   	pop    %rbp
    19f4:	41 5c                	pop    %r12
    19f6:	41 5d                	pop    %r13
    19f8:	41 5e                	pop    %r14
    19fa:	41 5f                	pop    %r15
    19fc:	c3                   	retq   
    19fd:	0f 1f 00             	nopl   (%rax)

0000000000001a00 <__libc_csu_fini>:
    1a00:	c3                   	retq   

Disassembly of section .fini:

0000000000001a04 <_fini>:
    1a04:	48 83 ec 08          	sub    $0x8,%rsp
    1a08:	48 83 c4 08          	add    $0x8,%rsp
    1a0c:	c3                   	retq   
