
VECTAR8 - Primal Fear.out:     file format elf64-x86-64


Disassembly of section .init:

0000000000001000 <_init>:
    1000:	48 83 ec 08          	sub    $0x8,%rsp
    1004:	48 8b 05 dd 3f 00 00 	mov    0x3fdd(%rip),%rax        # 4fe8 <__gmon_start__>
    100b:	48 85 c0             	test   %rax,%rax
    100e:	74 02                	je     1012 <_init+0x12>
    1010:	ff d0                	callq  *%rax
    1012:	48 83 c4 08          	add    $0x8,%rsp
    1016:	c3                   	retq   

Disassembly of section .plt:

0000000000001020 <.plt>:
    1020:	ff 35 e2 3f 00 00    	pushq  0x3fe2(%rip)        # 5008 <_GLOBAL_OFFSET_TABLE_+0x8>
    1026:	ff 25 e4 3f 00 00    	jmpq   *0x3fe4(%rip)        # 5010 <_GLOBAL_OFFSET_TABLE_+0x10>
    102c:	0f 1f 40 00          	nopl   0x0(%rax)

0000000000001030 <_ZSt17__throw_bad_allocv@plt>:
    1030:	ff 25 e2 3f 00 00    	jmpq   *0x3fe2(%rip)        # 5018 <_ZSt17__throw_bad_allocv@GLIBCXX_3.4>
    1036:	68 00 00 00 00       	pushq  $0x0
    103b:	e9 e0 ff ff ff       	jmpq   1020 <.plt>

0000000000001040 <__cxa_begin_catch@plt>:
    1040:	ff 25 da 3f 00 00    	jmpq   *0x3fda(%rip)        # 5020 <__cxa_begin_catch@CXXABI_1.3>
    1046:	68 01 00 00 00       	pushq  $0x1
    104b:	e9 d0 ff ff ff       	jmpq   1020 <.plt>

0000000000001050 <_ZSt20__throw_length_errorPKc@plt>:
    1050:	ff 25 d2 3f 00 00    	jmpq   *0x3fd2(%rip)        # 5028 <_ZSt20__throw_length_errorPKc@GLIBCXX_3.4>
    1056:	68 02 00 00 00       	pushq  $0x2
    105b:	e9 c0 ff ff ff       	jmpq   1020 <.plt>

0000000000001060 <_ZNSolsEx@plt>:
    1060:	ff 25 ca 3f 00 00    	jmpq   *0x3fca(%rip)        # 5030 <_ZNSolsEx@GLIBCXX_3.4>
    1066:	68 03 00 00 00       	pushq  $0x3
    106b:	e9 b0 ff ff ff       	jmpq   1020 <.plt>

0000000000001070 <__cxa_atexit@plt>:
    1070:	ff 25 c2 3f 00 00    	jmpq   *0x3fc2(%rip)        # 5038 <__cxa_atexit@GLIBC_2.2.5>
    1076:	68 04 00 00 00       	pushq  $0x4
    107b:	e9 a0 ff ff ff       	jmpq   1020 <.plt>

0000000000001080 <_ZdlPv@plt>:
    1080:	ff 25 ba 3f 00 00    	jmpq   *0x3fba(%rip)        # 5040 <_ZdlPv@GLIBCXX_3.4>
    1086:	68 05 00 00 00       	pushq  $0x5
    108b:	e9 90 ff ff ff       	jmpq   1020 <.plt>

0000000000001090 <_Znwm@plt>:
    1090:	ff 25 b2 3f 00 00    	jmpq   *0x3fb2(%rip)        # 5048 <_Znwm@GLIBCXX_3.4>
    1096:	68 06 00 00 00       	pushq  $0x6
    109b:	e9 80 ff ff ff       	jmpq   1020 <.plt>

00000000000010a0 <_ZNSolsEPFRSoS_E@plt>:
    10a0:	ff 25 aa 3f 00 00    	jmpq   *0x3faa(%rip)        # 5050 <_ZNSolsEPFRSoS_E@GLIBCXX_3.4>
    10a6:	68 07 00 00 00       	pushq  $0x7
    10ab:	e9 70 ff ff ff       	jmpq   1020 <.plt>

00000000000010b0 <_ZNSirsERx@plt>:
    10b0:	ff 25 a2 3f 00 00    	jmpq   *0x3fa2(%rip)        # 5058 <_ZNSirsERx@GLIBCXX_3.4>
    10b6:	68 08 00 00 00       	pushq  $0x8
    10bb:	e9 60 ff ff ff       	jmpq   1020 <.plt>

00000000000010c0 <__cxa_rethrow@plt>:
    10c0:	ff 25 9a 3f 00 00    	jmpq   *0x3f9a(%rip)        # 5060 <__cxa_rethrow@CXXABI_1.3>
    10c6:	68 09 00 00 00       	pushq  $0x9
    10cb:	e9 50 ff ff ff       	jmpq   1020 <.plt>

00000000000010d0 <_ZNSt8ios_base4InitC1Ev@plt>:
    10d0:	ff 25 92 3f 00 00    	jmpq   *0x3f92(%rip)        # 5068 <_ZNSt8ios_base4InitC1Ev@GLIBCXX_3.4>
    10d6:	68 0a 00 00 00       	pushq  $0xa
    10db:	e9 40 ff ff ff       	jmpq   1020 <.plt>

00000000000010e0 <memmove@plt>:
    10e0:	ff 25 8a 3f 00 00    	jmpq   *0x3f8a(%rip)        # 5070 <memmove@GLIBC_2.2.5>
    10e6:	68 0b 00 00 00       	pushq  $0xb
    10eb:	e9 30 ff ff ff       	jmpq   1020 <.plt>

00000000000010f0 <__cxa_end_catch@plt>:
    10f0:	ff 25 82 3f 00 00    	jmpq   *0x3f82(%rip)        # 5078 <__cxa_end_catch@CXXABI_1.3>
    10f6:	68 0c 00 00 00       	pushq  $0xc
    10fb:	e9 20 ff ff ff       	jmpq   1020 <.plt>

0000000000001100 <_Unwind_Resume@plt>:
    1100:	ff 25 7a 3f 00 00    	jmpq   *0x3f7a(%rip)        # 5080 <_Unwind_Resume@GCC_3.0>
    1106:	68 0d 00 00 00       	pushq  $0xd
    110b:	e9 10 ff ff ff       	jmpq   1020 <.plt>

Disassembly of section .plt.got:

0000000000001110 <__cxa_finalize@plt>:
    1110:	ff 25 b2 3e 00 00    	jmpq   *0x3eb2(%rip)        # 4fc8 <__cxa_finalize@GLIBC_2.2.5>
    1116:	66 90                	xchg   %ax,%ax

Disassembly of section .text:

0000000000001120 <_start>:
    1120:	31 ed                	xor    %ebp,%ebp
    1122:	49 89 d1             	mov    %rdx,%r9
    1125:	5e                   	pop    %rsi
    1126:	48 89 e2             	mov    %rsp,%rdx
    1129:	48 83 e4 f0          	and    $0xfffffffffffffff0,%rsp
    112d:	50                   	push   %rax
    112e:	54                   	push   %rsp
    112f:	4c 8d 05 da 12 00 00 	lea    0x12da(%rip),%r8        # 2410 <__libc_csu_fini>
    1136:	48 8d 0d 73 12 00 00 	lea    0x1273(%rip),%rcx        # 23b0 <__libc_csu_init>
    113d:	48 8d 3d 66 02 00 00 	lea    0x266(%rip),%rdi        # 13aa <main>
    1144:	ff 15 96 3e 00 00    	callq  *0x3e96(%rip)        # 4fe0 <__libc_start_main@GLIBC_2.2.5>
    114a:	f4                   	hlt    
    114b:	0f 1f 44 00 00       	nopl   0x0(%rax,%rax,1)

0000000000001150 <deregister_tm_clones>:
    1150:	48 8d 3d 49 3f 00 00 	lea    0x3f49(%rip),%rdi        # 50a0 <_ZSt4cout@@GLIBCXX_3.4>
    1157:	48 8d 05 42 3f 00 00 	lea    0x3f42(%rip),%rax        # 50a0 <_ZSt4cout@@GLIBCXX_3.4>
    115e:	48 39 f8             	cmp    %rdi,%rax
    1161:	74 15                	je     1178 <deregister_tm_clones+0x28>
    1163:	48 8b 05 6e 3e 00 00 	mov    0x3e6e(%rip),%rax        # 4fd8 <_ITM_deregisterTMCloneTable>
    116a:	48 85 c0             	test   %rax,%rax
    116d:	74 09                	je     1178 <deregister_tm_clones+0x28>
    116f:	ff e0                	jmpq   *%rax
    1171:	0f 1f 80 00 00 00 00 	nopl   0x0(%rax)
    1178:	c3                   	retq   
    1179:	0f 1f 80 00 00 00 00 	nopl   0x0(%rax)

0000000000001180 <register_tm_clones>:
    1180:	48 8d 3d 19 3f 00 00 	lea    0x3f19(%rip),%rdi        # 50a0 <_ZSt4cout@@GLIBCXX_3.4>
    1187:	48 8d 35 12 3f 00 00 	lea    0x3f12(%rip),%rsi        # 50a0 <_ZSt4cout@@GLIBCXX_3.4>
    118e:	48 29 fe             	sub    %rdi,%rsi
    1191:	48 89 f0             	mov    %rsi,%rax
    1194:	48 c1 ee 3f          	shr    $0x3f,%rsi
    1198:	48 c1 f8 03          	sar    $0x3,%rax
    119c:	48 01 c6             	add    %rax,%rsi
    119f:	48 d1 fe             	sar    %rsi
    11a2:	74 14                	je     11b8 <register_tm_clones+0x38>
    11a4:	48 8b 05 45 3e 00 00 	mov    0x3e45(%rip),%rax        # 4ff0 <_ITM_registerTMCloneTable>
    11ab:	48 85 c0             	test   %rax,%rax
    11ae:	74 08                	je     11b8 <register_tm_clones+0x38>
    11b0:	ff e0                	jmpq   *%rax
    11b2:	66 0f 1f 44 00 00    	nopw   0x0(%rax,%rax,1)
    11b8:	c3                   	retq   
    11b9:	0f 1f 80 00 00 00 00 	nopl   0x0(%rax)

00000000000011c0 <__do_global_dtors_aux>:
    11c0:	80 3d 11 41 00 00 00 	cmpb   $0x0,0x4111(%rip)        # 52d8 <completed.7447>
    11c7:	75 2f                	jne    11f8 <__do_global_dtors_aux+0x38>
    11c9:	55                   	push   %rbp
    11ca:	48 83 3d f6 3d 00 00 	cmpq   $0x0,0x3df6(%rip)        # 4fc8 <__cxa_finalize@GLIBC_2.2.5>
    11d1:	00 
    11d2:	48 89 e5             	mov    %rsp,%rbp
    11d5:	74 0c                	je     11e3 <__do_global_dtors_aux+0x23>
    11d7:	48 8b 3d b2 3e 00 00 	mov    0x3eb2(%rip),%rdi        # 5090 <__dso_handle>
    11de:	e8 2d ff ff ff       	callq  1110 <__cxa_finalize@plt>
    11e3:	e8 68 ff ff ff       	callq  1150 <deregister_tm_clones>
    11e8:	c6 05 e9 40 00 00 01 	movb   $0x1,0x40e9(%rip)        # 52d8 <completed.7447>
    11ef:	5d                   	pop    %rbp
    11f0:	c3                   	retq   
    11f1:	0f 1f 80 00 00 00 00 	nopl   0x0(%rax)
    11f8:	c3                   	retq   
    11f9:	0f 1f 80 00 00 00 00 	nopl   0x0(%rax)

0000000000001200 <frame_dummy>:
    1200:	e9 7b ff ff ff       	jmpq   1180 <register_tm_clones>

0000000000001205 <_Z7isPrimex>:
    1205:	55                   	push   %rbp
    1206:	48 89 e5             	mov    %rsp,%rbp
    1209:	48 89 7d f8          	mov    %rdi,-0x8(%rbp)
    120d:	48 83 7d f8 01       	cmpq   $0x1,-0x8(%rbp)
    1212:	7f 24                	jg     1238 <_Z7isPrimex+0x33>
    1214:	48 8d 15 c5 40 00 00 	lea    0x40c5(%rip),%rdx        # 52e0 <markted>
    121b:	48 8b 45 f8          	mov    -0x8(%rbp),%rax
    121f:	48 01 d0             	add    %rdx,%rax
    1222:	c6 00 01             	movb   $0x1,(%rax)
    1225:	48 8d 15 b4 40 00 00 	lea    0x40b4(%rip),%rdx        # 52e0 <markted>
    122c:	48 8b 45 f8          	mov    -0x8(%rbp),%rax
    1230:	48 01 d0             	add    %rdx,%rax
    1233:	0f b6 00             	movzbl (%rax),%eax
    1236:	eb 7d                	jmp    12b5 <_Z7isPrimex+0xb0>
    1238:	48 83 7d f8 02       	cmpq   $0x2,-0x8(%rbp)
    123d:	75 24                	jne    1263 <_Z7isPrimex+0x5e>
    123f:	48 8d 15 9a 40 00 00 	lea    0x409a(%rip),%rdx        # 52e0 <markted>
    1246:	48 8b 45 f8          	mov    -0x8(%rbp),%rax
    124a:	48 01 d0             	add    %rdx,%rax
    124d:	c6 00 00             	movb   $0x0,(%rax)
    1250:	48 8d 15 89 40 00 00 	lea    0x4089(%rip),%rdx        # 52e0 <markted>
    1257:	48 8b 45 f8          	mov    -0x8(%rbp),%rax
    125b:	48 01 d0             	add    %rdx,%rax
    125e:	0f b6 00             	movzbl (%rax),%eax
    1261:	eb 52                	jmp    12b5 <_Z7isPrimex+0xb0>
    1263:	48 8b 45 f8          	mov    -0x8(%rbp),%rax
    1267:	83 e0 01             	and    $0x1,%eax
    126a:	48 85 c0             	test   %rax,%rax
    126d:	75 24                	jne    1293 <_Z7isPrimex+0x8e>
    126f:	48 8d 15 6a 40 00 00 	lea    0x406a(%rip),%rdx        # 52e0 <markted>
    1276:	48 8b 45 f8          	mov    -0x8(%rbp),%rax
    127a:	48 01 d0             	add    %rdx,%rax
    127d:	c6 00 01             	movb   $0x1,(%rax)
    1280:	48 8d 15 59 40 00 00 	lea    0x4059(%rip),%rdx        # 52e0 <markted>
    1287:	48 8b 45 f8          	mov    -0x8(%rbp),%rax
    128b:	48 01 d0             	add    %rdx,%rax
    128e:	0f b6 00             	movzbl (%rax),%eax
    1291:	eb 22                	jmp    12b5 <_Z7isPrimex+0xb0>
    1293:	48 8d 15 46 40 00 00 	lea    0x4046(%rip),%rdx        # 52e0 <markted>
    129a:	48 8b 45 f8          	mov    -0x8(%rbp),%rax
    129e:	48 01 d0             	add    %rdx,%rax
    12a1:	c6 00 00             	movb   $0x0,(%rax)
    12a4:	48 8d 15 35 40 00 00 	lea    0x4035(%rip),%rdx        # 52e0 <markted>
    12ab:	48 8b 45 f8          	mov    -0x8(%rbp),%rax
    12af:	48 01 d0             	add    %rdx,%rax
    12b2:	0f b6 00             	movzbl (%rax),%eax
    12b5:	5d                   	pop    %rbp
    12b6:	c3                   	retq   

00000000000012b7 <_Z18seive_eratosthensex>:
    12b7:	55                   	push   %rbp
    12b8:	48 89 e5             	mov    %rsp,%rbp
    12bb:	48 89 7d e8          	mov    %rdi,-0x18(%rbp)
    12bf:	48 c7 45 f8 03 00 00 	movq   $0x3,-0x8(%rbp)
    12c6:	00 
    12c7:	48 8b 45 f8          	mov    -0x8(%rbp),%rax
    12cb:	48 0f af c0          	imul   %rax,%rax
    12cf:	48 39 45 e8          	cmp    %rax,-0x18(%rbp)
    12d3:	7e 53                	jle    1328 <_Z18seive_eratosthensex+0x71>
    12d5:	48 8d 15 04 40 00 00 	lea    0x4004(%rip),%rdx        # 52e0 <markted>
    12dc:	48 8b 45 f8          	mov    -0x8(%rbp),%rax
    12e0:	48 01 d0             	add    %rdx,%rax
    12e3:	0f b6 00             	movzbl (%rax),%eax
    12e6:	0f b6 c0             	movzbl %al,%eax
    12e9:	85 c0                	test   %eax,%eax
    12eb:	75 34                	jne    1321 <_Z18seive_eratosthensex+0x6a>
    12ed:	48 8b 45 f8          	mov    -0x8(%rbp),%rax
    12f1:	48 0f af c0          	imul   %rax,%rax
    12f5:	48 89 45 f0          	mov    %rax,-0x10(%rbp)
    12f9:	48 8b 45 f0          	mov    -0x10(%rbp),%rax
    12fd:	48 3b 45 e8          	cmp    -0x18(%rbp),%rax
    1301:	7d 1e                	jge    1321 <_Z18seive_eratosthensex+0x6a>
    1303:	48 8d 15 d6 3f 00 00 	lea    0x3fd6(%rip),%rdx        # 52e0 <markted>
    130a:	48 8b 45 f0          	mov    -0x10(%rbp),%rax
    130e:	48 01 d0             	add    %rdx,%rax
    1311:	c6 00 01             	movb   $0x1,(%rax)
    1314:	48 8b 45 f8          	mov    -0x8(%rbp),%rax
    1318:	48 01 c0             	add    %rax,%rax
    131b:	48 01 45 f0          	add    %rax,-0x10(%rbp)
    131f:	eb d8                	jmp    12f9 <_Z18seive_eratosthensex+0x42>
    1321:	48 83 45 f8 01       	addq   $0x1,-0x8(%rbp)
    1326:	eb 9f                	jmp    12c7 <_Z18seive_eratosthensex+0x10>
    1328:	90                   	nop
    1329:	5d                   	pop    %rbp
    132a:	c3                   	retq   

000000000000132b <_Z13isZeroPresentx>:
    132b:	55                   	push   %rbp
    132c:	48 89 e5             	mov    %rsp,%rbp
    132f:	48 89 7d f8          	mov    %rdi,-0x8(%rbp)
    1333:	48 83 7d f8 00       	cmpq   $0x0,-0x8(%rbp)
    1338:	7e 66                	jle    13a0 <_Z13isZeroPresentx+0x75>
    133a:	48 8b 4d f8          	mov    -0x8(%rbp),%rcx
    133e:	48 ba 67 66 66 66 66 	movabs $0x6666666666666667,%rdx
    1345:	66 66 66 
    1348:	48 89 c8             	mov    %rcx,%rax
    134b:	48 f7 ea             	imul   %rdx
    134e:	48 c1 fa 02          	sar    $0x2,%rdx
    1352:	48 89 c8             	mov    %rcx,%rax
    1355:	48 c1 f8 3f          	sar    $0x3f,%rax
    1359:	48 29 c2             	sub    %rax,%rdx
    135c:	48 89 d0             	mov    %rdx,%rax
    135f:	48 c1 e0 02          	shl    $0x2,%rax
    1363:	48 01 d0             	add    %rdx,%rax
    1366:	48 01 c0             	add    %rax,%rax
    1369:	48 29 c1             	sub    %rax,%rcx
    136c:	48 89 ca             	mov    %rcx,%rdx
    136f:	48 85 d2             	test   %rdx,%rdx
    1372:	74 2b                	je     139f <_Z13isZeroPresentx+0x74>
    1374:	48 8b 4d f8          	mov    -0x8(%rbp),%rcx
    1378:	48 ba 67 66 66 66 66 	movabs $0x6666666666666667,%rdx
    137f:	66 66 66 
    1382:	48 89 c8             	mov    %rcx,%rax
    1385:	48 f7 ea             	imul   %rdx
    1388:	48 c1 fa 02          	sar    $0x2,%rdx
    138c:	48 89 c8             	mov    %rcx,%rax
    138f:	48 c1 f8 3f          	sar    $0x3f,%rax
    1393:	48 29 c2             	sub    %rax,%rdx
    1396:	48 89 d0             	mov    %rdx,%rax
    1399:	48 89 45 f8          	mov    %rax,-0x8(%rbp)
    139d:	eb 94                	jmp    1333 <_Z13isZeroPresentx+0x8>
    139f:	90                   	nop
    13a0:	48 83 7d f8 00       	cmpq   $0x0,-0x8(%rbp)
    13a5:	0f 9f c0             	setg   %al
    13a8:	5d                   	pop    %rbp
    13a9:	c3                   	retq   

00000000000013aa <main>:
    13aa:	55                   	push   %rbp
    13ab:	48 89 e5             	mov    %rsp,%rbp
    13ae:	53                   	push   %rbx
    13af:	48 83 ec 68          	sub    $0x68,%rsp
    13b3:	48 c7 45 d0 a0 86 01 	movq   $0x186a0,-0x30(%rbp)
    13ba:	00 
    13bb:	48 c7 45 e8 00 00 00 	movq   $0x0,-0x18(%rbp)
    13c2:	00 
    13c3:	48 8b 45 e8          	mov    -0x18(%rbp),%rax
    13c7:	48 3b 45 d0          	cmp    -0x30(%rbp),%rax
    13cb:	7d 13                	jge    13e0 <main+0x36>
    13cd:	48 8b 45 e8          	mov    -0x18(%rbp),%rax
    13d1:	48 89 c7             	mov    %rax,%rdi
    13d4:	e8 2c fe ff ff       	callq  1205 <_Z7isPrimex>
    13d9:	48 83 45 e8 01       	addq   $0x1,-0x18(%rbp)
    13de:	eb e3                	jmp    13c3 <main+0x19>
    13e0:	48 8b 45 d0          	mov    -0x30(%rbp),%rax
    13e4:	48 89 c7             	mov    %rax,%rdi
    13e7:	e8 cb fe ff ff       	callq  12b7 <_Z18seive_eratosthensex>
    13ec:	48 8d 45 c8          	lea    -0x38(%rbp),%rax
    13f0:	48 89 c6             	mov    %rax,%rsi
    13f3:	48 8d 3d c6 3d 00 00 	lea    0x3dc6(%rip),%rdi        # 51c0 <_ZSt3cin@@GLIBCXX_3.4>
    13fa:	e8 b1 fc ff ff       	callq  10b0 <_ZNSirsERx@plt>
    13ff:	48 8b 45 c8          	mov    -0x38(%rbp),%rax
    1403:	48 8d 50 ff          	lea    -0x1(%rax),%rdx
    1407:	48 89 55 c8          	mov    %rdx,-0x38(%rbp)
    140b:	48 85 c0             	test   %rax,%rax
    140e:	0f 95 c0             	setne  %al
    1411:	84 c0                	test   %al,%al
    1413:	0f 84 04 01 00 00    	je     151d <main+0x173>
    1419:	48 8d 45 c0          	lea    -0x40(%rbp),%rax
    141d:	48 89 c6             	mov    %rax,%rsi
    1420:	48 8d 3d 99 3d 00 00 	lea    0x3d99(%rip),%rdi        # 51c0 <_ZSt3cin@@GLIBCXX_3.4>
    1427:	e8 84 fc ff ff       	callq  10b0 <_ZNSirsERx@plt>
    142c:	48 c7 45 e0 00 00 00 	movq   $0x0,-0x20(%rbp)
    1433:	00 
    1434:	48 8d 45 a0          	lea    -0x60(%rbp),%rax
    1438:	48 89 c7             	mov    %rax,%rdi
    143b:	e8 d8 01 00 00       	callq  1618 <_ZNSt6vectorIxSaIxEEC1Ev>
    1440:	48 c7 45 98 00 00 00 	movq   $0x0,-0x68(%rbp)
    1447:	00 
    1448:	48 8b 55 98          	mov    -0x68(%rbp),%rdx
    144c:	48 8b 45 c0          	mov    -0x40(%rbp),%rax
    1450:	48 39 c2             	cmp    %rax,%rdx
    1453:	7f 37                	jg     148c <main+0xe2>
    1455:	48 8b 45 98          	mov    -0x68(%rbp),%rax
    1459:	48 8d 15 80 3e 00 00 	lea    0x3e80(%rip),%rdx        # 52e0 <markted>
    1460:	0f b6 04 10          	movzbl (%rax,%rdx,1),%eax
    1464:	0f b6 c0             	movzbl %al,%eax
    1467:	85 c0                	test   %eax,%eax
    1469:	75 13                	jne    147e <main+0xd4>
    146b:	48 8d 55 98          	lea    -0x68(%rbp),%rdx
    146f:	48 8d 45 a0          	lea    -0x60(%rbp),%rax
    1473:	48 89 d6             	mov    %rdx,%rsi
    1476:	48 89 c7             	mov    %rax,%rdi
    1479:	e8 b6 02 00 00       	callq  1734 <_ZNSt6vectorIxSaIxEE9push_backERKx>
    147e:	48 8b 45 98          	mov    -0x68(%rbp),%rax
    1482:	48 83 c0 01          	add    $0x1,%rax
    1486:	48 89 45 98          	mov    %rax,-0x68(%rbp)
    148a:	eb bc                	jmp    1448 <main+0x9e>
    148c:	48 c7 45 d8 00 00 00 	movq   $0x0,-0x28(%rbp)
    1493:	00 
    1494:	48 8d 45 a0          	lea    -0x60(%rbp),%rax
    1498:	48 89 c7             	mov    %rax,%rdi
    149b:	e8 10 03 00 00       	callq  17b0 <_ZNKSt6vectorIxSaIxEE4sizeEv>
    14a0:	48 8b 55 d8          	mov    -0x28(%rbp),%rdx
    14a4:	48 39 d0             	cmp    %rdx,%rax
    14a7:	0f 97 c0             	seta   %al
    14aa:	84 c0                	test   %al,%al
    14ac:	74 36                	je     14e4 <main+0x13a>
    14ae:	48 8b 55 d8          	mov    -0x28(%rbp),%rdx
    14b2:	48 8d 45 a0          	lea    -0x60(%rbp),%rax
    14b6:	48 89 d6             	mov    %rdx,%rsi
    14b9:	48 89 c7             	mov    %rax,%rdi
    14bc:	e8 13 03 00 00       	callq  17d4 <_ZNSt6vectorIxSaIxEEixEm>
    14c1:	48 8b 00             	mov    (%rax),%rax
    14c4:	48 89 c7             	mov    %rax,%rdi
    14c7:	e8 5f fe ff ff       	callq  132b <_Z13isZeroPresentx>
    14cc:	0f b6 c0             	movzbl %al,%eax
    14cf:	85 c0                	test   %eax,%eax
    14d1:	0f 94 c0             	sete   %al
    14d4:	84 c0                	test   %al,%al
    14d6:	74 05                	je     14dd <main+0x133>
    14d8:	48 83 45 e0 01       	addq   $0x1,-0x20(%rbp)
    14dd:	48 83 45 d8 01       	addq   $0x1,-0x28(%rbp)
    14e2:	eb b0                	jmp    1494 <main+0xea>
    14e4:	48 8b 45 e0          	mov    -0x20(%rbp),%rax
    14e8:	48 89 c6             	mov    %rax,%rsi
    14eb:	48 8d 3d ae 3b 00 00 	lea    0x3bae(%rip),%rdi        # 50a0 <_ZSt4cout@@GLIBCXX_3.4>
    14f2:	e8 69 fb ff ff       	callq  1060 <_ZNSolsEx@plt>
    14f7:	48 89 c2             	mov    %rax,%rdx
    14fa:	48 8b 05 cf 3a 00 00 	mov    0x3acf(%rip),%rax        # 4fd0 <_ZSt4endlIcSt11char_traitsIcEERSt13basic_ostreamIT_T0_ES6_@GLIBCXX_3.4>
    1501:	48 89 c6             	mov    %rax,%rsi
    1504:	48 89 d7             	mov    %rdx,%rdi
    1507:	e8 94 fb ff ff       	callq  10a0 <_ZNSolsEPFRSoS_E@plt>
    150c:	48 8d 45 a0          	lea    -0x60(%rbp),%rax
    1510:	48 89 c7             	mov    %rax,%rdi
    1513:	e8 d8 01 00 00       	callq  16f0 <_ZNSt6vectorIxSaIxEED1Ev>
    1518:	e9 e2 fe ff ff       	jmpq   13ff <main+0x55>
    151d:	b8 00 00 00 00       	mov    $0x0,%eax
    1522:	eb 1a                	jmp    153e <main+0x194>
    1524:	48 89 c3             	mov    %rax,%rbx
    1527:	48 8d 45 a0          	lea    -0x60(%rbp),%rax
    152b:	48 89 c7             	mov    %rax,%rdi
    152e:	e8 bd 01 00 00       	callq  16f0 <_ZNSt6vectorIxSaIxEED1Ev>
    1533:	48 89 d8             	mov    %rbx,%rax
    1536:	48 89 c7             	mov    %rax,%rdi
    1539:	e8 c2 fb ff ff       	callq  1100 <_Unwind_Resume@plt>
    153e:	48 83 c4 68          	add    $0x68,%rsp
    1542:	5b                   	pop    %rbx
    1543:	5d                   	pop    %rbp
    1544:	c3                   	retq   

0000000000001545 <_Z41__static_initialization_and_destruction_0ii>:
    1545:	55                   	push   %rbp
    1546:	48 89 e5             	mov    %rsp,%rbp
    1549:	48 83 ec 10          	sub    $0x10,%rsp
    154d:	89 7d fc             	mov    %edi,-0x4(%rbp)
    1550:	89 75 f8             	mov    %esi,-0x8(%rbp)
    1553:	83 7d fc 01          	cmpl   $0x1,-0x4(%rbp)
    1557:	75 32                	jne    158b <_Z41__static_initialization_and_destruction_0ii+0x46>
    1559:	81 7d f8 ff ff 00 00 	cmpl   $0xffff,-0x8(%rbp)
    1560:	75 29                	jne    158b <_Z41__static_initialization_and_destruction_0ii+0x46>
    1562:	48 8d 3d 77 a2 cd 1d 	lea    0x1dcda277(%rip),%rdi        # 1dcdb7e0 <_ZStL8__ioinit>
    1569:	e8 62 fb ff ff       	callq  10d0 <_ZNSt8ios_base4InitC1Ev@plt>
    156e:	48 8d 15 1b 3b 00 00 	lea    0x3b1b(%rip),%rdx        # 5090 <__dso_handle>
    1575:	48 8d 35 64 a2 cd 1d 	lea    0x1dcda264(%rip),%rsi        # 1dcdb7e0 <_ZStL8__ioinit>
    157c:	48 8b 05 75 3a 00 00 	mov    0x3a75(%rip),%rax        # 4ff8 <_ZNSt8ios_base4InitD1Ev@GLIBCXX_3.4>
    1583:	48 89 c7             	mov    %rax,%rdi
    1586:	e8 e5 fa ff ff       	callq  1070 <__cxa_atexit@plt>
    158b:	90                   	nop
    158c:	c9                   	leaveq 
    158d:	c3                   	retq   

000000000000158e <_GLOBAL__sub_I_markted>:
    158e:	55                   	push   %rbp
    158f:	48 89 e5             	mov    %rsp,%rbp
    1592:	be ff ff 00 00       	mov    $0xffff,%esi
    1597:	bf 01 00 00 00       	mov    $0x1,%edi
    159c:	e8 a4 ff ff ff       	callq  1545 <_Z41__static_initialization_and_destruction_0ii>
    15a1:	5d                   	pop    %rbp
    15a2:	c3                   	retq   

00000000000015a3 <_ZnwmPv>:
    15a3:	55                   	push   %rbp
    15a4:	48 89 e5             	mov    %rsp,%rbp
    15a7:	48 89 7d f8          	mov    %rdi,-0x8(%rbp)
    15ab:	48 89 75 f0          	mov    %rsi,-0x10(%rbp)
    15af:	48 8b 45 f0          	mov    -0x10(%rbp),%rax
    15b3:	5d                   	pop    %rbp
    15b4:	c3                   	retq   

00000000000015b5 <_ZSt3minImERKT_S2_S2_>:
    15b5:	55                   	push   %rbp
    15b6:	48 89 e5             	mov    %rsp,%rbp
    15b9:	48 89 7d f8          	mov    %rdi,-0x8(%rbp)
    15bd:	48 89 75 f0          	mov    %rsi,-0x10(%rbp)
    15c1:	48 8b 45 f0          	mov    -0x10(%rbp),%rax
    15c5:	48 8b 10             	mov    (%rax),%rdx
    15c8:	48 8b 45 f8          	mov    -0x8(%rbp),%rax
    15cc:	48 8b 00             	mov    (%rax),%rax
    15cf:	48 39 c2             	cmp    %rax,%rdx
    15d2:	73 06                	jae    15da <_ZSt3minImERKT_S2_S2_+0x25>
    15d4:	48 8b 45 f0          	mov    -0x10(%rbp),%rax
    15d8:	eb 04                	jmp    15de <_ZSt3minImERKT_S2_S2_+0x29>
    15da:	48 8b 45 f8          	mov    -0x8(%rbp),%rax
    15de:	5d                   	pop    %rbp
    15df:	c3                   	retq   

00000000000015e0 <_ZNSt12_Vector_baseIxSaIxEE12_Vector_implD1Ev>:
    15e0:	55                   	push   %rbp
    15e1:	48 89 e5             	mov    %rsp,%rbp
    15e4:	48 83 ec 10          	sub    $0x10,%rsp
    15e8:	48 89 7d f8          	mov    %rdi,-0x8(%rbp)
    15ec:	48 8b 45 f8          	mov    -0x8(%rbp),%rax
    15f0:	48 89 c7             	mov    %rax,%rdi
    15f3:	e8 8e 00 00 00       	callq  1686 <_ZNSaIxED1Ev>
    15f8:	90                   	nop
    15f9:	c9                   	leaveq 
    15fa:	c3                   	retq   
    15fb:	90                   	nop

00000000000015fc <_ZNSt12_Vector_baseIxSaIxEEC1Ev>:
    15fc:	55                   	push   %rbp
    15fd:	48 89 e5             	mov    %rsp,%rbp
    1600:	48 83 ec 10          	sub    $0x10,%rsp
    1604:	48 89 7d f8          	mov    %rdi,-0x8(%rbp)
    1608:	48 8b 45 f8          	mov    -0x8(%rbp),%rax
    160c:	48 89 c7             	mov    %rax,%rdi
    160f:	e8 4a 00 00 00       	callq  165e <_ZNSt12_Vector_baseIxSaIxEE12_Vector_implC1Ev>
    1614:	90                   	nop
    1615:	c9                   	leaveq 
    1616:	c3                   	retq   
    1617:	90                   	nop

0000000000001618 <_ZNSt6vectorIxSaIxEEC1Ev>:
    1618:	55                   	push   %rbp
    1619:	48 89 e5             	mov    %rsp,%rbp
    161c:	48 83 ec 10          	sub    $0x10,%rsp
    1620:	48 89 7d f8          	mov    %rdi,-0x8(%rbp)
    1624:	48 8b 45 f8          	mov    -0x8(%rbp),%rax
    1628:	48 89 c7             	mov    %rax,%rdi
    162b:	e8 cc ff ff ff       	callq  15fc <_ZNSt12_Vector_baseIxSaIxEEC1Ev>
    1630:	90                   	nop
    1631:	c9                   	leaveq 
    1632:	c3                   	retq   

0000000000001633 <_ZSt3maxImERKT_S2_S2_>:
    1633:	55                   	push   %rbp
    1634:	48 89 e5             	mov    %rsp,%rbp
    1637:	48 89 7d f8          	mov    %rdi,-0x8(%rbp)
    163b:	48 89 75 f0          	mov    %rsi,-0x10(%rbp)
    163f:	48 8b 45 f8          	mov    -0x8(%rbp),%rax
    1643:	48 8b 10             	mov    (%rax),%rdx
    1646:	48 8b 45 f0          	mov    -0x10(%rbp),%rax
    164a:	48 8b 00             	mov    (%rax),%rax
    164d:	48 39 c2             	cmp    %rax,%rdx
    1650:	73 06                	jae    1658 <_ZSt3maxImERKT_S2_S2_+0x25>
    1652:	48 8b 45 f0          	mov    -0x10(%rbp),%rax
    1656:	eb 04                	jmp    165c <_ZSt3maxImERKT_S2_S2_+0x29>
    1658:	48 8b 45 f8          	mov    -0x8(%rbp),%rax
    165c:	5d                   	pop    %rbp
    165d:	c3                   	retq   

000000000000165e <_ZNSt12_Vector_baseIxSaIxEE12_Vector_implC1Ev>:
    165e:	55                   	push   %rbp
    165f:	48 89 e5             	mov    %rsp,%rbp
    1662:	48 83 ec 10          	sub    $0x10,%rsp
    1666:	48 89 7d f8          	mov    %rdi,-0x8(%rbp)
    166a:	48 8b 45 f8          	mov    -0x8(%rbp),%rax
    166e:	48 89 c7             	mov    %rax,%rdi
    1671:	e8 7e 01 00 00       	callq  17f4 <_ZNSaIxEC1Ev>
    1676:	48 8b 45 f8          	mov    -0x8(%rbp),%rax
    167a:	48 89 c7             	mov    %rax,%rdi
    167d:	e8 8e 01 00 00       	callq  1810 <_ZNSt12_Vector_baseIxSaIxEE17_Vector_impl_dataC1Ev>
    1682:	90                   	nop
    1683:	c9                   	leaveq 
    1684:	c3                   	retq   
    1685:	90                   	nop

0000000000001686 <_ZNSaIxED1Ev>:
    1686:	55                   	push   %rbp
    1687:	48 89 e5             	mov    %rsp,%rbp
    168a:	48 83 ec 10          	sub    $0x10,%rsp
    168e:	48 89 7d f8          	mov    %rdi,-0x8(%rbp)
    1692:	48 8b 45 f8          	mov    -0x8(%rbp),%rax
    1696:	48 89 c7             	mov    %rax,%rdi
    1699:	e8 a0 01 00 00       	callq  183e <_ZN9__gnu_cxx13new_allocatorIxED1Ev>
    169e:	90                   	nop
    169f:	c9                   	leaveq 
    16a0:	c3                   	retq   
    16a1:	90                   	nop

00000000000016a2 <_ZNSt12_Vector_baseIxSaIxEED1Ev>:
    16a2:	55                   	push   %rbp
    16a3:	48 89 e5             	mov    %rsp,%rbp
    16a6:	48 83 ec 10          	sub    $0x10,%rsp
    16aa:	48 89 7d f8          	mov    %rdi,-0x8(%rbp)
    16ae:	48 8b 45 f8          	mov    -0x8(%rbp),%rax
    16b2:	48 8b 50 10          	mov    0x10(%rax),%rdx
    16b6:	48 8b 45 f8          	mov    -0x8(%rbp),%rax
    16ba:	48 8b 00             	mov    (%rax),%rax
    16bd:	48 29 c2             	sub    %rax,%rdx
    16c0:	48 89 d0             	mov    %rdx,%rax
    16c3:	48 c1 f8 03          	sar    $0x3,%rax
    16c7:	48 89 c2             	mov    %rax,%rdx
    16ca:	48 8b 45 f8          	mov    -0x8(%rbp),%rax
    16ce:	48 8b 08             	mov    (%rax),%rcx
    16d1:	48 8b 45 f8          	mov    -0x8(%rbp),%rax
    16d5:	48 89 ce             	mov    %rcx,%rsi
    16d8:	48 89 c7             	mov    %rax,%rdi
    16db:	e8 6a 01 00 00       	callq  184a <_ZNSt12_Vector_baseIxSaIxEE13_M_deallocateEPxm>
    16e0:	48 8b 45 f8          	mov    -0x8(%rbp),%rax
    16e4:	48 89 c7             	mov    %rax,%rdi
    16e7:	e8 f4 fe ff ff       	callq  15e0 <_ZNSt12_Vector_baseIxSaIxEE12_Vector_implD1Ev>
    16ec:	90                   	nop
    16ed:	c9                   	leaveq 
    16ee:	c3                   	retq   
    16ef:	90                   	nop

00000000000016f0 <_ZNSt6vectorIxSaIxEED1Ev>:
    16f0:	55                   	push   %rbp
    16f1:	48 89 e5             	mov    %rsp,%rbp
    16f4:	48 83 ec 10          	sub    $0x10,%rsp
    16f8:	48 89 7d f8          	mov    %rdi,-0x8(%rbp)
    16fc:	48 8b 45 f8          	mov    -0x8(%rbp),%rax
    1700:	48 89 c7             	mov    %rax,%rdi
    1703:	e8 78 01 00 00       	callq  1880 <_ZNSt12_Vector_baseIxSaIxEE19_M_get_Tp_allocatorEv>
    1708:	48 89 c2             	mov    %rax,%rdx
    170b:	48 8b 45 f8          	mov    -0x8(%rbp),%rax
    170f:	48 8b 48 08          	mov    0x8(%rax),%rcx
    1713:	48 8b 45 f8          	mov    -0x8(%rbp),%rax
    1717:	48 8b 00             	mov    (%rax),%rax
    171a:	48 89 ce             	mov    %rcx,%rsi
    171d:	48 89 c7             	mov    %rax,%rdi
    1720:	e8 69 01 00 00       	callq  188e <_ZSt8_DestroyIPxxEvT_S1_RSaIT0_E>
    1725:	48 8b 45 f8          	mov    -0x8(%rbp),%rax
    1729:	48 89 c7             	mov    %rax,%rdi
    172c:	e8 71 ff ff ff       	callq  16a2 <_ZNSt12_Vector_baseIxSaIxEED1Ev>
    1731:	90                   	nop
    1732:	c9                   	leaveq 
    1733:	c3                   	retq   

0000000000001734 <_ZNSt6vectorIxSaIxEE9push_backERKx>:
    1734:	55                   	push   %rbp
    1735:	48 89 e5             	mov    %rsp,%rbp
    1738:	48 83 ec 10          	sub    $0x10,%rsp
    173c:	48 89 7d f8          	mov    %rdi,-0x8(%rbp)
    1740:	48 89 75 f0          	mov    %rsi,-0x10(%rbp)
    1744:	48 8b 45 f8          	mov    -0x8(%rbp),%rax
    1748:	48 8b 50 08          	mov    0x8(%rax),%rdx
    174c:	48 8b 45 f8          	mov    -0x8(%rbp),%rax
    1750:	48 8b 40 10          	mov    0x10(%rax),%rax
    1754:	48 39 c2             	cmp    %rax,%rdx
    1757:	74 31                	je     178a <_ZNSt6vectorIxSaIxEE9push_backERKx+0x56>
    1759:	48 8b 45 f8          	mov    -0x8(%rbp),%rax
    175d:	48 8b 48 08          	mov    0x8(%rax),%rcx
    1761:	48 8b 45 f8          	mov    -0x8(%rbp),%rax
    1765:	48 8b 55 f0          	mov    -0x10(%rbp),%rdx
    1769:	48 89 ce             	mov    %rcx,%rsi
    176c:	48 89 c7             	mov    %rax,%rdi
    176f:	e8 44 01 00 00       	callq  18b8 <_ZNSt16allocator_traitsISaIxEE9constructIxJRKxEEEvRS0_PT_DpOT0_>
    1774:	48 8b 45 f8          	mov    -0x8(%rbp),%rax
    1778:	48 8b 40 08          	mov    0x8(%rax),%rax
    177c:	48 8d 50 08          	lea    0x8(%rax),%rdx
    1780:	48 8b 45 f8          	mov    -0x8(%rbp),%rax
    1784:	48 89 50 08          	mov    %rdx,0x8(%rax)
    1788:	eb 22                	jmp    17ac <_ZNSt6vectorIxSaIxEE9push_backERKx+0x78>
    178a:	48 8b 45 f8          	mov    -0x8(%rbp),%rax
    178e:	48 89 c7             	mov    %rax,%rdi
    1791:	e8 5c 01 00 00       	callq  18f2 <_ZNSt6vectorIxSaIxEE3endEv>
    1796:	48 89 c1             	mov    %rax,%rcx
    1799:	48 8b 55 f0          	mov    -0x10(%rbp),%rdx
    179d:	48 8b 45 f8          	mov    -0x8(%rbp),%rax
    17a1:	48 89 ce             	mov    %rcx,%rsi
    17a4:	48 89 c7             	mov    %rax,%rdi
    17a7:	e8 8a 01 00 00       	callq  1936 <_ZNSt6vectorIxSaIxEE17_M_realloc_insertIJRKxEEEvN9__gnu_cxx17__normal_iteratorIPxS1_EEDpOT_>
    17ac:	90                   	nop
    17ad:	c9                   	leaveq 
    17ae:	c3                   	retq   
    17af:	90                   	nop

00000000000017b0 <_ZNKSt6vectorIxSaIxEE4sizeEv>:
    17b0:	55                   	push   %rbp
    17b1:	48 89 e5             	mov    %rsp,%rbp
    17b4:	48 89 7d f8          	mov    %rdi,-0x8(%rbp)
    17b8:	48 8b 45 f8          	mov    -0x8(%rbp),%rax
    17bc:	48 8b 50 08          	mov    0x8(%rax),%rdx
    17c0:	48 8b 45 f8          	mov    -0x8(%rbp),%rax
    17c4:	48 8b 00             	mov    (%rax),%rax
    17c7:	48 29 c2             	sub    %rax,%rdx
    17ca:	48 89 d0             	mov    %rdx,%rax
    17cd:	48 c1 f8 03          	sar    $0x3,%rax
    17d1:	5d                   	pop    %rbp
    17d2:	c3                   	retq   
    17d3:	90                   	nop

00000000000017d4 <_ZNSt6vectorIxSaIxEEixEm>:
    17d4:	55                   	push   %rbp
    17d5:	48 89 e5             	mov    %rsp,%rbp
    17d8:	48 89 7d f8          	mov    %rdi,-0x8(%rbp)
    17dc:	48 89 75 f0          	mov    %rsi,-0x10(%rbp)
    17e0:	48 8b 45 f8          	mov    -0x8(%rbp),%rax
    17e4:	48 8b 00             	mov    (%rax),%rax
    17e7:	48 8b 55 f0          	mov    -0x10(%rbp),%rdx
    17eb:	48 c1 e2 03          	shl    $0x3,%rdx
    17ef:	48 01 d0             	add    %rdx,%rax
    17f2:	5d                   	pop    %rbp
    17f3:	c3                   	retq   

00000000000017f4 <_ZNSaIxEC1Ev>:
    17f4:	55                   	push   %rbp
    17f5:	48 89 e5             	mov    %rsp,%rbp
    17f8:	48 83 ec 10          	sub    $0x10,%rsp
    17fc:	48 89 7d f8          	mov    %rdi,-0x8(%rbp)
    1800:	48 8b 45 f8          	mov    -0x8(%rbp),%rax
    1804:	48 89 c7             	mov    %rax,%rdi
    1807:	e8 ee 03 00 00       	callq  1bfa <_ZN9__gnu_cxx13new_allocatorIxEC1Ev>
    180c:	90                   	nop
    180d:	c9                   	leaveq 
    180e:	c3                   	retq   
    180f:	90                   	nop

0000000000001810 <_ZNSt12_Vector_baseIxSaIxEE17_Vector_impl_dataC1Ev>:
    1810:	55                   	push   %rbp
    1811:	48 89 e5             	mov    %rsp,%rbp
    1814:	48 89 7d f8          	mov    %rdi,-0x8(%rbp)
    1818:	48 8b 45 f8          	mov    -0x8(%rbp),%rax
    181c:	48 c7 00 00 00 00 00 	movq   $0x0,(%rax)
    1823:	48 8b 45 f8          	mov    -0x8(%rbp),%rax
    1827:	48 c7 40 08 00 00 00 	movq   $0x0,0x8(%rax)
    182e:	00 
    182f:	48 8b 45 f8          	mov    -0x8(%rbp),%rax
    1833:	48 c7 40 10 00 00 00 	movq   $0x0,0x10(%rax)
    183a:	00 
    183b:	90                   	nop
    183c:	5d                   	pop    %rbp
    183d:	c3                   	retq   

000000000000183e <_ZN9__gnu_cxx13new_allocatorIxED1Ev>:
    183e:	55                   	push   %rbp
    183f:	48 89 e5             	mov    %rsp,%rbp
    1842:	48 89 7d f8          	mov    %rdi,-0x8(%rbp)
    1846:	90                   	nop
    1847:	5d                   	pop    %rbp
    1848:	c3                   	retq   
    1849:	90                   	nop

000000000000184a <_ZNSt12_Vector_baseIxSaIxEE13_M_deallocateEPxm>:
    184a:	55                   	push   %rbp
    184b:	48 89 e5             	mov    %rsp,%rbp
    184e:	48 83 ec 20          	sub    $0x20,%rsp
    1852:	48 89 7d f8          	mov    %rdi,-0x8(%rbp)
    1856:	48 89 75 f0          	mov    %rsi,-0x10(%rbp)
    185a:	48 89 55 e8          	mov    %rdx,-0x18(%rbp)
    185e:	48 83 7d f0 00       	cmpq   $0x0,-0x10(%rbp)
    1863:	74 17                	je     187c <_ZNSt12_Vector_baseIxSaIxEE13_M_deallocateEPxm+0x32>
    1865:	48 8b 45 f8          	mov    -0x8(%rbp),%rax
    1869:	48 8b 55 e8          	mov    -0x18(%rbp),%rdx
    186d:	48 8b 4d f0          	mov    -0x10(%rbp),%rcx
    1871:	48 89 ce             	mov    %rcx,%rsi
    1874:	48 89 c7             	mov    %rax,%rdi
    1877:	e8 89 03 00 00       	callq  1c05 <_ZNSt16allocator_traitsISaIxEE10deallocateERS0_Pxm>
    187c:	90                   	nop
    187d:	c9                   	leaveq 
    187e:	c3                   	retq   
    187f:	90                   	nop

0000000000001880 <_ZNSt12_Vector_baseIxSaIxEE19_M_get_Tp_allocatorEv>:
    1880:	55                   	push   %rbp
    1881:	48 89 e5             	mov    %rsp,%rbp
    1884:	48 89 7d f8          	mov    %rdi,-0x8(%rbp)
    1888:	48 8b 45 f8          	mov    -0x8(%rbp),%rax
    188c:	5d                   	pop    %rbp
    188d:	c3                   	retq   

000000000000188e <_ZSt8_DestroyIPxxEvT_S1_RSaIT0_E>:
    188e:	55                   	push   %rbp
    188f:	48 89 e5             	mov    %rsp,%rbp
    1892:	48 83 ec 20          	sub    $0x20,%rsp
    1896:	48 89 7d f8          	mov    %rdi,-0x8(%rbp)
    189a:	48 89 75 f0          	mov    %rsi,-0x10(%rbp)
    189e:	48 89 55 e8          	mov    %rdx,-0x18(%rbp)
    18a2:	48 8b 55 f0          	mov    -0x10(%rbp),%rdx
    18a6:	48 8b 45 f8          	mov    -0x8(%rbp),%rax
    18aa:	48 89 d6             	mov    %rdx,%rsi
    18ad:	48 89 c7             	mov    %rax,%rdi
    18b0:	e8 7e 03 00 00       	callq  1c33 <_ZSt8_DestroyIPxEvT_S1_>
    18b5:	90                   	nop
    18b6:	c9                   	leaveq 
    18b7:	c3                   	retq   

00000000000018b8 <_ZNSt16allocator_traitsISaIxEE9constructIxJRKxEEEvRS0_PT_DpOT0_>:
    18b8:	55                   	push   %rbp
    18b9:	48 89 e5             	mov    %rsp,%rbp
    18bc:	48 83 ec 20          	sub    $0x20,%rsp
    18c0:	48 89 7d f8          	mov    %rdi,-0x8(%rbp)
    18c4:	48 89 75 f0          	mov    %rsi,-0x10(%rbp)
    18c8:	48 89 55 e8          	mov    %rdx,-0x18(%rbp)
    18cc:	48 8b 45 e8          	mov    -0x18(%rbp),%rax
    18d0:	48 89 c7             	mov    %rax,%rdi
    18d3:	e8 81 03 00 00       	callq  1c59 <_ZSt7forwardIRKxEOT_RNSt16remove_referenceIS2_E4typeE>
    18d8:	48 89 c2             	mov    %rax,%rdx
    18db:	48 8b 4d f0          	mov    -0x10(%rbp),%rcx
    18df:	48 8b 45 f8          	mov    -0x8(%rbp),%rax
    18e3:	48 89 ce             	mov    %rcx,%rsi
    18e6:	48 89 c7             	mov    %rax,%rdi
    18e9:	e8 7a 03 00 00       	callq  1c68 <_ZN9__gnu_cxx13new_allocatorIxE9constructIxJRKxEEEvPT_DpOT0_>
    18ee:	90                   	nop
    18ef:	c9                   	leaveq 
    18f0:	c3                   	retq   
    18f1:	90                   	nop

00000000000018f2 <_ZNSt6vectorIxSaIxEE3endEv>:
    18f2:	55                   	push   %rbp
    18f3:	48 89 e5             	mov    %rsp,%rbp
    18f6:	48 83 ec 20          	sub    $0x20,%rsp
    18fa:	48 89 7d e8          	mov    %rdi,-0x18(%rbp)
    18fe:	48 8b 45 e8          	mov    -0x18(%rbp),%rax
    1902:	48 8d 50 08          	lea    0x8(%rax),%rdx
    1906:	48 8d 45 f8          	lea    -0x8(%rbp),%rax
    190a:	48 89 d6             	mov    %rdx,%rsi
    190d:	48 89 c7             	mov    %rax,%rdi
    1910:	e8 93 03 00 00       	callq  1ca8 <_ZN9__gnu_cxx17__normal_iteratorIPxSt6vectorIxSaIxEEEC1ERKS1_>
    1915:	48 8b 45 f8          	mov    -0x8(%rbp),%rax
    1919:	c9                   	leaveq 
    191a:	c3                   	retq   

000000000000191b <_ZNSt6vectorIxSaIxEE15_S_use_relocateEv>:
    191b:	55                   	push   %rbp
    191c:	48 89 e5             	mov    %rsp,%rbp
    191f:	48 83 ec 10          	sub    $0x10,%rsp
    1923:	e8 02 00 00 00       	callq  192a <_ZNSt6vectorIxSaIxEE19_S_nothrow_relocateESt17integral_constantIbLb1EE>
    1928:	c9                   	leaveq 
    1929:	c3                   	retq   

000000000000192a <_ZNSt6vectorIxSaIxEE19_S_nothrow_relocateESt17integral_constantIbLb1EE>:
    192a:	55                   	push   %rbp
    192b:	48 89 e5             	mov    %rsp,%rbp
    192e:	b8 01 00 00 00       	mov    $0x1,%eax
    1933:	5d                   	pop    %rbp
    1934:	c3                   	retq   
    1935:	90                   	nop

0000000000001936 <_ZNSt6vectorIxSaIxEE17_M_realloc_insertIJRKxEEEvN9__gnu_cxx17__normal_iteratorIPxS1_EEDpOT_>:
    1936:	55                   	push   %rbp
    1937:	48 89 e5             	mov    %rsp,%rbp
    193a:	53                   	push   %rbx
    193b:	48 83 ec 68          	sub    $0x68,%rsp
    193f:	48 89 7d a8          	mov    %rdi,-0x58(%rbp)
    1943:	48 89 75 a0          	mov    %rsi,-0x60(%rbp)
    1947:	48 89 55 98          	mov    %rdx,-0x68(%rbp)
    194b:	48 8b 45 a8          	mov    -0x58(%rbp),%rax
    194f:	48 8d 15 5a 17 00 00 	lea    0x175a(%rip),%rdx        # 30b0 <_ZNSt8__detailL19_S_invalid_state_idE+0x8>
    1956:	be 01 00 00 00       	mov    $0x1,%esi
    195b:	48 89 c7             	mov    %rax,%rdi
    195e:	e8 63 03 00 00       	callq  1cc6 <_ZNKSt6vectorIxSaIxEE12_M_check_lenEmPKc>
    1963:	48 89 45 e0          	mov    %rax,-0x20(%rbp)
    1967:	48 8b 45 a8          	mov    -0x58(%rbp),%rax
    196b:	48 8b 00             	mov    (%rax),%rax
    196e:	48 89 45 d8          	mov    %rax,-0x28(%rbp)
    1972:	48 8b 45 a8          	mov    -0x58(%rbp),%rax
    1976:	48 8b 40 08          	mov    0x8(%rax),%rax
    197a:	48 89 45 d0          	mov    %rax,-0x30(%rbp)
    197e:	48 8b 45 a8          	mov    -0x58(%rbp),%rax
    1982:	48 89 c7             	mov    %rax,%rdi
    1985:	e8 06 04 00 00       	callq  1d90 <_ZNSt6vectorIxSaIxEE5beginEv>
    198a:	48 89 45 b8          	mov    %rax,-0x48(%rbp)
    198e:	48 8d 55 b8          	lea    -0x48(%rbp),%rdx
    1992:	48 8d 45 a0          	lea    -0x60(%rbp),%rax
    1996:	48 89 d6             	mov    %rdx,%rsi
    1999:	48 89 c7             	mov    %rax,%rdi
    199c:	e8 14 04 00 00       	callq  1db5 <_ZN9__gnu_cxxmiIPxSt6vectorIxSaIxEEEENS_17__normal_iteratorIT_T0_E15difference_typeERKS8_SB_>
    19a1:	48 89 45 c8          	mov    %rax,-0x38(%rbp)
    19a5:	48 8b 45 a8          	mov    -0x58(%rbp),%rax
    19a9:	48 8b 55 e0          	mov    -0x20(%rbp),%rdx
    19ad:	48 89 d6             	mov    %rdx,%rsi
    19b0:	48 89 c7             	mov    %rax,%rdi
    19b3:	e8 3e 04 00 00       	callq  1df6 <_ZNSt12_Vector_baseIxSaIxEE11_M_allocateEm>
    19b8:	48 89 45 c0          	mov    %rax,-0x40(%rbp)
    19bc:	48 8b 45 c0          	mov    -0x40(%rbp),%rax
    19c0:	48 89 45 e8          	mov    %rax,-0x18(%rbp)
    19c4:	48 8b 45 98          	mov    -0x68(%rbp),%rax
    19c8:	48 89 c7             	mov    %rax,%rdi
    19cb:	e8 89 02 00 00       	callq  1c59 <_ZSt7forwardIRKxEOT_RNSt16remove_referenceIS2_E4typeE>
    19d0:	48 89 c2             	mov    %rax,%rdx
    19d3:	48 8b 45 c8          	mov    -0x38(%rbp),%rax
    19d7:	48 8d 0c c5 00 00 00 	lea    0x0(,%rax,8),%rcx
    19de:	00 
    19df:	48 8b 45 c0          	mov    -0x40(%rbp),%rax
    19e3:	48 01 c1             	add    %rax,%rcx
    19e6:	48 8b 45 a8          	mov    -0x58(%rbp),%rax
    19ea:	48 89 ce             	mov    %rcx,%rsi
    19ed:	48 89 c7             	mov    %rax,%rdi
    19f0:	e8 c3 fe ff ff       	callq  18b8 <_ZNSt16allocator_traitsISaIxEE9constructIxJRKxEEEvRS0_PT_DpOT0_>
    19f5:	48 c7 45 e8 00 00 00 	movq   $0x0,-0x18(%rbp)
    19fc:	00 
    19fd:	e8 19 ff ff ff       	callq  191b <_ZNSt6vectorIxSaIxEE15_S_use_relocateEv>
    1a02:	84 c0                	test   %al,%al
    1a04:	74 71                	je     1a77 <_ZNSt6vectorIxSaIxEE17_M_realloc_insertIJRKxEEEvN9__gnu_cxx17__normal_iteratorIPxS1_EEDpOT_+0x141>
    1a06:	48 8b 45 a8          	mov    -0x58(%rbp),%rax
    1a0a:	48 89 c7             	mov    %rax,%rdi
    1a0d:	e8 6e fe ff ff       	callq  1880 <_ZNSt12_Vector_baseIxSaIxEE19_M_get_Tp_allocatorEv>
    1a12:	48 89 c3             	mov    %rax,%rbx
    1a15:	48 8d 45 a0          	lea    -0x60(%rbp),%rax
    1a19:	48 89 c7             	mov    %rax,%rdi
    1a1c:	e8 3b 04 00 00       	callq  1e5c <_ZNK9__gnu_cxx17__normal_iteratorIPxSt6vectorIxSaIxEEE4baseEv>
    1a21:	48 8b 30             	mov    (%rax),%rsi
    1a24:	48 8b 55 c0          	mov    -0x40(%rbp),%rdx
    1a28:	48 8b 45 d8          	mov    -0x28(%rbp),%rax
    1a2c:	48 89 d9             	mov    %rbx,%rcx
    1a2f:	48 89 c7             	mov    %rax,%rdi
    1a32:	e8 f2 03 00 00       	callq  1e29 <_ZNSt6vectorIxSaIxEE11_S_relocateEPxS2_S2_RS0_>
    1a37:	48 89 45 e8          	mov    %rax,-0x18(%rbp)
    1a3b:	48 83 45 e8 08       	addq   $0x8,-0x18(%rbp)
    1a40:	48 8b 45 a8          	mov    -0x58(%rbp),%rax
    1a44:	48 89 c7             	mov    %rax,%rdi
    1a47:	e8 34 fe ff ff       	callq  1880 <_ZNSt12_Vector_baseIxSaIxEE19_M_get_Tp_allocatorEv>
    1a4c:	48 89 c3             	mov    %rax,%rbx
    1a4f:	48 8d 45 a0          	lea    -0x60(%rbp),%rax
    1a53:	48 89 c7             	mov    %rax,%rdi
    1a56:	e8 01 04 00 00       	callq  1e5c <_ZNK9__gnu_cxx17__normal_iteratorIPxSt6vectorIxSaIxEEE4baseEv>
    1a5b:	48 8b 00             	mov    (%rax),%rax
    1a5e:	48 8b 55 e8          	mov    -0x18(%rbp),%rdx
    1a62:	48 8b 75 d0          	mov    -0x30(%rbp),%rsi
    1a66:	48 89 d9             	mov    %rbx,%rcx
    1a69:	48 89 c7             	mov    %rax,%rdi
    1a6c:	e8 b8 03 00 00       	callq  1e29 <_ZNSt6vectorIxSaIxEE11_S_relocateEPxS2_S2_RS0_>
    1a71:	48 89 45 e8          	mov    %rax,-0x18(%rbp)
    1a75:	eb 6f                	jmp    1ae6 <_ZNSt6vectorIxSaIxEE17_M_realloc_insertIJRKxEEEvN9__gnu_cxx17__normal_iteratorIPxS1_EEDpOT_+0x1b0>
    1a77:	48 8b 45 a8          	mov    -0x58(%rbp),%rax
    1a7b:	48 89 c7             	mov    %rax,%rdi
    1a7e:	e8 fd fd ff ff       	callq  1880 <_ZNSt12_Vector_baseIxSaIxEE19_M_get_Tp_allocatorEv>
    1a83:	48 89 c3             	mov    %rax,%rbx
    1a86:	48 8d 45 a0          	lea    -0x60(%rbp),%rax
    1a8a:	48 89 c7             	mov    %rax,%rdi
    1a8d:	e8 ca 03 00 00       	callq  1e5c <_ZNK9__gnu_cxx17__normal_iteratorIPxSt6vectorIxSaIxEEE4baseEv>
    1a92:	48 8b 30             	mov    (%rax),%rsi
    1a95:	48 8b 55 c0          	mov    -0x40(%rbp),%rdx
    1a99:	48 8b 45 d8          	mov    -0x28(%rbp),%rax
    1a9d:	48 89 d9             	mov    %rbx,%rcx
    1aa0:	48 89 c7             	mov    %rax,%rdi
    1aa3:	e8 c2 03 00 00       	callq  1e6a <_ZSt34__uninitialized_move_if_noexcept_aIPxS0_SaIxEET0_T_S3_S2_RT1_>
    1aa8:	48 89 45 e8          	mov    %rax,-0x18(%rbp)
    1aac:	48 83 45 e8 08       	addq   $0x8,-0x18(%rbp)
    1ab1:	48 8b 45 a8          	mov    -0x58(%rbp),%rax
    1ab5:	48 89 c7             	mov    %rax,%rdi
    1ab8:	e8 c3 fd ff ff       	callq  1880 <_ZNSt12_Vector_baseIxSaIxEE19_M_get_Tp_allocatorEv>
    1abd:	48 89 c3             	mov    %rax,%rbx
    1ac0:	48 8d 45 a0          	lea    -0x60(%rbp),%rax
    1ac4:	48 89 c7             	mov    %rax,%rdi
    1ac7:	e8 90 03 00 00       	callq  1e5c <_ZNK9__gnu_cxx17__normal_iteratorIPxSt6vectorIxSaIxEEE4baseEv>
    1acc:	48 8b 00             	mov    (%rax),%rax
    1acf:	48 8b 55 e8          	mov    -0x18(%rbp),%rdx
    1ad3:	48 8b 75 d0          	mov    -0x30(%rbp),%rsi
    1ad7:	48 89 d9             	mov    %rbx,%rcx
    1ada:	48 89 c7             	mov    %rax,%rdi
    1add:	e8 88 03 00 00       	callq  1e6a <_ZSt34__uninitialized_move_if_noexcept_aIPxS0_SaIxEET0_T_S3_S2_RT1_>
    1ae2:	48 89 45 e8          	mov    %rax,-0x18(%rbp)
    1ae6:	e8 30 fe ff ff       	callq  191b <_ZNSt6vectorIxSaIxEE15_S_use_relocateEv>
    1aeb:	83 f0 01             	xor    $0x1,%eax
    1aee:	84 c0                	test   %al,%al
    1af0:	74 22                	je     1b14 <_ZNSt6vectorIxSaIxEE17_M_realloc_insertIJRKxEEEvN9__gnu_cxx17__normal_iteratorIPxS1_EEDpOT_+0x1de>
    1af2:	48 8b 45 a8          	mov    -0x58(%rbp),%rax
    1af6:	48 89 c7             	mov    %rax,%rdi
    1af9:	e8 82 fd ff ff       	callq  1880 <_ZNSt12_Vector_baseIxSaIxEE19_M_get_Tp_allocatorEv>
    1afe:	48 89 c2             	mov    %rax,%rdx
    1b01:	48 8b 4d d0          	mov    -0x30(%rbp),%rcx
    1b05:	48 8b 45 d8          	mov    -0x28(%rbp),%rax
    1b09:	48 89 ce             	mov    %rcx,%rsi
    1b0c:	48 89 c7             	mov    %rax,%rdi
    1b0f:	e8 7a fd ff ff       	callq  188e <_ZSt8_DestroyIPxxEvT_S1_RSaIT0_E>
    1b14:	48 8b 45 a8          	mov    -0x58(%rbp),%rax
    1b18:	48 8b 55 a8          	mov    -0x58(%rbp),%rdx
    1b1c:	48 8b 52 10          	mov    0x10(%rdx),%rdx
    1b20:	48 2b 55 d8          	sub    -0x28(%rbp),%rdx
    1b24:	48 c1 fa 03          	sar    $0x3,%rdx
    1b28:	48 8b 4d d8          	mov    -0x28(%rbp),%rcx
    1b2c:	48 89 ce             	mov    %rcx,%rsi
    1b2f:	48 89 c7             	mov    %rax,%rdi
    1b32:	e8 13 fd ff ff       	callq  184a <_ZNSt12_Vector_baseIxSaIxEE13_M_deallocateEPxm>
    1b37:	48 8b 45 a8          	mov    -0x58(%rbp),%rax
    1b3b:	48 8b 55 c0          	mov    -0x40(%rbp),%rdx
    1b3f:	48 89 10             	mov    %rdx,(%rax)
    1b42:	48 8b 45 a8          	mov    -0x58(%rbp),%rax
    1b46:	48 8b 55 e8          	mov    -0x18(%rbp),%rdx
    1b4a:	48 89 50 08          	mov    %rdx,0x8(%rax)
    1b4e:	48 8b 45 e0          	mov    -0x20(%rbp),%rax
    1b52:	48 8d 14 c5 00 00 00 	lea    0x0(,%rax,8),%rdx
    1b59:	00 
    1b5a:	48 8b 45 c0          	mov    -0x40(%rbp),%rax
    1b5e:	48 01 c2             	add    %rax,%rdx
    1b61:	48 8b 45 a8          	mov    -0x58(%rbp),%rax
    1b65:	48 89 50 10          	mov    %rdx,0x10(%rax)
    1b69:	e9 84 00 00 00       	jmpq   1bf2 <_ZNSt6vectorIxSaIxEE17_M_realloc_insertIJRKxEEEvN9__gnu_cxx17__normal_iteratorIPxS1_EEDpOT_+0x2bc>
    1b6e:	48 89 c7             	mov    %rax,%rdi
    1b71:	e8 ca f4 ff ff       	callq  1040 <__cxa_begin_catch@plt>
    1b76:	48 83 7d e8 00       	cmpq   $0x0,-0x18(%rbp)
    1b7b:	75 24                	jne    1ba1 <_ZNSt6vectorIxSaIxEE17_M_realloc_insertIJRKxEEEvN9__gnu_cxx17__normal_iteratorIPxS1_EEDpOT_+0x26b>
    1b7d:	48 8b 45 c8          	mov    -0x38(%rbp),%rax
    1b81:	48 8d 14 c5 00 00 00 	lea    0x0(,%rax,8),%rdx
    1b88:	00 
    1b89:	48 8b 45 c0          	mov    -0x40(%rbp),%rax
    1b8d:	48 01 c2             	add    %rax,%rdx
    1b90:	48 8b 45 a8          	mov    -0x58(%rbp),%rax
    1b94:	48 89 d6             	mov    %rdx,%rsi
    1b97:	48 89 c7             	mov    %rax,%rdi
    1b9a:	e8 1f 03 00 00       	callq  1ebe <_ZNSt16allocator_traitsISaIxEE7destroyIxEEvRS0_PT_>
    1b9f:	eb 22                	jmp    1bc3 <_ZNSt6vectorIxSaIxEE17_M_realloc_insertIJRKxEEEvN9__gnu_cxx17__normal_iteratorIPxS1_EEDpOT_+0x28d>
    1ba1:	48 8b 45 a8          	mov    -0x58(%rbp),%rax
    1ba5:	48 89 c7             	mov    %rax,%rdi
    1ba8:	e8 d3 fc ff ff       	callq  1880 <_ZNSt12_Vector_baseIxSaIxEE19_M_get_Tp_allocatorEv>
    1bad:	48 89 c2             	mov    %rax,%rdx
    1bb0:	48 8b 4d e8          	mov    -0x18(%rbp),%rcx
    1bb4:	48 8b 45 c0          	mov    -0x40(%rbp),%rax
    1bb8:	48 89 ce             	mov    %rcx,%rsi
    1bbb:	48 89 c7             	mov    %rax,%rdi
    1bbe:	e8 cb fc ff ff       	callq  188e <_ZSt8_DestroyIPxxEvT_S1_RSaIT0_E>
    1bc3:	48 8b 45 a8          	mov    -0x58(%rbp),%rax
    1bc7:	48 8b 55 e0          	mov    -0x20(%rbp),%rdx
    1bcb:	48 8b 4d c0          	mov    -0x40(%rbp),%rcx
    1bcf:	48 89 ce             	mov    %rcx,%rsi
    1bd2:	48 89 c7             	mov    %rax,%rdi
    1bd5:	e8 70 fc ff ff       	callq  184a <_ZNSt12_Vector_baseIxSaIxEE13_M_deallocateEPxm>
    1bda:	e8 e1 f4 ff ff       	callq  10c0 <__cxa_rethrow@plt>
    1bdf:	48 89 c3             	mov    %rax,%rbx
    1be2:	e8 09 f5 ff ff       	callq  10f0 <__cxa_end_catch@plt>
    1be7:	48 89 d8             	mov    %rbx,%rax
    1bea:	48 89 c7             	mov    %rax,%rdi
    1bed:	e8 0e f5 ff ff       	callq  1100 <_Unwind_Resume@plt>
    1bf2:	48 83 c4 68          	add    $0x68,%rsp
    1bf6:	5b                   	pop    %rbx
    1bf7:	5d                   	pop    %rbp
    1bf8:	c3                   	retq   
    1bf9:	90                   	nop

0000000000001bfa <_ZN9__gnu_cxx13new_allocatorIxEC1Ev>:
    1bfa:	55                   	push   %rbp
    1bfb:	48 89 e5             	mov    %rsp,%rbp
    1bfe:	48 89 7d f8          	mov    %rdi,-0x8(%rbp)
    1c02:	90                   	nop
    1c03:	5d                   	pop    %rbp
    1c04:	c3                   	retq   

0000000000001c05 <_ZNSt16allocator_traitsISaIxEE10deallocateERS0_Pxm>:
    1c05:	55                   	push   %rbp
    1c06:	48 89 e5             	mov    %rsp,%rbp
    1c09:	48 83 ec 20          	sub    $0x20,%rsp
    1c0d:	48 89 7d f8          	mov    %rdi,-0x8(%rbp)
    1c11:	48 89 75 f0          	mov    %rsi,-0x10(%rbp)
    1c15:	48 89 55 e8          	mov    %rdx,-0x18(%rbp)
    1c19:	48 8b 55 e8          	mov    -0x18(%rbp),%rdx
    1c1d:	48 8b 4d f0          	mov    -0x10(%rbp),%rcx
    1c21:	48 8b 45 f8          	mov    -0x8(%rbp),%rax
    1c25:	48 89 ce             	mov    %rcx,%rsi
    1c28:	48 89 c7             	mov    %rax,%rdi
    1c2b:	e8 b4 02 00 00       	callq  1ee4 <_ZN9__gnu_cxx13new_allocatorIxE10deallocateEPxm>
    1c30:	90                   	nop
    1c31:	c9                   	leaveq 
    1c32:	c3                   	retq   

0000000000001c33 <_ZSt8_DestroyIPxEvT_S1_>:
    1c33:	55                   	push   %rbp
    1c34:	48 89 e5             	mov    %rsp,%rbp
    1c37:	48 83 ec 10          	sub    $0x10,%rsp
    1c3b:	48 89 7d f8          	mov    %rdi,-0x8(%rbp)
    1c3f:	48 89 75 f0          	mov    %rsi,-0x10(%rbp)
    1c43:	48 8b 55 f0          	mov    -0x10(%rbp),%rdx
    1c47:	48 8b 45 f8          	mov    -0x8(%rbp),%rax
    1c4b:	48 89 d6             	mov    %rdx,%rsi
    1c4e:	48 89 c7             	mov    %rax,%rdi
    1c51:	e8 b1 02 00 00       	callq  1f07 <_ZNSt12_Destroy_auxILb1EE9__destroyIPxEEvT_S3_>
    1c56:	90                   	nop
    1c57:	c9                   	leaveq 
    1c58:	c3                   	retq   

0000000000001c59 <_ZSt7forwardIRKxEOT_RNSt16remove_referenceIS2_E4typeE>:
    1c59:	55                   	push   %rbp
    1c5a:	48 89 e5             	mov    %rsp,%rbp
    1c5d:	48 89 7d f8          	mov    %rdi,-0x8(%rbp)
    1c61:	48 8b 45 f8          	mov    -0x8(%rbp),%rax
    1c65:	5d                   	pop    %rbp
    1c66:	c3                   	retq   
    1c67:	90                   	nop

0000000000001c68 <_ZN9__gnu_cxx13new_allocatorIxE9constructIxJRKxEEEvPT_DpOT0_>:
    1c68:	55                   	push   %rbp
    1c69:	48 89 e5             	mov    %rsp,%rbp
    1c6c:	53                   	push   %rbx
    1c6d:	48 83 ec 28          	sub    $0x28,%rsp
    1c71:	48 89 7d e8          	mov    %rdi,-0x18(%rbp)
    1c75:	48 89 75 e0          	mov    %rsi,-0x20(%rbp)
    1c79:	48 89 55 d8          	mov    %rdx,-0x28(%rbp)
    1c7d:	48 8b 45 d8          	mov    -0x28(%rbp),%rax
    1c81:	48 89 c7             	mov    %rax,%rdi
    1c84:	e8 d0 ff ff ff       	callq  1c59 <_ZSt7forwardIRKxEOT_RNSt16remove_referenceIS2_E4typeE>
    1c89:	48 8b 18             	mov    (%rax),%rbx
    1c8c:	48 8b 45 e0          	mov    -0x20(%rbp),%rax
    1c90:	48 89 c6             	mov    %rax,%rsi
    1c93:	bf 08 00 00 00       	mov    $0x8,%edi
    1c98:	e8 06 f9 ff ff       	callq  15a3 <_ZnwmPv>
    1c9d:	48 89 18             	mov    %rbx,(%rax)
    1ca0:	90                   	nop
    1ca1:	48 83 c4 28          	add    $0x28,%rsp
    1ca5:	5b                   	pop    %rbx
    1ca6:	5d                   	pop    %rbp
    1ca7:	c3                   	retq   

0000000000001ca8 <_ZN9__gnu_cxx17__normal_iteratorIPxSt6vectorIxSaIxEEEC1ERKS1_>:
    1ca8:	55                   	push   %rbp
    1ca9:	48 89 e5             	mov    %rsp,%rbp
    1cac:	48 89 7d f8          	mov    %rdi,-0x8(%rbp)
    1cb0:	48 89 75 f0          	mov    %rsi,-0x10(%rbp)
    1cb4:	48 8b 45 f0          	mov    -0x10(%rbp),%rax
    1cb8:	48 8b 10             	mov    (%rax),%rdx
    1cbb:	48 8b 45 f8          	mov    -0x8(%rbp),%rax
    1cbf:	48 89 10             	mov    %rdx,(%rax)
    1cc2:	90                   	nop
    1cc3:	5d                   	pop    %rbp
    1cc4:	c3                   	retq   
    1cc5:	90                   	nop

0000000000001cc6 <_ZNKSt6vectorIxSaIxEE12_M_check_lenEmPKc>:
    1cc6:	55                   	push   %rbp
    1cc7:	48 89 e5             	mov    %rsp,%rbp
    1cca:	53                   	push   %rbx
    1ccb:	48 83 ec 38          	sub    $0x38,%rsp
    1ccf:	48 89 7d d8          	mov    %rdi,-0x28(%rbp)
    1cd3:	48 89 75 d0          	mov    %rsi,-0x30(%rbp)
    1cd7:	48 89 55 c8          	mov    %rdx,-0x38(%rbp)
    1cdb:	48 8b 45 d8          	mov    -0x28(%rbp),%rax
    1cdf:	48 89 c7             	mov    %rax,%rdi
    1ce2:	e8 2f 02 00 00       	callq  1f16 <_ZNKSt6vectorIxSaIxEE8max_sizeEv>
    1ce7:	48 89 c3             	mov    %rax,%rbx
    1cea:	48 8b 45 d8          	mov    -0x28(%rbp),%rax
    1cee:	48 89 c7             	mov    %rax,%rdi
    1cf1:	e8 ba fa ff ff       	callq  17b0 <_ZNKSt6vectorIxSaIxEE4sizeEv>
    1cf6:	48 29 c3             	sub    %rax,%rbx
    1cf9:	48 89 da             	mov    %rbx,%rdx
    1cfc:	48 8b 45 d0          	mov    -0x30(%rbp),%rax
    1d00:	48 39 c2             	cmp    %rax,%rdx
    1d03:	0f 92 c0             	setb   %al
    1d06:	84 c0                	test   %al,%al
    1d08:	74 0c                	je     1d16 <_ZNKSt6vectorIxSaIxEE12_M_check_lenEmPKc+0x50>
    1d0a:	48 8b 45 c8          	mov    -0x38(%rbp),%rax
    1d0e:	48 89 c7             	mov    %rax,%rdi
    1d11:	e8 3a f3 ff ff       	callq  1050 <_ZSt20__throw_length_errorPKc@plt>
    1d16:	48 8b 45 d8          	mov    -0x28(%rbp),%rax
    1d1a:	48 89 c7             	mov    %rax,%rdi
    1d1d:	e8 8e fa ff ff       	callq  17b0 <_ZNKSt6vectorIxSaIxEE4sizeEv>
    1d22:	48 89 c3             	mov    %rax,%rbx
    1d25:	48 8b 45 d8          	mov    -0x28(%rbp),%rax
    1d29:	48 89 c7             	mov    %rax,%rdi
    1d2c:	e8 7f fa ff ff       	callq  17b0 <_ZNKSt6vectorIxSaIxEE4sizeEv>
    1d31:	48 89 45 e0          	mov    %rax,-0x20(%rbp)
    1d35:	48 8d 55 d0          	lea    -0x30(%rbp),%rdx
    1d39:	48 8d 45 e0          	lea    -0x20(%rbp),%rax
    1d3d:	48 89 d6             	mov    %rdx,%rsi
    1d40:	48 89 c7             	mov    %rax,%rdi
    1d43:	e8 eb f8 ff ff       	callq  1633 <_ZSt3maxImERKT_S2_S2_>
    1d48:	48 8b 00             	mov    (%rax),%rax
    1d4b:	48 01 d8             	add    %rbx,%rax
    1d4e:	48 89 45 e8          	mov    %rax,-0x18(%rbp)
    1d52:	48 8b 45 d8          	mov    -0x28(%rbp),%rax
    1d56:	48 89 c7             	mov    %rax,%rdi
    1d59:	e8 52 fa ff ff       	callq  17b0 <_ZNKSt6vectorIxSaIxEE4sizeEv>
    1d5e:	48 39 45 e8          	cmp    %rax,-0x18(%rbp)
    1d62:	72 12                	jb     1d76 <_ZNKSt6vectorIxSaIxEE12_M_check_lenEmPKc+0xb0>
    1d64:	48 8b 45 d8          	mov    -0x28(%rbp),%rax
    1d68:	48 89 c7             	mov    %rax,%rdi
    1d6b:	e8 a6 01 00 00       	callq  1f16 <_ZNKSt6vectorIxSaIxEE8max_sizeEv>
    1d70:	48 39 45 e8          	cmp    %rax,-0x18(%rbp)
    1d74:	76 0e                	jbe    1d84 <_ZNKSt6vectorIxSaIxEE12_M_check_lenEmPKc+0xbe>
    1d76:	48 8b 45 d8          	mov    -0x28(%rbp),%rax
    1d7a:	48 89 c7             	mov    %rax,%rdi
    1d7d:	e8 94 01 00 00       	callq  1f16 <_ZNKSt6vectorIxSaIxEE8max_sizeEv>
    1d82:	eb 04                	jmp    1d88 <_ZNKSt6vectorIxSaIxEE12_M_check_lenEmPKc+0xc2>
    1d84:	48 8b 45 e8          	mov    -0x18(%rbp),%rax
    1d88:	48 83 c4 38          	add    $0x38,%rsp
    1d8c:	5b                   	pop    %rbx
    1d8d:	5d                   	pop    %rbp
    1d8e:	c3                   	retq   
    1d8f:	90                   	nop

0000000000001d90 <_ZNSt6vectorIxSaIxEE5beginEv>:
    1d90:	55                   	push   %rbp
    1d91:	48 89 e5             	mov    %rsp,%rbp
    1d94:	48 83 ec 20          	sub    $0x20,%rsp
    1d98:	48 89 7d e8          	mov    %rdi,-0x18(%rbp)
    1d9c:	48 8b 55 e8          	mov    -0x18(%rbp),%rdx
    1da0:	48 8d 45 f8          	lea    -0x8(%rbp),%rax
    1da4:	48 89 d6             	mov    %rdx,%rsi
    1da7:	48 89 c7             	mov    %rax,%rdi
    1daa:	e8 f9 fe ff ff       	callq  1ca8 <_ZN9__gnu_cxx17__normal_iteratorIPxSt6vectorIxSaIxEEEC1ERKS1_>
    1daf:	48 8b 45 f8          	mov    -0x8(%rbp),%rax
    1db3:	c9                   	leaveq 
    1db4:	c3                   	retq   

0000000000001db5 <_ZN9__gnu_cxxmiIPxSt6vectorIxSaIxEEEENS_17__normal_iteratorIT_T0_E15difference_typeERKS8_SB_>:
    1db5:	55                   	push   %rbp
    1db6:	48 89 e5             	mov    %rsp,%rbp
    1db9:	53                   	push   %rbx
    1dba:	48 83 ec 18          	sub    $0x18,%rsp
    1dbe:	48 89 7d e8          	mov    %rdi,-0x18(%rbp)
    1dc2:	48 89 75 e0          	mov    %rsi,-0x20(%rbp)
    1dc6:	48 8b 45 e8          	mov    -0x18(%rbp),%rax
    1dca:	48 89 c7             	mov    %rax,%rdi
    1dcd:	e8 8a 00 00 00       	callq  1e5c <_ZNK9__gnu_cxx17__normal_iteratorIPxSt6vectorIxSaIxEEE4baseEv>
    1dd2:	48 8b 18             	mov    (%rax),%rbx
    1dd5:	48 8b 45 e0          	mov    -0x20(%rbp),%rax
    1dd9:	48 89 c7             	mov    %rax,%rdi
    1ddc:	e8 7b 00 00 00       	callq  1e5c <_ZNK9__gnu_cxx17__normal_iteratorIPxSt6vectorIxSaIxEEE4baseEv>
    1de1:	48 8b 00             	mov    (%rax),%rax
    1de4:	48 29 c3             	sub    %rax,%rbx
    1de7:	48 89 d8             	mov    %rbx,%rax
    1dea:	48 c1 f8 03          	sar    $0x3,%rax
    1dee:	48 83 c4 18          	add    $0x18,%rsp
    1df2:	5b                   	pop    %rbx
    1df3:	5d                   	pop    %rbp
    1df4:	c3                   	retq   
    1df5:	90                   	nop

0000000000001df6 <_ZNSt12_Vector_baseIxSaIxEE11_M_allocateEm>:
    1df6:	55                   	push   %rbp
    1df7:	48 89 e5             	mov    %rsp,%rbp
    1dfa:	48 83 ec 10          	sub    $0x10,%rsp
    1dfe:	48 89 7d f8          	mov    %rdi,-0x8(%rbp)
    1e02:	48 89 75 f0          	mov    %rsi,-0x10(%rbp)
    1e06:	48 83 7d f0 00       	cmpq   $0x0,-0x10(%rbp)
    1e0b:	74 15                	je     1e22 <_ZNSt12_Vector_baseIxSaIxEE11_M_allocateEm+0x2c>
    1e0d:	48 8b 45 f8          	mov    -0x8(%rbp),%rax
    1e11:	48 8b 55 f0          	mov    -0x10(%rbp),%rdx
    1e15:	48 89 d6             	mov    %rdx,%rsi
    1e18:	48 89 c7             	mov    %rax,%rdi
    1e1b:	e8 18 01 00 00       	callq  1f38 <_ZNSt16allocator_traitsISaIxEE8allocateERS0_m>
    1e20:	eb 05                	jmp    1e27 <_ZNSt12_Vector_baseIxSaIxEE11_M_allocateEm+0x31>
    1e22:	b8 00 00 00 00       	mov    $0x0,%eax
    1e27:	c9                   	leaveq 
    1e28:	c3                   	retq   

0000000000001e29 <_ZNSt6vectorIxSaIxEE11_S_relocateEPxS2_S2_RS0_>:
    1e29:	55                   	push   %rbp
    1e2a:	48 89 e5             	mov    %rsp,%rbp
    1e2d:	48 83 ec 30          	sub    $0x30,%rsp
    1e31:	48 89 7d e8          	mov    %rdi,-0x18(%rbp)
    1e35:	48 89 75 e0          	mov    %rsi,-0x20(%rbp)
    1e39:	48 89 55 d8          	mov    %rdx,-0x28(%rbp)
    1e3d:	48 89 4d d0          	mov    %rcx,-0x30(%rbp)
    1e41:	48 8b 4d d0          	mov    -0x30(%rbp),%rcx
    1e45:	48 8b 55 d8          	mov    -0x28(%rbp),%rdx
    1e49:	48 8b 75 e0          	mov    -0x20(%rbp),%rsi
    1e4d:	48 8b 45 e8          	mov    -0x18(%rbp),%rax
    1e51:	48 89 c7             	mov    %rax,%rdi
    1e54:	e8 09 01 00 00       	callq  1f62 <_ZNSt6vectorIxSaIxEE14_S_do_relocateEPxS2_S2_RS0_St17integral_constantIbLb1EE>
    1e59:	c9                   	leaveq 
    1e5a:	c3                   	retq   
    1e5b:	90                   	nop

0000000000001e5c <_ZNK9__gnu_cxx17__normal_iteratorIPxSt6vectorIxSaIxEEE4baseEv>:
    1e5c:	55                   	push   %rbp
    1e5d:	48 89 e5             	mov    %rsp,%rbp
    1e60:	48 89 7d f8          	mov    %rdi,-0x8(%rbp)
    1e64:	48 8b 45 f8          	mov    -0x8(%rbp),%rax
    1e68:	5d                   	pop    %rbp
    1e69:	c3                   	retq   

0000000000001e6a <_ZSt34__uninitialized_move_if_noexcept_aIPxS0_SaIxEET0_T_S3_S2_RT1_>:
    1e6a:	55                   	push   %rbp
    1e6b:	48 89 e5             	mov    %rsp,%rbp
    1e6e:	53                   	push   %rbx
    1e6f:	48 83 ec 28          	sub    $0x28,%rsp
    1e73:	48 89 7d e8          	mov    %rdi,-0x18(%rbp)
    1e77:	48 89 75 e0          	mov    %rsi,-0x20(%rbp)
    1e7b:	48 89 55 d8          	mov    %rdx,-0x28(%rbp)
    1e7f:	48 89 4d d0          	mov    %rcx,-0x30(%rbp)
    1e83:	48 8b 45 e0          	mov    -0x20(%rbp),%rax
    1e87:	48 89 c7             	mov    %rax,%rdi
    1e8a:	e8 05 01 00 00       	callq  1f94 <_ZSt32__make_move_if_noexcept_iteratorIxSt13move_iteratorIPxEET0_PT_>
    1e8f:	48 89 c3             	mov    %rax,%rbx
    1e92:	48 8b 45 e8          	mov    -0x18(%rbp),%rax
    1e96:	48 89 c7             	mov    %rax,%rdi
    1e99:	e8 f6 00 00 00       	callq  1f94 <_ZSt32__make_move_if_noexcept_iteratorIxSt13move_iteratorIPxEET0_PT_>
    1e9e:	48 89 c7             	mov    %rax,%rdi
    1ea1:	48 8b 55 d0          	mov    -0x30(%rbp),%rdx
    1ea5:	48 8b 45 d8          	mov    -0x28(%rbp),%rax
    1ea9:	48 89 d1             	mov    %rdx,%rcx
    1eac:	48 89 c2             	mov    %rax,%rdx
    1eaf:	48 89 de             	mov    %rbx,%rsi
    1eb2:	e8 02 01 00 00       	callq  1fb9 <_ZSt22__uninitialized_copy_aISt13move_iteratorIPxES1_xET0_T_S4_S3_RSaIT1_E>
    1eb7:	48 83 c4 28          	add    $0x28,%rsp
    1ebb:	5b                   	pop    %rbx
    1ebc:	5d                   	pop    %rbp
    1ebd:	c3                   	retq   

0000000000001ebe <_ZNSt16allocator_traitsISaIxEE7destroyIxEEvRS0_PT_>:
    1ebe:	55                   	push   %rbp
    1ebf:	48 89 e5             	mov    %rsp,%rbp
    1ec2:	48 83 ec 10          	sub    $0x10,%rsp
    1ec6:	48 89 7d f8          	mov    %rdi,-0x8(%rbp)
    1eca:	48 89 75 f0          	mov    %rsi,-0x10(%rbp)
    1ece:	48 8b 55 f0          	mov    -0x10(%rbp),%rdx
    1ed2:	48 8b 45 f8          	mov    -0x8(%rbp),%rax
    1ed6:	48 89 d6             	mov    %rdx,%rsi
    1ed9:	48 89 c7             	mov    %rax,%rdi
    1edc:	e8 09 01 00 00       	callq  1fea <_ZN9__gnu_cxx13new_allocatorIxE7destroyIxEEvPT_>
    1ee1:	90                   	nop
    1ee2:	c9                   	leaveq 
    1ee3:	c3                   	retq   

0000000000001ee4 <_ZN9__gnu_cxx13new_allocatorIxE10deallocateEPxm>:
    1ee4:	55                   	push   %rbp
    1ee5:	48 89 e5             	mov    %rsp,%rbp
    1ee8:	48 83 ec 20          	sub    $0x20,%rsp
    1eec:	48 89 7d f8          	mov    %rdi,-0x8(%rbp)
    1ef0:	48 89 75 f0          	mov    %rsi,-0x10(%rbp)
    1ef4:	48 89 55 e8          	mov    %rdx,-0x18(%rbp)
    1ef8:	48 8b 45 f0          	mov    -0x10(%rbp),%rax
    1efc:	48 89 c7             	mov    %rax,%rdi
    1eff:	e8 7c f1 ff ff       	callq  1080 <_ZdlPv@plt>
    1f04:	90                   	nop
    1f05:	c9                   	leaveq 
    1f06:	c3                   	retq   

0000000000001f07 <_ZNSt12_Destroy_auxILb1EE9__destroyIPxEEvT_S3_>:
    1f07:	55                   	push   %rbp
    1f08:	48 89 e5             	mov    %rsp,%rbp
    1f0b:	48 89 7d f8          	mov    %rdi,-0x8(%rbp)
    1f0f:	48 89 75 f0          	mov    %rsi,-0x10(%rbp)
    1f13:	90                   	nop
    1f14:	5d                   	pop    %rbp
    1f15:	c3                   	retq   

0000000000001f16 <_ZNKSt6vectorIxSaIxEE8max_sizeEv>:
    1f16:	55                   	push   %rbp
    1f17:	48 89 e5             	mov    %rsp,%rbp
    1f1a:	48 83 ec 10          	sub    $0x10,%rsp
    1f1e:	48 89 7d f8          	mov    %rdi,-0x8(%rbp)
    1f22:	48 8b 45 f8          	mov    -0x8(%rbp),%rax
    1f26:	48 89 c7             	mov    %rax,%rdi
    1f29:	e8 0e 01 00 00       	callq  203c <_ZNKSt12_Vector_baseIxSaIxEE19_M_get_Tp_allocatorEv>
    1f2e:	48 89 c7             	mov    %rax,%rdi
    1f31:	e8 c3 00 00 00       	callq  1ff9 <_ZNSt6vectorIxSaIxEE11_S_max_sizeERKS0_>
    1f36:	c9                   	leaveq 
    1f37:	c3                   	retq   

0000000000001f38 <_ZNSt16allocator_traitsISaIxEE8allocateERS0_m>:
    1f38:	55                   	push   %rbp
    1f39:	48 89 e5             	mov    %rsp,%rbp
    1f3c:	48 83 ec 10          	sub    $0x10,%rsp
    1f40:	48 89 7d f8          	mov    %rdi,-0x8(%rbp)
    1f44:	48 89 75 f0          	mov    %rsi,-0x10(%rbp)
    1f48:	48 8b 4d f0          	mov    -0x10(%rbp),%rcx
    1f4c:	48 8b 45 f8          	mov    -0x8(%rbp),%rax
    1f50:	ba 00 00 00 00       	mov    $0x0,%edx
    1f55:	48 89 ce             	mov    %rcx,%rsi
    1f58:	48 89 c7             	mov    %rax,%rdi
    1f5b:	e8 ea 00 00 00       	callq  204a <_ZN9__gnu_cxx13new_allocatorIxE8allocateEmPKv>
    1f60:	c9                   	leaveq 
    1f61:	c3                   	retq   

0000000000001f62 <_ZNSt6vectorIxSaIxEE14_S_do_relocateEPxS2_S2_RS0_St17integral_constantIbLb1EE>:
    1f62:	55                   	push   %rbp
    1f63:	48 89 e5             	mov    %rsp,%rbp
    1f66:	48 83 ec 20          	sub    $0x20,%rsp
    1f6a:	48 89 7d f8          	mov    %rdi,-0x8(%rbp)
    1f6e:	48 89 75 f0          	mov    %rsi,-0x10(%rbp)
    1f72:	48 89 55 e8          	mov    %rdx,-0x18(%rbp)
    1f76:	48 89 4d e0          	mov    %rcx,-0x20(%rbp)
    1f7a:	48 8b 4d e0          	mov    -0x20(%rbp),%rcx
    1f7e:	48 8b 55 e8          	mov    -0x18(%rbp),%rdx
    1f82:	48 8b 75 f0          	mov    -0x10(%rbp),%rsi
    1f86:	48 8b 45 f8          	mov    -0x8(%rbp),%rax
    1f8a:	48 89 c7             	mov    %rax,%rdi
    1f8d:	e8 fa 00 00 00       	callq  208c <_ZSt12__relocate_aIPxS0_SaIxEET0_T_S3_S2_RT1_>
    1f92:	c9                   	leaveq 
    1f93:	c3                   	retq   

0000000000001f94 <_ZSt32__make_move_if_noexcept_iteratorIxSt13move_iteratorIPxEET0_PT_>:
    1f94:	55                   	push   %rbp
    1f95:	48 89 e5             	mov    %rsp,%rbp
    1f98:	48 83 ec 20          	sub    $0x20,%rsp
    1f9c:	48 89 7d e8          	mov    %rdi,-0x18(%rbp)
    1fa0:	48 8b 55 e8          	mov    -0x18(%rbp),%rdx
    1fa4:	48 8d 45 f8          	lea    -0x8(%rbp),%rax
    1fa8:	48 89 d6             	mov    %rdx,%rsi
    1fab:	48 89 c7             	mov    %rax,%rdi
    1fae:	e8 3d 01 00 00       	callq  20f0 <_ZNSt13move_iteratorIPxEC1ES0_>
    1fb3:	48 8b 45 f8          	mov    -0x8(%rbp),%rax
    1fb7:	c9                   	leaveq 
    1fb8:	c3                   	retq   

0000000000001fb9 <_ZSt22__uninitialized_copy_aISt13move_iteratorIPxES1_xET0_T_S4_S3_RSaIT1_E>:
    1fb9:	55                   	push   %rbp
    1fba:	48 89 e5             	mov    %rsp,%rbp
    1fbd:	48 83 ec 20          	sub    $0x20,%rsp
    1fc1:	48 89 7d f8          	mov    %rdi,-0x8(%rbp)
    1fc5:	48 89 75 f0          	mov    %rsi,-0x10(%rbp)
    1fc9:	48 89 55 e8          	mov    %rdx,-0x18(%rbp)
    1fcd:	48 89 4d e0          	mov    %rcx,-0x20(%rbp)
    1fd1:	48 8b 55 e8          	mov    -0x18(%rbp),%rdx
    1fd5:	48 8b 4d f0          	mov    -0x10(%rbp),%rcx
    1fd9:	48 8b 45 f8          	mov    -0x8(%rbp),%rax
    1fdd:	48 89 ce             	mov    %rcx,%rsi
    1fe0:	48 89 c7             	mov    %rax,%rdi
    1fe3:	e8 22 01 00 00       	callq  210a <_ZSt18uninitialized_copyISt13move_iteratorIPxES1_ET0_T_S4_S3_>
    1fe8:	c9                   	leaveq 
    1fe9:	c3                   	retq   

0000000000001fea <_ZN9__gnu_cxx13new_allocatorIxE7destroyIxEEvPT_>:
    1fea:	55                   	push   %rbp
    1feb:	48 89 e5             	mov    %rsp,%rbp
    1fee:	48 89 7d f8          	mov    %rdi,-0x8(%rbp)
    1ff2:	48 89 75 f0          	mov    %rsi,-0x10(%rbp)
    1ff6:	90                   	nop
    1ff7:	5d                   	pop    %rbp
    1ff8:	c3                   	retq   

0000000000001ff9 <_ZNSt6vectorIxSaIxEE11_S_max_sizeERKS0_>:
    1ff9:	55                   	push   %rbp
    1ffa:	48 89 e5             	mov    %rsp,%rbp
    1ffd:	48 83 ec 20          	sub    $0x20,%rsp
    2001:	48 89 7d e8          	mov    %rdi,-0x18(%rbp)
    2005:	48 b8 ff ff ff ff ff 	movabs $0xfffffffffffffff,%rax
    200c:	ff ff 0f 
    200f:	48 89 45 f8          	mov    %rax,-0x8(%rbp)
    2013:	48 8b 45 e8          	mov    -0x18(%rbp),%rax
    2017:	48 89 c7             	mov    %rax,%rdi
    201a:	e8 1c 01 00 00       	callq  213b <_ZNSt16allocator_traitsISaIxEE8max_sizeERKS0_>
    201f:	48 89 45 f0          	mov    %rax,-0x10(%rbp)
    2023:	48 8d 55 f0          	lea    -0x10(%rbp),%rdx
    2027:	48 8d 45 f8          	lea    -0x8(%rbp),%rax
    202b:	48 89 d6             	mov    %rdx,%rsi
    202e:	48 89 c7             	mov    %rax,%rdi
    2031:	e8 7f f5 ff ff       	callq  15b5 <_ZSt3minImERKT_S2_S2_>
    2036:	48 8b 00             	mov    (%rax),%rax
    2039:	c9                   	leaveq 
    203a:	c3                   	retq   
    203b:	90                   	nop

000000000000203c <_ZNKSt12_Vector_baseIxSaIxEE19_M_get_Tp_allocatorEv>:
    203c:	55                   	push   %rbp
    203d:	48 89 e5             	mov    %rsp,%rbp
    2040:	48 89 7d f8          	mov    %rdi,-0x8(%rbp)
    2044:	48 8b 45 f8          	mov    -0x8(%rbp),%rax
    2048:	5d                   	pop    %rbp
    2049:	c3                   	retq   

000000000000204a <_ZN9__gnu_cxx13new_allocatorIxE8allocateEmPKv>:
    204a:	55                   	push   %rbp
    204b:	48 89 e5             	mov    %rsp,%rbp
    204e:	48 83 ec 20          	sub    $0x20,%rsp
    2052:	48 89 7d f8          	mov    %rdi,-0x8(%rbp)
    2056:	48 89 75 f0          	mov    %rsi,-0x10(%rbp)
    205a:	48 89 55 e8          	mov    %rdx,-0x18(%rbp)
    205e:	48 8b 45 f8          	mov    -0x8(%rbp),%rax
    2062:	48 89 c7             	mov    %rax,%rdi
    2065:	e8 ec 00 00 00       	callq  2156 <_ZNK9__gnu_cxx13new_allocatorIxE8max_sizeEv>
    206a:	48 39 45 f0          	cmp    %rax,-0x10(%rbp)
    206e:	0f 97 c0             	seta   %al
    2071:	84 c0                	test   %al,%al
    2073:	74 05                	je     207a <_ZN9__gnu_cxx13new_allocatorIxE8allocateEmPKv+0x30>
    2075:	e8 b6 ef ff ff       	callq  1030 <_ZSt17__throw_bad_allocv@plt>
    207a:	48 8b 45 f0          	mov    -0x10(%rbp),%rax
    207e:	48 c1 e0 03          	shl    $0x3,%rax
    2082:	48 89 c7             	mov    %rax,%rdi
    2085:	e8 06 f0 ff ff       	callq  1090 <_Znwm@plt>
    208a:	c9                   	leaveq 
    208b:	c3                   	retq   

000000000000208c <_ZSt12__relocate_aIPxS0_SaIxEET0_T_S3_S2_RT1_>:
    208c:	55                   	push   %rbp
    208d:	48 89 e5             	mov    %rsp,%rbp
    2090:	41 54                	push   %r12
    2092:	53                   	push   %rbx
    2093:	48 83 ec 20          	sub    $0x20,%rsp
    2097:	48 89 7d e8          	mov    %rdi,-0x18(%rbp)
    209b:	48 89 75 e0          	mov    %rsi,-0x20(%rbp)
    209f:	48 89 55 d8          	mov    %rdx,-0x28(%rbp)
    20a3:	48 89 4d d0          	mov    %rcx,-0x30(%rbp)
    20a7:	48 8b 45 d8          	mov    -0x28(%rbp),%rax
    20ab:	48 89 c7             	mov    %rax,%rdi
    20ae:	e8 b7 00 00 00       	callq  216a <_ZSt12__niter_baseIPxET_S1_>
    20b3:	49 89 c4             	mov    %rax,%r12
    20b6:	48 8b 45 e0          	mov    -0x20(%rbp),%rax
    20ba:	48 89 c7             	mov    %rax,%rdi
    20bd:	e8 a8 00 00 00       	callq  216a <_ZSt12__niter_baseIPxET_S1_>
    20c2:	48 89 c3             	mov    %rax,%rbx
    20c5:	48 8b 45 e8          	mov    -0x18(%rbp),%rax
    20c9:	48 89 c7             	mov    %rax,%rdi
    20cc:	e8 99 00 00 00       	callq  216a <_ZSt12__niter_baseIPxET_S1_>
    20d1:	48 89 c7             	mov    %rax,%rdi
    20d4:	48 8b 45 d0          	mov    -0x30(%rbp),%rax
    20d8:	48 89 c1             	mov    %rax,%rcx
    20db:	4c 89 e2             	mov    %r12,%rdx
    20de:	48 89 de             	mov    %rbx,%rsi
    20e1:	e8 92 00 00 00       	callq  2178 <_ZSt14__relocate_a_1IxxENSt9enable_ifIXsrSt24__is_bitwise_relocatableIT_vE5valueEPS2_E4typeES4_S4_S4_RSaIT0_E>
    20e6:	48 83 c4 20          	add    $0x20,%rsp
    20ea:	5b                   	pop    %rbx
    20eb:	41 5c                	pop    %r12
    20ed:	5d                   	pop    %rbp
    20ee:	c3                   	retq   
    20ef:	90                   	nop

00000000000020f0 <_ZNSt13move_iteratorIPxEC1ES0_>:
    20f0:	55                   	push   %rbp
    20f1:	48 89 e5             	mov    %rsp,%rbp
    20f4:	48 89 7d f8          	mov    %rdi,-0x8(%rbp)
    20f8:	48 89 75 f0          	mov    %rsi,-0x10(%rbp)
    20fc:	48 8b 45 f8          	mov    -0x8(%rbp),%rax
    2100:	48 8b 55 f0          	mov    -0x10(%rbp),%rdx
    2104:	48 89 10             	mov    %rdx,(%rax)
    2107:	90                   	nop
    2108:	5d                   	pop    %rbp
    2109:	c3                   	retq   

000000000000210a <_ZSt18uninitialized_copyISt13move_iteratorIPxES1_ET0_T_S4_S3_>:
    210a:	55                   	push   %rbp
    210b:	48 89 e5             	mov    %rsp,%rbp
    210e:	48 83 ec 30          	sub    $0x30,%rsp
    2112:	48 89 7d e8          	mov    %rdi,-0x18(%rbp)
    2116:	48 89 75 e0          	mov    %rsi,-0x20(%rbp)
    211a:	48 89 55 d8          	mov    %rdx,-0x28(%rbp)
    211e:	c6 45 ff 01          	movb   $0x1,-0x1(%rbp)
    2122:	48 8b 55 d8          	mov    -0x28(%rbp),%rdx
    2126:	48 8b 4d e0          	mov    -0x20(%rbp),%rcx
    212a:	48 8b 45 e8          	mov    -0x18(%rbp),%rax
    212e:	48 89 ce             	mov    %rcx,%rsi
    2131:	48 89 c7             	mov    %rax,%rdi
    2134:	e8 a2 00 00 00       	callq  21db <_ZNSt20__uninitialized_copyILb1EE13__uninit_copyISt13move_iteratorIPxES3_EET0_T_S6_S5_>
    2139:	c9                   	leaveq 
    213a:	c3                   	retq   

000000000000213b <_ZNSt16allocator_traitsISaIxEE8max_sizeERKS0_>:
    213b:	55                   	push   %rbp
    213c:	48 89 e5             	mov    %rsp,%rbp
    213f:	48 83 ec 10          	sub    $0x10,%rsp
    2143:	48 89 7d f8          	mov    %rdi,-0x8(%rbp)
    2147:	48 8b 45 f8          	mov    -0x8(%rbp),%rax
    214b:	48 89 c7             	mov    %rax,%rdi
    214e:	e8 03 00 00 00       	callq  2156 <_ZNK9__gnu_cxx13new_allocatorIxE8max_sizeEv>
    2153:	c9                   	leaveq 
    2154:	c3                   	retq   
    2155:	90                   	nop

0000000000002156 <_ZNK9__gnu_cxx13new_allocatorIxE8max_sizeEv>:
    2156:	55                   	push   %rbp
    2157:	48 89 e5             	mov    %rsp,%rbp
    215a:	48 89 7d f8          	mov    %rdi,-0x8(%rbp)
    215e:	48 b8 ff ff ff ff ff 	movabs $0xfffffffffffffff,%rax
    2165:	ff ff 0f 
    2168:	5d                   	pop    %rbp
    2169:	c3                   	retq   

000000000000216a <_ZSt12__niter_baseIPxET_S1_>:
    216a:	55                   	push   %rbp
    216b:	48 89 e5             	mov    %rsp,%rbp
    216e:	48 89 7d f8          	mov    %rdi,-0x8(%rbp)
    2172:	48 8b 45 f8          	mov    -0x8(%rbp),%rax
    2176:	5d                   	pop    %rbp
    2177:	c3                   	retq   

0000000000002178 <_ZSt14__relocate_a_1IxxENSt9enable_ifIXsrSt24__is_bitwise_relocatableIT_vE5valueEPS2_E4typeES4_S4_S4_RSaIT0_E>:
    2178:	55                   	push   %rbp
    2179:	48 89 e5             	mov    %rsp,%rbp
    217c:	48 83 ec 30          	sub    $0x30,%rsp
    2180:	48 89 7d e8          	mov    %rdi,-0x18(%rbp)
    2184:	48 89 75 e0          	mov    %rsi,-0x20(%rbp)
    2188:	48 89 55 d8          	mov    %rdx,-0x28(%rbp)
    218c:	48 89 4d d0          	mov    %rcx,-0x30(%rbp)
    2190:	48 8b 45 e0          	mov    -0x20(%rbp),%rax
    2194:	48 2b 45 e8          	sub    -0x18(%rbp),%rax
    2198:	48 c1 f8 03          	sar    $0x3,%rax
    219c:	48 89 45 f8          	mov    %rax,-0x8(%rbp)
    21a0:	48 83 7d f8 00       	cmpq   $0x0,-0x8(%rbp)
    21a5:	7e 1f                	jle    21c6 <_ZSt14__relocate_a_1IxxENSt9enable_ifIXsrSt24__is_bitwise_relocatableIT_vE5valueEPS2_E4typeES4_S4_S4_RSaIT0_E+0x4e>
    21a7:	48 8b 45 f8          	mov    -0x8(%rbp),%rax
    21ab:	48 8d 14 c5 00 00 00 	lea    0x0(,%rax,8),%rdx
    21b2:	00 
    21b3:	48 8b 4d e8          	mov    -0x18(%rbp),%rcx
    21b7:	48 8b 45 d8          	mov    -0x28(%rbp),%rax
    21bb:	48 89 ce             	mov    %rcx,%rsi
    21be:	48 89 c7             	mov    %rax,%rdi
    21c1:	e8 1a ef ff ff       	callq  10e0 <memmove@plt>
    21c6:	48 8b 45 f8          	mov    -0x8(%rbp),%rax
    21ca:	48 8d 14 c5 00 00 00 	lea    0x0(,%rax,8),%rdx
    21d1:	00 
    21d2:	48 8b 45 d8          	mov    -0x28(%rbp),%rax
    21d6:	48 01 d0             	add    %rdx,%rax
    21d9:	c9                   	leaveq 
    21da:	c3                   	retq   

00000000000021db <_ZNSt20__uninitialized_copyILb1EE13__uninit_copyISt13move_iteratorIPxES3_EET0_T_S6_S5_>:
    21db:	55                   	push   %rbp
    21dc:	48 89 e5             	mov    %rsp,%rbp
    21df:	48 83 ec 20          	sub    $0x20,%rsp
    21e3:	48 89 7d f8          	mov    %rdi,-0x8(%rbp)
    21e7:	48 89 75 f0          	mov    %rsi,-0x10(%rbp)
    21eb:	48 89 55 e8          	mov    %rdx,-0x18(%rbp)
    21ef:	48 8b 55 e8          	mov    -0x18(%rbp),%rdx
    21f3:	48 8b 4d f0          	mov    -0x10(%rbp),%rcx
    21f7:	48 8b 45 f8          	mov    -0x8(%rbp),%rax
    21fb:	48 89 ce             	mov    %rcx,%rsi
    21fe:	48 89 c7             	mov    %rax,%rdi
    2201:	e8 02 00 00 00       	callq  2208 <_ZSt4copyISt13move_iteratorIPxES1_ET0_T_S4_S3_>
    2206:	c9                   	leaveq 
    2207:	c3                   	retq   

0000000000002208 <_ZSt4copyISt13move_iteratorIPxES1_ET0_T_S4_S3_>:
    2208:	55                   	push   %rbp
    2209:	48 89 e5             	mov    %rsp,%rbp
    220c:	53                   	push   %rbx
    220d:	48 83 ec 28          	sub    $0x28,%rsp
    2211:	48 89 7d e8          	mov    %rdi,-0x18(%rbp)
    2215:	48 89 75 e0          	mov    %rsi,-0x20(%rbp)
    2219:	48 89 55 d8          	mov    %rdx,-0x28(%rbp)
    221d:	48 8b 45 e0          	mov    -0x20(%rbp),%rax
    2221:	48 89 c7             	mov    %rax,%rdi
    2224:	e8 2b 00 00 00       	callq  2254 <_ZSt12__miter_baseIPxEDTcl12__miter_basecldtfp_4baseEEESt13move_iteratorIT_E>
    2229:	48 89 c3             	mov    %rax,%rbx
    222c:	48 8b 45 e8          	mov    -0x18(%rbp),%rax
    2230:	48 89 c7             	mov    %rax,%rdi
    2233:	e8 1c 00 00 00       	callq  2254 <_ZSt12__miter_baseIPxEDTcl12__miter_basecldtfp_4baseEEESt13move_iteratorIT_E>
    2238:	48 89 c1             	mov    %rax,%rcx
    223b:	48 8b 45 d8          	mov    -0x28(%rbp),%rax
    223f:	48 89 c2             	mov    %rax,%rdx
    2242:	48 89 de             	mov    %rbx,%rsi
    2245:	48 89 cf             	mov    %rcx,%rdi
    2248:	e8 29 00 00 00       	callq  2276 <_ZSt14__copy_move_a2ILb1EPxS0_ET1_T0_S2_S1_>
    224d:	48 83 c4 28          	add    $0x28,%rsp
    2251:	5b                   	pop    %rbx
    2252:	5d                   	pop    %rbp
    2253:	c3                   	retq   

0000000000002254 <_ZSt12__miter_baseIPxEDTcl12__miter_basecldtfp_4baseEEESt13move_iteratorIT_E>:
    2254:	55                   	push   %rbp
    2255:	48 89 e5             	mov    %rsp,%rbp
    2258:	48 83 ec 10          	sub    $0x10,%rsp
    225c:	48 89 7d f8          	mov    %rdi,-0x8(%rbp)
    2260:	48 8d 45 f8          	lea    -0x8(%rbp),%rax
    2264:	48 89 c7             	mov    %rax,%rdi
    2267:	e8 74 00 00 00       	callq  22e0 <_ZNKSt13move_iteratorIPxE4baseEv>
    226c:	48 89 c7             	mov    %rax,%rdi
    226f:	e8 7d 00 00 00       	callq  22f1 <_ZSt12__miter_baseIPxET_S1_>
    2274:	c9                   	leaveq 
    2275:	c3                   	retq   

0000000000002276 <_ZSt14__copy_move_a2ILb1EPxS0_ET1_T0_S2_S1_>:
    2276:	55                   	push   %rbp
    2277:	48 89 e5             	mov    %rsp,%rbp
    227a:	41 54                	push   %r12
    227c:	53                   	push   %rbx
    227d:	48 83 ec 20          	sub    $0x20,%rsp
    2281:	48 89 7d e8          	mov    %rdi,-0x18(%rbp)
    2285:	48 89 75 e0          	mov    %rsi,-0x20(%rbp)
    2289:	48 89 55 d8          	mov    %rdx,-0x28(%rbp)
    228d:	48 8b 45 d8          	mov    -0x28(%rbp),%rax
    2291:	48 89 c7             	mov    %rax,%rdi
    2294:	e8 d1 fe ff ff       	callq  216a <_ZSt12__niter_baseIPxET_S1_>
    2299:	49 89 c4             	mov    %rax,%r12
    229c:	48 8b 45 e0          	mov    -0x20(%rbp),%rax
    22a0:	48 89 c7             	mov    %rax,%rdi
    22a3:	e8 c2 fe ff ff       	callq  216a <_ZSt12__niter_baseIPxET_S1_>
    22a8:	48 89 c3             	mov    %rax,%rbx
    22ab:	48 8b 45 e8          	mov    -0x18(%rbp),%rax
    22af:	48 89 c7             	mov    %rax,%rdi
    22b2:	e8 b3 fe ff ff       	callq  216a <_ZSt12__niter_baseIPxET_S1_>
    22b7:	4c 89 e2             	mov    %r12,%rdx
    22ba:	48 89 de             	mov    %rbx,%rsi
    22bd:	48 89 c7             	mov    %rax,%rdi
    22c0:	e8 3a 00 00 00       	callq  22ff <_ZSt13__copy_move_aILb1EPxS0_ET1_T0_S2_S1_>
    22c5:	48 89 c2             	mov    %rax,%rdx
    22c8:	48 8d 45 d8          	lea    -0x28(%rbp),%rax
    22cc:	48 89 d6             	mov    %rdx,%rsi
    22cf:	48 89 c7             	mov    %rax,%rdi
    22d2:	e8 59 00 00 00       	callq  2330 <_ZSt12__niter_wrapIPxET_RKS1_S1_>
    22d7:	48 83 c4 20          	add    $0x20,%rsp
    22db:	5b                   	pop    %rbx
    22dc:	41 5c                	pop    %r12
    22de:	5d                   	pop    %rbp
    22df:	c3                   	retq   

00000000000022e0 <_ZNKSt13move_iteratorIPxE4baseEv>:
    22e0:	55                   	push   %rbp
    22e1:	48 89 e5             	mov    %rsp,%rbp
    22e4:	48 89 7d f8          	mov    %rdi,-0x8(%rbp)
    22e8:	48 8b 45 f8          	mov    -0x8(%rbp),%rax
    22ec:	48 8b 00             	mov    (%rax),%rax
    22ef:	5d                   	pop    %rbp
    22f0:	c3                   	retq   

00000000000022f1 <_ZSt12__miter_baseIPxET_S1_>:
    22f1:	55                   	push   %rbp
    22f2:	48 89 e5             	mov    %rsp,%rbp
    22f5:	48 89 7d f8          	mov    %rdi,-0x8(%rbp)
    22f9:	48 8b 45 f8          	mov    -0x8(%rbp),%rax
    22fd:	5d                   	pop    %rbp
    22fe:	c3                   	retq   

00000000000022ff <_ZSt13__copy_move_aILb1EPxS0_ET1_T0_S2_S1_>:
    22ff:	55                   	push   %rbp
    2300:	48 89 e5             	mov    %rsp,%rbp
    2303:	48 83 ec 30          	sub    $0x30,%rsp
    2307:	48 89 7d e8          	mov    %rdi,-0x18(%rbp)
    230b:	48 89 75 e0          	mov    %rsi,-0x20(%rbp)
    230f:	48 89 55 d8          	mov    %rdx,-0x28(%rbp)
    2313:	c6 45 ff 01          	movb   $0x1,-0x1(%rbp)
    2317:	48 8b 55 d8          	mov    -0x28(%rbp),%rdx
    231b:	48 8b 4d e0          	mov    -0x20(%rbp),%rcx
    231f:	48 8b 45 e8          	mov    -0x18(%rbp),%rax
    2323:	48 89 ce             	mov    %rcx,%rsi
    2326:	48 89 c7             	mov    %rax,%rdi
    2329:	e8 14 00 00 00       	callq  2342 <_ZNSt11__copy_moveILb1ELb1ESt26random_access_iterator_tagE8__copy_mIxEEPT_PKS3_S6_S4_>
    232e:	c9                   	leaveq 
    232f:	c3                   	retq   

0000000000002330 <_ZSt12__niter_wrapIPxET_RKS1_S1_>:
    2330:	55                   	push   %rbp
    2331:	48 89 e5             	mov    %rsp,%rbp
    2334:	48 89 7d f8          	mov    %rdi,-0x8(%rbp)
    2338:	48 89 75 f0          	mov    %rsi,-0x10(%rbp)
    233c:	48 8b 45 f0          	mov    -0x10(%rbp),%rax
    2340:	5d                   	pop    %rbp
    2341:	c3                   	retq   

0000000000002342 <_ZNSt11__copy_moveILb1ELb1ESt26random_access_iterator_tagE8__copy_mIxEEPT_PKS3_S6_S4_>:
    2342:	55                   	push   %rbp
    2343:	48 89 e5             	mov    %rsp,%rbp
    2346:	48 83 ec 30          	sub    $0x30,%rsp
    234a:	48 89 7d e8          	mov    %rdi,-0x18(%rbp)
    234e:	48 89 75 e0          	mov    %rsi,-0x20(%rbp)
    2352:	48 89 55 d8          	mov    %rdx,-0x28(%rbp)
    2356:	48 8b 45 e0          	mov    -0x20(%rbp),%rax
    235a:	48 2b 45 e8          	sub    -0x18(%rbp),%rax
    235e:	48 c1 f8 03          	sar    $0x3,%rax
    2362:	48 89 45 f8          	mov    %rax,-0x8(%rbp)
    2366:	48 83 7d f8 00       	cmpq   $0x0,-0x8(%rbp)
    236b:	74 1f                	je     238c <_ZNSt11__copy_moveILb1ELb1ESt26random_access_iterator_tagE8__copy_mIxEEPT_PKS3_S6_S4_+0x4a>
    236d:	48 8b 45 f8          	mov    -0x8(%rbp),%rax
    2371:	48 8d 14 c5 00 00 00 	lea    0x0(,%rax,8),%rdx
    2378:	00 
    2379:	48 8b 4d e8          	mov    -0x18(%rbp),%rcx
    237d:	48 8b 45 d8          	mov    -0x28(%rbp),%rax
    2381:	48 89 ce             	mov    %rcx,%rsi
    2384:	48 89 c7             	mov    %rax,%rdi
    2387:	e8 54 ed ff ff       	callq  10e0 <memmove@plt>
    238c:	48 8b 45 f8          	mov    -0x8(%rbp),%rax
    2390:	48 8d 14 c5 00 00 00 	lea    0x0(,%rax,8),%rdx
    2397:	00 
    2398:	48 8b 45 d8          	mov    -0x28(%rbp),%rax
    239c:	48 01 d0             	add    %rdx,%rax
    239f:	c9                   	leaveq 
    23a0:	c3                   	retq   
    23a1:	66 2e 0f 1f 84 00 00 	nopw   %cs:0x0(%rax,%rax,1)
    23a8:	00 00 00 
    23ab:	0f 1f 44 00 00       	nopl   0x0(%rax,%rax,1)

00000000000023b0 <__libc_csu_init>:
    23b0:	41 57                	push   %r15
    23b2:	4c 8d 3d f7 29 00 00 	lea    0x29f7(%rip),%r15        # 4db0 <__frame_dummy_init_array_entry>
    23b9:	41 56                	push   %r14
    23bb:	49 89 d6             	mov    %rdx,%r14
    23be:	41 55                	push   %r13
    23c0:	49 89 f5             	mov    %rsi,%r13
    23c3:	41 54                	push   %r12
    23c5:	41 89 fc             	mov    %edi,%r12d
    23c8:	55                   	push   %rbp
    23c9:	48 8d 2d f0 29 00 00 	lea    0x29f0(%rip),%rbp        # 4dc0 <__do_global_dtors_aux_fini_array_entry>
    23d0:	53                   	push   %rbx
    23d1:	4c 29 fd             	sub    %r15,%rbp
    23d4:	48 83 ec 08          	sub    $0x8,%rsp
    23d8:	e8 23 ec ff ff       	callq  1000 <_init>
    23dd:	48 c1 fd 03          	sar    $0x3,%rbp
    23e1:	74 1b                	je     23fe <__libc_csu_init+0x4e>
    23e3:	31 db                	xor    %ebx,%ebx
    23e5:	0f 1f 00             	nopl   (%rax)
    23e8:	4c 89 f2             	mov    %r14,%rdx
    23eb:	4c 89 ee             	mov    %r13,%rsi
    23ee:	44 89 e7             	mov    %r12d,%edi
    23f1:	41 ff 14 df          	callq  *(%r15,%rbx,8)
    23f5:	48 83 c3 01          	add    $0x1,%rbx
    23f9:	48 39 dd             	cmp    %rbx,%rbp
    23fc:	75 ea                	jne    23e8 <__libc_csu_init+0x38>
    23fe:	48 83 c4 08          	add    $0x8,%rsp
    2402:	5b                   	pop    %rbx
    2403:	5d                   	pop    %rbp
    2404:	41 5c                	pop    %r12
    2406:	41 5d                	pop    %r13
    2408:	41 5e                	pop    %r14
    240a:	41 5f                	pop    %r15
    240c:	c3                   	retq   
    240d:	0f 1f 00             	nopl   (%rax)

0000000000002410 <__libc_csu_fini>:
    2410:	c3                   	retq   

Disassembly of section .fini:

0000000000002414 <_fini>:
    2414:	48 83 ec 08          	sub    $0x8,%rsp
    2418:	48 83 c4 08          	add    $0x8,%rsp
    241c:	c3                   	retq   
