
B. Bad Prices.out:     file format elf64-x86-64


Disassembly of section .init:

0000000000001000 <_init>:
    1000:	48 83 ec 08          	sub    $0x8,%rsp
    1004:	48 8b 05 dd 2f 00 00 	mov    0x2fdd(%rip),%rax        # 3fe8 <__gmon_start__>
    100b:	48 85 c0             	test   %rax,%rax
    100e:	74 02                	je     1012 <_init+0x12>
    1010:	ff d0                	callq  *%rax
    1012:	48 83 c4 08          	add    $0x8,%rsp
    1016:	c3                   	retq   

Disassembly of section .plt:

0000000000001020 <.plt>:
    1020:	ff 35 e2 2f 00 00    	pushq  0x2fe2(%rip)        # 4008 <_GLOBAL_OFFSET_TABLE_+0x8>
    1026:	ff 25 e4 2f 00 00    	jmpq   *0x2fe4(%rip)        # 4010 <_GLOBAL_OFFSET_TABLE_+0x10>
    102c:	0f 1f 40 00          	nopl   0x0(%rax)

0000000000001030 <_ZNSt8ios_base15sync_with_stdioEb@plt>:
    1030:	ff 25 e2 2f 00 00    	jmpq   *0x2fe2(%rip)        # 4018 <_ZNSt8ios_base15sync_with_stdioEb@GLIBCXX_3.4>
    1036:	68 00 00 00 00       	pushq  $0x0
    103b:	e9 e0 ff ff ff       	jmpq   1020 <.plt>

0000000000001040 <_ZNSirsERi@plt>:
    1040:	ff 25 da 2f 00 00    	jmpq   *0x2fda(%rip)        # 4020 <_ZNSirsERi@GLIBCXX_3.4>
    1046:	68 01 00 00 00       	pushq  $0x1
    104b:	e9 d0 ff ff ff       	jmpq   1020 <.plt>

0000000000001050 <_ZNSt9basic_iosIcSt11char_traitsIcEE3tieEPSo@plt>:
    1050:	ff 25 d2 2f 00 00    	jmpq   *0x2fd2(%rip)        # 4028 <_ZNSt9basic_iosIcSt11char_traitsIcEE3tieEPSo@GLIBCXX_3.4>
    1056:	68 02 00 00 00       	pushq  $0x2
    105b:	e9 c0 ff ff ff       	jmpq   1020 <.plt>

0000000000001060 <__cxa_atexit@plt>:
    1060:	ff 25 ca 2f 00 00    	jmpq   *0x2fca(%rip)        # 4030 <__cxa_atexit@GLIBC_2.2.5>
    1066:	68 03 00 00 00       	pushq  $0x3
    106b:	e9 b0 ff ff ff       	jmpq   1020 <.plt>

0000000000001070 <_ZNSolsEPFRSoS_E@plt>:
    1070:	ff 25 c2 2f 00 00    	jmpq   *0x2fc2(%rip)        # 4038 <_ZNSolsEPFRSoS_E@GLIBCXX_3.4>
    1076:	68 04 00 00 00       	pushq  $0x4
    107b:	e9 a0 ff ff ff       	jmpq   1020 <.plt>

0000000000001080 <_ZNSt8ios_base4InitC1Ev@plt>:
    1080:	ff 25 ba 2f 00 00    	jmpq   *0x2fba(%rip)        # 4040 <_ZNSt8ios_base4InitC1Ev@GLIBCXX_3.4>
    1086:	68 05 00 00 00       	pushq  $0x5
    108b:	e9 90 ff ff ff       	jmpq   1020 <.plt>

0000000000001090 <_ZNSolsEi@plt>:
    1090:	ff 25 b2 2f 00 00    	jmpq   *0x2fb2(%rip)        # 4048 <_ZNSolsEi@GLIBCXX_3.4>
    1096:	68 06 00 00 00       	pushq  $0x6
    109b:	e9 80 ff ff ff       	jmpq   1020 <.plt>

Disassembly of section .plt.got:

00000000000010a0 <__cxa_finalize@plt>:
    10a0:	ff 25 22 2f 00 00    	jmpq   *0x2f22(%rip)        # 3fc8 <__cxa_finalize@GLIBC_2.2.5>
    10a6:	66 90                	xchg   %ax,%ax

Disassembly of section .text:

00000000000010b0 <_start>:
    10b0:	31 ed                	xor    %ebp,%ebp
    10b2:	49 89 d1             	mov    %rdx,%r9
    10b5:	5e                   	pop    %rsi
    10b6:	48 89 e2             	mov    %rsp,%rdx
    10b9:	48 83 e4 f0          	and    $0xfffffffffffffff0,%rsp
    10bd:	50                   	push   %rax
    10be:	54                   	push   %rsp
    10bf:	4c 8d 05 7a 04 00 00 	lea    0x47a(%rip),%r8        # 1540 <__libc_csu_fini>
    10c6:	48 8d 0d 13 04 00 00 	lea    0x413(%rip),%rcx        # 14e0 <__libc_csu_init>
    10cd:	48 8d 3d 8e 02 00 00 	lea    0x28e(%rip),%rdi        # 1362 <main>
    10d4:	ff 15 06 2f 00 00    	callq  *0x2f06(%rip)        # 3fe0 <__libc_start_main@GLIBC_2.2.5>
    10da:	f4                   	hlt    
    10db:	0f 1f 44 00 00       	nopl   0x0(%rax,%rax,1)

00000000000010e0 <deregister_tm_clones>:
    10e0:	48 8d 3d 79 2f 00 00 	lea    0x2f79(%rip),%rdi        # 4060 <__TMC_END__>
    10e7:	48 8d 05 72 2f 00 00 	lea    0x2f72(%rip),%rax        # 4060 <__TMC_END__>
    10ee:	48 39 f8             	cmp    %rdi,%rax
    10f1:	74 15                	je     1108 <deregister_tm_clones+0x28>
    10f3:	48 8b 05 de 2e 00 00 	mov    0x2ede(%rip),%rax        # 3fd8 <_ITM_deregisterTMCloneTable>
    10fa:	48 85 c0             	test   %rax,%rax
    10fd:	74 09                	je     1108 <deregister_tm_clones+0x28>
    10ff:	ff e0                	jmpq   *%rax
    1101:	0f 1f 80 00 00 00 00 	nopl   0x0(%rax)
    1108:	c3                   	retq   
    1109:	0f 1f 80 00 00 00 00 	nopl   0x0(%rax)

0000000000001110 <register_tm_clones>:
    1110:	48 8d 3d 49 2f 00 00 	lea    0x2f49(%rip),%rdi        # 4060 <__TMC_END__>
    1117:	48 8d 35 42 2f 00 00 	lea    0x2f42(%rip),%rsi        # 4060 <__TMC_END__>
    111e:	48 29 fe             	sub    %rdi,%rsi
    1121:	48 89 f0             	mov    %rsi,%rax
    1124:	48 c1 ee 3f          	shr    $0x3f,%rsi
    1128:	48 c1 f8 03          	sar    $0x3,%rax
    112c:	48 01 c6             	add    %rax,%rsi
    112f:	48 d1 fe             	sar    %rsi
    1132:	74 14                	je     1148 <register_tm_clones+0x38>
    1134:	48 8b 05 b5 2e 00 00 	mov    0x2eb5(%rip),%rax        # 3ff0 <_ITM_registerTMCloneTable>
    113b:	48 85 c0             	test   %rax,%rax
    113e:	74 08                	je     1148 <register_tm_clones+0x38>
    1140:	ff e0                	jmpq   *%rax
    1142:	66 0f 1f 44 00 00    	nopw   0x0(%rax,%rax,1)
    1148:	c3                   	retq   
    1149:	0f 1f 80 00 00 00 00 	nopl   0x0(%rax)

0000000000001150 <__do_global_dtors_aux>:
    1150:	80 3d 61 31 00 00 00 	cmpb   $0x0,0x3161(%rip)        # 42b8 <completed.7452>
    1157:	75 2f                	jne    1188 <__do_global_dtors_aux+0x38>
    1159:	55                   	push   %rbp
    115a:	48 83 3d 66 2e 00 00 	cmpq   $0x0,0x2e66(%rip)        # 3fc8 <__cxa_finalize@GLIBC_2.2.5>
    1161:	00 
    1162:	48 89 e5             	mov    %rsp,%rbp
    1165:	74 0c                	je     1173 <__do_global_dtors_aux+0x23>
    1167:	48 8b 3d ea 2e 00 00 	mov    0x2eea(%rip),%rdi        # 4058 <__dso_handle>
    116e:	e8 2d ff ff ff       	callq  10a0 <__cxa_finalize@plt>
    1173:	e8 68 ff ff ff       	callq  10e0 <deregister_tm_clones>
    1178:	c6 05 39 31 00 00 01 	movb   $0x1,0x3139(%rip)        # 42b8 <completed.7452>
    117f:	5d                   	pop    %rbp
    1180:	c3                   	retq   
    1181:	0f 1f 80 00 00 00 00 	nopl   0x0(%rax)
    1188:	c3                   	retq   
    1189:	0f 1f 80 00 00 00 00 	nopl   0x0(%rax)

0000000000001190 <frame_dummy>:
    1190:	e9 7b ff ff ff       	jmpq   1110 <register_tm_clones>

0000000000001195 <_Z7decSortxx>:
    1195:	55                   	push   %rbp
    1196:	48 89 e5             	mov    %rsp,%rbp
    1199:	48 89 7d f8          	mov    %rdi,-0x8(%rbp)
    119d:	48 89 75 f0          	mov    %rsi,-0x10(%rbp)
    11a1:	48 8b 45 f8          	mov    -0x8(%rbp),%rax
    11a5:	48 3b 45 f0          	cmp    -0x10(%rbp),%rax
    11a9:	0f 9f c0             	setg   %al
    11ac:	5d                   	pop    %rbp
    11ad:	c3                   	retq   

00000000000011ae <_Z12max_of_arrayPxx>:
    11ae:	55                   	push   %rbp
    11af:	48 89 e5             	mov    %rsp,%rbp
    11b2:	48 89 7d e8          	mov    %rdi,-0x18(%rbp)
    11b6:	48 89 75 e0          	mov    %rsi,-0x20(%rbp)
    11ba:	48 8b 45 e8          	mov    -0x18(%rbp),%rax
    11be:	48 8b 00             	mov    (%rax),%rax
    11c1:	48 89 45 f8          	mov    %rax,-0x8(%rbp)
    11c5:	48 c7 45 f0 00 00 00 	movq   $0x0,-0x10(%rbp)
    11cc:	00 
    11cd:	48 8b 45 f0          	mov    -0x10(%rbp),%rax
    11d1:	48 3b 45 e0          	cmp    -0x20(%rbp),%rax
    11d5:	7d 3d                	jge    1214 <_Z12max_of_arrayPxx+0x66>
    11d7:	48 8b 45 f0          	mov    -0x10(%rbp),%rax
    11db:	48 8d 14 c5 00 00 00 	lea    0x0(,%rax,8),%rdx
    11e2:	00 
    11e3:	48 8b 45 e8          	mov    -0x18(%rbp),%rax
    11e7:	48 01 d0             	add    %rdx,%rax
    11ea:	48 8b 00             	mov    (%rax),%rax
    11ed:	48 39 45 f8          	cmp    %rax,-0x8(%rbp)
    11f1:	7d 1a                	jge    120d <_Z12max_of_arrayPxx+0x5f>
    11f3:	48 8b 45 f0          	mov    -0x10(%rbp),%rax
    11f7:	48 8d 14 c5 00 00 00 	lea    0x0(,%rax,8),%rdx
    11fe:	00 
    11ff:	48 8b 45 e8          	mov    -0x18(%rbp),%rax
    1203:	48 01 d0             	add    %rdx,%rax
    1206:	48 8b 00             	mov    (%rax),%rax
    1209:	48 89 45 f8          	mov    %rax,-0x8(%rbp)
    120d:	48 83 45 f0 01       	addq   $0x1,-0x10(%rbp)
    1212:	eb b9                	jmp    11cd <_Z12max_of_arrayPxx+0x1f>
    1214:	48 8b 45 f8          	mov    -0x8(%rbp),%rax
    1218:	5d                   	pop    %rbp
    1219:	c3                   	retq   

000000000000121a <_Z12min_of_arrayPxx>:
    121a:	55                   	push   %rbp
    121b:	48 89 e5             	mov    %rsp,%rbp
    121e:	48 89 7d e8          	mov    %rdi,-0x18(%rbp)
    1222:	48 89 75 e0          	mov    %rsi,-0x20(%rbp)
    1226:	48 8b 45 e8          	mov    -0x18(%rbp),%rax
    122a:	48 8b 00             	mov    (%rax),%rax
    122d:	48 89 45 f8          	mov    %rax,-0x8(%rbp)
    1231:	48 c7 45 f0 00 00 00 	movq   $0x0,-0x10(%rbp)
    1238:	00 
    1239:	48 8b 45 f0          	mov    -0x10(%rbp),%rax
    123d:	48 3b 45 e0          	cmp    -0x20(%rbp),%rax
    1241:	7d 3d                	jge    1280 <_Z12min_of_arrayPxx+0x66>
    1243:	48 8b 45 f0          	mov    -0x10(%rbp),%rax
    1247:	48 8d 14 c5 00 00 00 	lea    0x0(,%rax,8),%rdx
    124e:	00 
    124f:	48 8b 45 e8          	mov    -0x18(%rbp),%rax
    1253:	48 01 d0             	add    %rdx,%rax
    1256:	48 8b 00             	mov    (%rax),%rax
    1259:	48 39 45 f8          	cmp    %rax,-0x8(%rbp)
    125d:	7e 1a                	jle    1279 <_Z12min_of_arrayPxx+0x5f>
    125f:	48 8b 45 f0          	mov    -0x10(%rbp),%rax
    1263:	48 8d 14 c5 00 00 00 	lea    0x0(,%rax,8),%rdx
    126a:	00 
    126b:	48 8b 45 e8          	mov    -0x18(%rbp),%rax
    126f:	48 01 d0             	add    %rdx,%rax
    1272:	48 8b 00             	mov    (%rax),%rax
    1275:	48 89 45 f8          	mov    %rax,-0x8(%rbp)
    1279:	48 83 45 f0 01       	addq   $0x1,-0x10(%rbp)
    127e:	eb b9                	jmp    1239 <_Z12min_of_arrayPxx+0x1f>
    1280:	48 8b 45 f8          	mov    -0x8(%rbp),%rax
    1284:	5d                   	pop    %rbp
    1285:	c3                   	retq   

0000000000001286 <_Z7isPrimex>:
    1286:	55                   	push   %rbp
    1287:	48 89 e5             	mov    %rsp,%rbp
    128a:	48 89 7d e8          	mov    %rdi,-0x18(%rbp)
    128e:	48 83 7d e8 01       	cmpq   $0x1,-0x18(%rbp)
    1293:	75 07                	jne    129c <_Z7isPrimex+0x16>
    1295:	b8 00 00 00 00       	mov    $0x0,%eax
    129a:	eb 49                	jmp    12e5 <_Z7isPrimex+0x5f>
    129c:	48 83 7d e8 02       	cmpq   $0x2,-0x18(%rbp)
    12a1:	75 07                	jne    12aa <_Z7isPrimex+0x24>
    12a3:	b8 01 00 00 00       	mov    $0x1,%eax
    12a8:	eb 3b                	jmp    12e5 <_Z7isPrimex+0x5f>
    12aa:	48 c7 45 f8 02 00 00 	movq   $0x2,-0x8(%rbp)
    12b1:	00 
    12b2:	48 8b 45 f8          	mov    -0x8(%rbp),%rax
    12b6:	48 0f af c0          	imul   %rax,%rax
    12ba:	48 39 45 e8          	cmp    %rax,-0x18(%rbp)
    12be:	7c 20                	jl     12e0 <_Z7isPrimex+0x5a>
    12c0:	48 8b 45 e8          	mov    -0x18(%rbp),%rax
    12c4:	48 99                	cqto   
    12c6:	48 f7 7d f8          	idivq  -0x8(%rbp)
    12ca:	48 89 d0             	mov    %rdx,%rax
    12cd:	48 85 c0             	test   %rax,%rax
    12d0:	75 07                	jne    12d9 <_Z7isPrimex+0x53>
    12d2:	b8 00 00 00 00       	mov    $0x0,%eax
    12d7:	eb 0c                	jmp    12e5 <_Z7isPrimex+0x5f>
    12d9:	48 83 45 f8 01       	addq   $0x1,-0x8(%rbp)
    12de:	eb d2                	jmp    12b2 <_Z7isPrimex+0x2c>
    12e0:	b8 01 00 00 00       	mov    $0x1,%eax
    12e5:	5d                   	pop    %rbp
    12e6:	c3                   	retq   

00000000000012e7 <_Z3gcdxx>:
    12e7:	55                   	push   %rbp
    12e8:	48 89 e5             	mov    %rsp,%rbp
    12eb:	48 83 ec 10          	sub    $0x10,%rsp
    12ef:	48 89 7d f8          	mov    %rdi,-0x8(%rbp)
    12f3:	48 89 75 f0          	mov    %rsi,-0x10(%rbp)
    12f7:	48 83 7d f0 00       	cmpq   $0x0,-0x10(%rbp)
    12fc:	75 06                	jne    1304 <_Z3gcdxx+0x1d>
    12fe:	48 8b 45 f8          	mov    -0x8(%rbp),%rax
    1302:	eb 1a                	jmp    131e <_Z3gcdxx+0x37>
    1304:	48 8b 45 f8          	mov    -0x8(%rbp),%rax
    1308:	48 99                	cqto   
    130a:	48 f7 7d f0          	idivq  -0x10(%rbp)
    130e:	48 8b 45 f0          	mov    -0x10(%rbp),%rax
    1312:	48 89 d6             	mov    %rdx,%rsi
    1315:	48 89 c7             	mov    %rax,%rdi
    1318:	e8 ca ff ff ff       	callq  12e7 <_Z3gcdxx>
    131d:	90                   	nop
    131e:	c9                   	leaveq 
    131f:	c3                   	retq   

0000000000001320 <_Z3lcmxx>:
    1320:	55                   	push   %rbp
    1321:	48 89 e5             	mov    %rsp,%rbp
    1324:	53                   	push   %rbx
    1325:	48 83 ec 18          	sub    $0x18,%rsp
    1329:	48 89 7d e8          	mov    %rdi,-0x18(%rbp)
    132d:	48 89 75 e0          	mov    %rsi,-0x20(%rbp)
    1331:	48 8b 45 e8          	mov    -0x18(%rbp),%rax
    1335:	48 0f af 45 e0       	imul   -0x20(%rbp),%rax
    133a:	48 89 c3             	mov    %rax,%rbx
    133d:	48 8b 55 e0          	mov    -0x20(%rbp),%rdx
    1341:	48 8b 45 e8          	mov    -0x18(%rbp),%rax
    1345:	48 89 d6             	mov    %rdx,%rsi
    1348:	48 89 c7             	mov    %rax,%rdi
    134b:	e8 97 ff ff ff       	callq  12e7 <_Z3gcdxx>
    1350:	48 89 c1             	mov    %rax,%rcx
    1353:	48 89 d8             	mov    %rbx,%rax
    1356:	48 99                	cqto   
    1358:	48 f7 f9             	idiv   %rcx
    135b:	48 83 c4 18          	add    $0x18,%rsp
    135f:	5b                   	pop    %rbx
    1360:	5d                   	pop    %rbp
    1361:	c3                   	retq   

0000000000001362 <main>:
    1362:	55                   	push   %rbp
    1363:	48 89 e5             	mov    %rsp,%rbp
    1366:	48 83 ec 20          	sub    $0x20,%rsp
    136a:	bf 00 00 00 00       	mov    $0x0,%edi
    136f:	e8 bc fc ff ff       	callq  1030 <_ZNSt8ios_base15sync_with_stdioEb@plt>
    1374:	be 00 00 00 00       	mov    $0x0,%esi
    1379:	48 8d 3d 30 2e 00 00 	lea    0x2e30(%rip),%rdi        # 41b0 <_ZSt3cin@@GLIBCXX_3.4+0x10>
    1380:	e8 cb fc ff ff       	callq  1050 <_ZNSt9basic_iosIcSt11char_traitsIcEE3tieEPSo@plt>
    1385:	48 8d 45 f4          	lea    -0xc(%rbp),%rax
    1389:	48 89 c6             	mov    %rax,%rsi
    138c:	48 8d 3d 0d 2e 00 00 	lea    0x2e0d(%rip),%rdi        # 41a0 <_ZSt3cin@@GLIBCXX_3.4>
    1393:	e8 a8 fc ff ff       	callq  1040 <_ZNSirsERi@plt>
    1398:	8b 45 f4             	mov    -0xc(%rbp),%eax
    139b:	8d 50 ff             	lea    -0x1(%rax),%edx
    139e:	89 55 f4             	mov    %edx,-0xc(%rbp)
    13a1:	85 c0                	test   %eax,%eax
    13a3:	0f 95 c0             	setne  %al
    13a6:	84 c0                	test   %al,%al
    13a8:	0f 84 9a 00 00 00    	je     1448 <main+0xe6>
    13ae:	48 8d 45 f0          	lea    -0x10(%rbp),%rax
    13b2:	48 89 c6             	mov    %rax,%rsi
    13b5:	48 8d 3d e4 2d 00 00 	lea    0x2de4(%rip),%rdi        # 41a0 <_ZSt3cin@@GLIBCXX_3.4>
    13bc:	e8 7f fc ff ff       	callq  1040 <_ZNSirsERi@plt>
    13c1:	c7 45 fc 00 00 00 00 	movl   $0x0,-0x4(%rbp)
    13c8:	c7 45 ec 00 80 ff ff 	movl   $0xffff8000,-0x14(%rbp)
    13cf:	c7 45 f8 00 00 00 00 	movl   $0x0,-0x8(%rbp)
    13d6:	8b 45 f0             	mov    -0x10(%rbp),%eax
    13d9:	39 45 f8             	cmp    %eax,-0x8(%rbp)
    13dc:	7d 3f                	jge    141d <main+0xbb>
    13de:	48 8d 45 e8          	lea    -0x18(%rbp),%rax
    13e2:	48 89 c6             	mov    %rax,%rsi
    13e5:	48 8d 3d b4 2d 00 00 	lea    0x2db4(%rip),%rdi        # 41a0 <_ZSt3cin@@GLIBCXX_3.4>
    13ec:	e8 4f fc ff ff       	callq  1040 <_ZNSirsERi@plt>
    13f1:	8b 55 e8             	mov    -0x18(%rbp),%edx
    13f4:	8b 45 ec             	mov    -0x14(%rbp),%eax
    13f7:	39 c2                	cmp    %eax,%edx
    13f9:	7d 04                	jge    13ff <main+0x9d>
    13fb:	83 45 fc 01          	addl   $0x1,-0x4(%rbp)
    13ff:	48 8d 55 ec          	lea    -0x14(%rbp),%rdx
    1403:	48 8d 45 e8          	lea    -0x18(%rbp),%rax
    1407:	48 89 d6             	mov    %rdx,%rsi
    140a:	48 89 c7             	mov    %rax,%rdi
    140d:	e8 9b 00 00 00       	callq  14ad <_ZSt3maxIiERKT_S2_S2_>
    1412:	8b 00                	mov    (%rax),%eax
    1414:	89 45 ec             	mov    %eax,-0x14(%rbp)
    1417:	83 45 f8 01          	addl   $0x1,-0x8(%rbp)
    141b:	eb b9                	jmp    13d6 <main+0x74>
    141d:	8b 45 fc             	mov    -0x4(%rbp),%eax
    1420:	89 c6                	mov    %eax,%esi
    1422:	48 8d 3d 57 2c 00 00 	lea    0x2c57(%rip),%rdi        # 4080 <_ZSt4cout@@GLIBCXX_3.4>
    1429:	e8 62 fc ff ff       	callq  1090 <_ZNSolsEi@plt>
    142e:	48 89 c2             	mov    %rax,%rdx
    1431:	48 8b 05 98 2b 00 00 	mov    0x2b98(%rip),%rax        # 3fd0 <_ZSt4endlIcSt11char_traitsIcEERSt13basic_ostreamIT_T0_ES6_@GLIBCXX_3.4>
    1438:	48 89 c6             	mov    %rax,%rsi
    143b:	48 89 d7             	mov    %rdx,%rdi
    143e:	e8 2d fc ff ff       	callq  1070 <_ZNSolsEPFRSoS_E@plt>
    1443:	e9 50 ff ff ff       	jmpq   1398 <main+0x36>
    1448:	b8 00 00 00 00       	mov    $0x0,%eax
    144d:	c9                   	leaveq 
    144e:	c3                   	retq   

000000000000144f <_Z41__static_initialization_and_destruction_0ii>:
    144f:	55                   	push   %rbp
    1450:	48 89 e5             	mov    %rsp,%rbp
    1453:	48 83 ec 10          	sub    $0x10,%rsp
    1457:	89 7d fc             	mov    %edi,-0x4(%rbp)
    145a:	89 75 f8             	mov    %esi,-0x8(%rbp)
    145d:	83 7d fc 01          	cmpl   $0x1,-0x4(%rbp)
    1461:	75 32                	jne    1495 <_Z41__static_initialization_and_destruction_0ii+0x46>
    1463:	81 7d f8 ff ff 00 00 	cmpl   $0xffff,-0x8(%rbp)
    146a:	75 29                	jne    1495 <_Z41__static_initialization_and_destruction_0ii+0x46>
    146c:	48 8d 3d 46 2e 00 00 	lea    0x2e46(%rip),%rdi        # 42b9 <_ZStL8__ioinit>
    1473:	e8 08 fc ff ff       	callq  1080 <_ZNSt8ios_base4InitC1Ev@plt>
    1478:	48 8d 15 d9 2b 00 00 	lea    0x2bd9(%rip),%rdx        # 4058 <__dso_handle>
    147f:	48 8d 35 33 2e 00 00 	lea    0x2e33(%rip),%rsi        # 42b9 <_ZStL8__ioinit>
    1486:	48 8b 05 6b 2b 00 00 	mov    0x2b6b(%rip),%rax        # 3ff8 <_ZNSt8ios_base4InitD1Ev@GLIBCXX_3.4>
    148d:	48 89 c7             	mov    %rax,%rdi
    1490:	e8 cb fb ff ff       	callq  1060 <__cxa_atexit@plt>
    1495:	90                   	nop
    1496:	c9                   	leaveq 
    1497:	c3                   	retq   

0000000000001498 <_GLOBAL__sub_I__Z7decSortxx>:
    1498:	55                   	push   %rbp
    1499:	48 89 e5             	mov    %rsp,%rbp
    149c:	be ff ff 00 00       	mov    $0xffff,%esi
    14a1:	bf 01 00 00 00       	mov    $0x1,%edi
    14a6:	e8 a4 ff ff ff       	callq  144f <_Z41__static_initialization_and_destruction_0ii>
    14ab:	5d                   	pop    %rbp
    14ac:	c3                   	retq   

00000000000014ad <_ZSt3maxIiERKT_S2_S2_>:
    14ad:	55                   	push   %rbp
    14ae:	48 89 e5             	mov    %rsp,%rbp
    14b1:	48 89 7d f8          	mov    %rdi,-0x8(%rbp)
    14b5:	48 89 75 f0          	mov    %rsi,-0x10(%rbp)
    14b9:	48 8b 45 f8          	mov    -0x8(%rbp),%rax
    14bd:	8b 10                	mov    (%rax),%edx
    14bf:	48 8b 45 f0          	mov    -0x10(%rbp),%rax
    14c3:	8b 00                	mov    (%rax),%eax
    14c5:	39 c2                	cmp    %eax,%edx
    14c7:	7d 06                	jge    14cf <_ZSt3maxIiERKT_S2_S2_+0x22>
    14c9:	48 8b 45 f0          	mov    -0x10(%rbp),%rax
    14cd:	eb 04                	jmp    14d3 <_ZSt3maxIiERKT_S2_S2_+0x26>
    14cf:	48 8b 45 f8          	mov    -0x8(%rbp),%rax
    14d3:	5d                   	pop    %rbp
    14d4:	c3                   	retq   
    14d5:	66 2e 0f 1f 84 00 00 	nopw   %cs:0x0(%rax,%rax,1)
    14dc:	00 00 00 
    14df:	90                   	nop

00000000000014e0 <__libc_csu_init>:
    14e0:	41 57                	push   %r15
    14e2:	4c 8d 3d d7 28 00 00 	lea    0x28d7(%rip),%r15        # 3dc0 <__frame_dummy_init_array_entry>
    14e9:	41 56                	push   %r14
    14eb:	49 89 d6             	mov    %rdx,%r14
    14ee:	41 55                	push   %r13
    14f0:	49 89 f5             	mov    %rsi,%r13
    14f3:	41 54                	push   %r12
    14f5:	41 89 fc             	mov    %edi,%r12d
    14f8:	55                   	push   %rbp
    14f9:	48 8d 2d d0 28 00 00 	lea    0x28d0(%rip),%rbp        # 3dd0 <__do_global_dtors_aux_fini_array_entry>
    1500:	53                   	push   %rbx
    1501:	4c 29 fd             	sub    %r15,%rbp
    1504:	48 83 ec 08          	sub    $0x8,%rsp
    1508:	e8 f3 fa ff ff       	callq  1000 <_init>
    150d:	48 c1 fd 03          	sar    $0x3,%rbp
    1511:	74 1b                	je     152e <__libc_csu_init+0x4e>
    1513:	31 db                	xor    %ebx,%ebx
    1515:	0f 1f 00             	nopl   (%rax)
    1518:	4c 89 f2             	mov    %r14,%rdx
    151b:	4c 89 ee             	mov    %r13,%rsi
    151e:	44 89 e7             	mov    %r12d,%edi
    1521:	41 ff 14 df          	callq  *(%r15,%rbx,8)
    1525:	48 83 c3 01          	add    $0x1,%rbx
    1529:	48 39 dd             	cmp    %rbx,%rbp
    152c:	75 ea                	jne    1518 <__libc_csu_init+0x38>
    152e:	48 83 c4 08          	add    $0x8,%rsp
    1532:	5b                   	pop    %rbx
    1533:	5d                   	pop    %rbp
    1534:	41 5c                	pop    %r12
    1536:	41 5d                	pop    %r13
    1538:	41 5e                	pop    %r14
    153a:	41 5f                	pop    %r15
    153c:	c3                   	retq   
    153d:	0f 1f 00             	nopl   (%rax)

0000000000001540 <__libc_csu_fini>:
    1540:	c3                   	retq   

Disassembly of section .fini:

0000000000001544 <_fini>:
    1544:	48 83 ec 08          	sub    $0x8,%rsp
    1548:	48 83 c4 08          	add    $0x8,%rsp
    154c:	c3                   	retq   
